
test2_1_G22_VFDclock.elf:	file format elf32-rl78

Disassembly of section .text:

0000053e <.text>:
     53e: 40 05 24 01  	cmp !0xf2405, #1                ; 0xf2405 <__frodata+0xebca7>

00000540 <loop>:
;     SUBW    AX, #1
     540: 24 01 00     	subw ax, #1
;     BZ      $check
     543: dd 02        	bz $0x547 <check>
;     BR      $loop
     545: ef f9        	br $0x540 <loop>

00000547 <check>:
;     CMPW    AX, BC
     547: 43           	cmpw ax, bc
;     DECW    BC
     548: b3           	decw bc
;     BNZ     $loop
     549: df f5        	bnz $0x540 <loop>

0000054b <_exit>:
;     RET
     54b: d7           	ret

0000054c <___dso_handle>:
;     movw sp,#__stack /* Set stack pointer */
     54c: cb f8 20 fe  	movw sp, #65056
;     call    !!_bsp_init_system
     550: fc 51 0e 00  	call !!0xe51 <_bsp_init_system>
;     nop
     554: 00           	nop
;     mov     es, #LOW(HIGHW(__romdatastart))
     555: 41 00        	mov es, #0
;     movw    bc, #LOWW(__romdatacopysize)
     557: 32 66 04     	movw bc, #1126
;     movw    ax, bc
     55a: 13           	movw ax, bc
;     cmpw    ax, #0
     55b: 44 00 00     	cmpw ax, #0
;     bz $1f
     55e: dd 0b        	bz $0x56b <___dso_handle+0x1f>
;     decw    bc
     560: b3           	decw bc
;     decw    bc
     561: b3           	decw bc
;     movw    ax, es:LOWW(__romdatastart)[bc]
     562: 11 79 d8 00  	movw ax, es:216[bc]
;     movw    LOWW(__datastart)[bc], ax
     566: 78 00 ef     	movw 61184[bc], ax              ; 0xfef00 <__datastart>
;     br  $1b
     569: ef ef        	br $0x55a <___dso_handle+0xe>
;     mov es, #LOW(HIGHW(__romsdatastart))
     56b: 41 00        	mov es, #0
;     movw    bc, #LOWW(__romsdatacopysize)
     56d: 32 00 00     	movw bc, #0
;     movw    ax, bc
     570: 13           	movw ax, bc
;     cmpw    ax, #0
     571: 44 00 00     	cmpw ax, #0
;     bz $1f
     574: dd 0b        	bz $0x581 <___dso_handle+0x35>
;     decw    bc
     576: b3           	decw bc
;     decw    bc
     577: b3           	decw bc
;     movw    ax, es:LOWW(__romsdatastart)[bc]
     578: 11 79 5e 67  	movw ax, es:26462[bc]
;     movw    LOWW(__sdatastart)[bc], ax
     57c: 78 20 fe     	movw 65056[bc], ax              ; 0xffe20 <__stack>
;     br  $1b
     57f: ef ef        	br $0x570 <___dso_handle+0x24>
;     movw de, #LOWW(__sbsssize)
     581: 34 00 00     	movw de, #0
;     movw ax, #LOWW(__sbssstart)
     584: 30 20 fe     	movw ax, #65056
;     clrw bc
     587: f7           	clrw bc
;     call !!_memset
     588: fc 08 06 00  	call !!0x608 <_memset>
;     movw de, #LOWW(__bsssize)
     58c: 34 10 02     	movw de, #528
;     movw ax, #LOWW(__bssstart)
     58f: 30 66 f3     	movw ax, #62310
;     clrw bc
     592: f7           	clrw bc
;     call !!_memset
     593: fc 08 06 00  	call !!0x608 <_memset>
;     call    !!_bsp_init_hardware
     597: fc 54 0e 00  	call !!0xe54 <_bsp_init_hardware>
;     nop
     59b: 00           	nop
;     call    !!__rl78_init
     59c: fc df 05 00  	call !!0x5df <__rl78_init>
;     clrw    ax /* argv */
     5a0: f6           	clrw ax
;     clrw    bc /* argc */
     5a1: f7           	clrw bc
;     call    !!_main
     5a2: fc 1a 17 00  	call !!0x171a <_main>
;     call    !!__rl78_fini
     5a6: fc e4 05 00  	call !!0x5e4 <__rl78_fini>

000005aa <_exit>:
;      br  $_exit
     5aa: ef fe        	br $0x5aa <_exit>

000005ac <_rl78_run_init_array>:
;     movw    hl, #__init_array_start
     5ac: 36 5e 67     	movw hl, #26462
;     movw    de, #__init_array_end
     5af: 34 5e 67     	movw de, #26462
;     movw    bc, #2
     5b2: 32 02 00     	movw bc, #2
;     br  $_rl78_run_inilist
     5b5: ef 09        	br $0x5c0 <next_inilist>

000005b7 <_rl78_run_fini_array>:
;     movw    hl, #__fini_array_start
     5b7: 36 5e 67     	movw hl, #26462
;     movw    de, #__fini_array_end
     5ba: 34 5e 67     	movw de, #26462
;     movw    bc, #2
     5bd: 32 02 00     	movw bc, #2

000005c0 <next_inilist>:
;     movw    ax, hl
     5c0: 17           	movw ax, hl
;     cmpw    ax, de
     5c1: 45           	cmpw ax, de
;     bz  $done_inilist
     5c2: dd 1a        	bz $0x5de <done_inilist>
;     movw    ax, [hl]
     5c4: ab           	movw ax, [hl]
;     cmpw    ax, #-1
     5c5: 44 ff ff     	cmpw ax, #65535
;     bz  $skip_inilist
     5c8: dd 0f        	bz $0x5d9 <skip_inilist>
;     cmpw    ax, #0
     5ca: 44 00 00     	cmpw ax, #0
;     bz  $skip_inilist
     5cd: dd 0a        	bz $0x5d9 <skip_inilist>
;     push    ax
     5cf: c1           	push ax
;     push    bc
     5d0: c3           	push bc
;     push    de
     5d1: c5           	push de
;     push    hl
     5d2: c7           	push hl
;     call    ax
     5d3: 61 ca        	call ax
;     pop hl
     5d5: c6           	pop hl
;     pop de
     5d6: c4           	pop de
;     pop bc
     5d7: c2           	pop bc
;     pop ax
     5d8: c0           	pop ax

000005d9 <skip_inilist>:
;     movw    ax, hl
     5d9: 17           	movw ax, hl
;     addw    ax, bc
     5da: 03           	addw ax, bc
;     movw    hl, ax
     5db: 16           	movw hl, ax
;     br  $next_inilist
     5dc: ef e2        	br $0x5c0 <next_inilist>

000005de <done_inilist>:
;     ret
     5de: d7           	ret

000005df <__rl78_init>:
;     call    !!_rl78_run_init_array
     5df: fc ac 05 00  	call !!0x5ac <_rl78_run_init_array>
;     ret
     5e3: d7           	ret

000005e4 <__rl78_fini>:
;     call    !!_rl78_run_fini_array
     5e4: fc b7 05 00  	call !!0x5b7 <_rl78_run_fini_array>
;     ret
     5e8: d7           	ret

000005e9 <_strstr>:
     5e9: 14           	movw de, ax
     5ea: 33           	xchw ax, bc
     5eb: 16           	movw hl, ax
     5ec: f6           	clrw ax
     5ed: 4d           	cmp a, [hl]
     5ee: dd 16        	bz $0x606 <_strstr+0x1d>
     5f0: 89           	mov a, [de]
     5f1: d1           	cmp0 a
     5f2: dd 13        	bz $0x607 <_strstr+0x1e>
     5f4: c7           	push hl
     5f5: f1           	clrb a
     5f6: 4d           	cmp a, [hl]
     5f7: dd 0c        	bz $0x605 <_strstr+0x1c>
     5f9: 89           	mov a, [de]
     5fa: 4d           	cmp a, [hl]
     5fb: a5           	incw de
     5fc: a7           	incw hl
     5fd: dd f6        	bz $0x5f5 <_strstr+0xc>
     5ff: c6           	pop hl
     600: a3           	incw bc
     601: c3           	push bc
     602: c4           	pop de
     603: ef eb        	br $0x5f0 <_strstr+0x7>
     605: c0           	pop ax
     606: 13           	movw ax, bc
     607: d7           	ret

00000608 <_memset>:
     608: 16           	movw hl, ax
     609: 05           	addw ax, de
     60a: 14           	movw de, ax
     60b: 17           	movw ax, hl
     60c: 45           	cmpw ax, de
     60d: 61 f8        	sknz
     60f: d7           	ret
     610: b5           	decw de
     611: 62           	mov a, c
     612: 99           	mov [de], a
     613: 17           	movw ax, hl
     614: ef f6        	br $0x60c <_memset+0x4>

00000616 <_strlen>:
     616: 14           	movw de, ax
     617: 12           	movw bc, ax
     618: 89           	mov a, [de]
     619: a5           	incw de
     61a: d1           	cmp0 a
     61b: df fb        	bnz $0x618 <_strlen+0x2>
     61d: b5           	decw de
     61e: 15           	movw ax, de
     61f: 23           	subw ax, bc
     620: d7           	ret

00000621 <_strcmp>:
     621: 14           	movw de, ax
     622: 13           	movw ax, bc
     623: 16           	movw hl, ax
     624: 89           	mov a, [de]
     625: 70           	mov x, a
     626: 2d           	sub a, [hl]
     627: df 05        	bnz $0x62e <_strcmp+0xd>
     629: a5           	incw de
     62a: a7           	incw hl
     62b: d0           	cmp0 x
     62c: df f6        	bnz $0x624 <_strcmp+0x3>
     62e: 70           	mov x, a
     62f: 61 31        	subc a, a
     631: d7           	ret

00000632 <_strcpy>:
     632: 14           	movw de, ax
     633: 16           	movw hl, ax
     634: 49 00 00     	mov a, 0[bc]                    ; 0xf0000 <__frodata+0xe98a2>
     637: 99           	mov [de], a
     638: a3           	incw bc
     639: a5           	incw de
     63a: d1           	cmp0 a
     63b: df f7        	bnz $0x634 <_strcpy+0x2>
     63d: 17           	movw ax, hl
     63e: d7           	ret

0000063f <_strncmp>:
     63f: 35           	xchw ax, de
     640: 33           	xchw ax, bc
     641: 16           	movw hl, ax
     642: f6           	clrw ax
     643: 43           	cmpw ax, bc
     644: dd 0e        	bz $0x654 <_strncmp+0x15>
     646: 89           	mov a, [de]
     647: 70           	mov x, a
     648: 2d           	sub a, [hl]
     649: df 06        	bnz $0x651 <_strncmp+0x12>
     64b: a5           	incw de
     64c: a7           	incw hl
     64d: b3           	decw bc
     64e: d0           	cmp0 x
     64f: df f1        	bnz $0x642 <_strncmp+0x3>
     651: 70           	mov x, a
     652: 61 31        	subc a, a
     654: d7           	ret

00000655 <_memcpy>:
     655: 33           	xchw ax, bc
     656: 05           	addw ax, de
     657: 35           	xchw ax, de
     658: 03           	addw ax, bc
     659: 16           	movw hl, ax
     65a: 43           	cmpw ax, bc
     65b: 61 f8        	sknz
     65d: d7           	ret
     65e: b5           	decw de
     65f: b7           	decw hl
     660: 89           	mov a, [de]
     661: 9b           	mov [hl], a
     662: 17           	movw ax, hl
     663: ef f5        	br $0x65a <_memcpy+0x5>

00000665 <_memmove>:
     665: c1           	push ax
     666: 35           	xchw ax, de
     667: 33           	xchw ax, bc
     668: 16           	movw hl, ax
     669: 45           	cmpw ax, de
     66a: dc 0b        	bc $0x677 <_memmove+0x12>
     66c: f6           	clrw ax
     66d: 43           	cmpw ax, bc
     66e: dd 17        	bz $0x687 <_memmove+0x22>
     670: 8b           	mov a, [hl]
     671: 99           	mov [de], a
     672: a7           	incw hl
     673: a5           	incw de
     674: b3           	decw bc
     675: ef f5        	br $0x66c <_memmove+0x7>
     677: 03           	addw ax, bc
     678: 16           	movw hl, ax
     679: 15           	movw ax, de
     67a: 03           	addw ax, bc
     67b: 14           	movw de, ax
     67c: f6           	clrw ax
     67d: 43           	cmpw ax, bc
     67e: dd 07        	bz $0x687 <_memmove+0x22>
     680: b7           	decw hl
     681: b5           	decw de
     682: 8b           	mov a, [hl]
     683: 99           	mov [de], a
     684: b3           	decw bc
     685: ef f5        	br $0x67c <_memmove+0x17>
     687: c0           	pop ax
     688: d7           	ret

00000689 <___divdi3>:
     689: 14           	movw de, ax
     68a: fb f8 ff     	movw hl, sp
     68d: ac 0c        	movw ax, [hl+12]
     68f: 61 68        	or a, x
     691: 6e 0e        	or a, [hl+14]
     693: 6e 0f        	or a, [hl+15]
     695: 6e 10        	or a, [hl+16]
     697: 6e 11        	or a, [hl+17]
     699: 6e 12        	or a, [hl+18]
     69b: 6e 13        	or a, [hl+19]
     69d: df 09        	bnz $0x6a8 <___divdi3+0x1f>
     69f: b1           	decw ax
     6a0: b9           	movw [de], ax
     6a1: ba 02        	movw [de+2], ax
     6a3: ba 04        	movw [de+4], ax
     6a5: ba 06        	movw [de+6], ax
     6a7: d7           	ret
     6a8: f3           	clrb b
     6a9: 88 0b        	mov a, [sp+11]
     6ab: 31 75 0b     	bf a.7, $0x6b9 <___divdi3+0x30>
     6ae: 83           	inc b
     6af: ae f8        	movw ax, sp
     6b1: 04 04 00     	addw ax, #4
     6b4: 16           	movw hl, ax
     6b5: fc f4 06 00  	call !!0x6f4 <__REL_llrev>
     6b9: ae f8        	movw ax, sp
     6bb: 04 0c 00     	addw ax, #12
     6be: 16           	movw hl, ax
     6bf: 88 13        	mov a, [sp+19]
     6c1: 31 75 05     	bf a.7, $0x6c9 <___divdi3+0x40>
     6c4: 83           	inc b
     6c5: fc f4 06 00  	call !!0x6f4 <__REL_llrev>
     6c9: ae f8        	movw ax, sp
     6cb: 04 04 00     	addw ax, #4
     6ce: 35           	xchw ax, de
     6cf: c3           	push bc
     6d0: fc 59 07 00  	call !!0x759 <__REL_lldiv>
     6d4: c2           	pop bc
     6d5: 93           	dec b
     6d6: 61 f8        	sknz
     6d8: fc f4 06 00  	call !!0x6f4 <__REL_llrev>
     6dc: d7           	ret

000006dd <___lshrhi3>:
     6dd: d2           	cmp0 c
     6de: dd 05        	bz $0x6e5 <___lshrhi3+0x8>
     6e0: 31 1e        	shrw ax, 1
     6e2: 92           	dec c
     6e3: df fb        	bnz $0x6e0 <___lshrhi3+0x3>
     6e5: d7           	ret

000006e6 <___ashlsi3>:
     6e6: 61 8c        	xch a, e
     6e8: d1           	cmp0 a
     6e9: 61 8c        	xch a, e
     6eb: dd 06        	bz $0x6f3 <___ashlsi3+0xd>
     6ed: 01           	addw ax, ax
     6ee: 61 fe        	rolwc bc, 1
     6f0: 94           	dec e
     6f1: df fa        	bnz $0x6ed <___ashlsi3+0x7>
     6f3: d7           	ret

000006f4 <__REL_llrev>:
     6f4: f6           	clrw ax
     6f5: 61 29 00     	subw ax, [hl]
     6f8: bb           	movw [hl], ax
     6f9: f1           	clrb a
     6fa: 3e 02        	subc a, [hl+2]
     6fc: 70           	mov x, a
     6fd: f1           	clrb a
     6fe: 3e 03        	subc a, [hl+3]
     700: bc 02        	movw [hl+2], ax
     702: f1           	clrb a
     703: 3e 04        	subc a, [hl+4]
     705: 70           	mov x, a
     706: f1           	clrb a
     707: 3e 05        	subc a, [hl+5]
     709: bc 04        	movw [hl+4], ax
     70b: 61 31        	subc a, a
     70d: 70           	mov x, a
     70e: 61 29 06     	subw ax, [hl+6]
     711: bc 06        	movw [hl+6], ax
     713: d7           	ret

00000714 <___udivdi3>:
     714: 14           	movw de, ax
     715: ae f8        	movw ax, sp
     717: 04 0c 00     	addw ax, #12
     71a: 16           	movw hl, ax
     71b: ab           	movw ax, [hl]
     71c: 61 68        	or a, x
     71e: 6e 02        	or a, [hl+2]
     720: 6e 03        	or a, [hl+3]
     722: 6e 04        	or a, [hl+4]
     724: 6e 05        	or a, [hl+5]
     726: 6e 06        	or a, [hl+6]
     728: 6e 07        	or a, [hl+7]
     72a: df 09        	bnz $0x735 <___udivdi3+0x21>
     72c: b1           	decw ax
     72d: b9           	movw [de], ax
     72e: ba 02        	movw [de+2], ax
     730: ba 04        	movw [de+4], ax
     732: ba 06        	movw [de+6], ax
     734: d7           	ret
     735: 17           	movw ax, hl
     736: 24 08 00     	subw ax, #8
     739: 35           	xchw ax, de
     73a: ec 59 07 00  	br !!0x759 <__REL_lldiv>
     73e: aa 02        	movw ax, [de+2]
     740: 12           	movw bc, ax
     741: a9           	movw ax, [de]
     742: c1           	push ax
     743: ab           	movw ax, [hl]
     744: 14           	movw de, ax
     745: ac 02        	movw ax, [hl+2]
     747: 16           	movw hl, ax
     748: c0           	pop ax
     749: ce fb 0b     	divwu
     74c: c6           	pop hl
     74d: bb           	movw [hl], ax
     74e: 13           	movw ax, bc
     74f: bc 02        	movw [hl+2], ax
     751: f6           	clrw ax
     752: bc 04        	movw [hl+4], ax
     754: bc 06        	movw [hl+6], ax
     756: 10 10        	addw sp, #16
     758: d7           	ret

00000759 <__REL_lldiv>:
     759: c7           	push hl
     75a: c5           	push de
     75b: 20 0c        	subw sp, #12
     75d: c1           	push ax
     75e: ac 06        	movw ax, [hl+6]
     760: 61 68        	or a, x
     762: 6e 05        	or a, [hl+5]
     764: 6e 04        	or a, [hl+4]
     766: 61 e8        	skz
     768: ee 2a 01     	br $!0x895 <__REL_lldiv+0x13c>
     76b: aa 04        	movw ax, [de+4]
     76d: 12           	movw bc, ax
     76e: aa 06        	movw ax, [de+6]
     770: 61 68        	or a, x
     772: 61 6a        	or a, c
     774: 61 6b        	or a, b
     776: dd c6        	bz $0x73e <___udivdi3+0x2a>
     778: aa 06        	movw ax, [de+6]
     77a: 12           	movw bc, ax
     77b: aa 04        	movw ax, [de+4]
     77d: c1           	push ax
     77e: ab           	movw ax, [hl]
     77f: 14           	movw de, ax
     780: ac 02        	movw ax, [hl+2]
     782: 16           	movw hl, ax
     783: c0           	pop ax
     784: ce fb 0b     	divwu
     787: b8 06        	movw [sp+6], ax
     789: 13           	movw ax, bc
     78a: b8 08        	movw [sp+8], ax
     78c: 17           	movw ax, hl
     78d: 12           	movw bc, ax
     78e: a8 10        	movw ax, [sp+16]
     790: 16           	movw hl, ax
     791: ac 02        	movw ax, [hl+2]
     793: 61 60        	or x, a
     795: dd 06        	bz $0x79d <__REL_lldiv+0x44>
     797: d1           	cmp0 a
     798: dd 2f        	bz $0x7c9 <__REL_lldiv+0x70>
     79a: ee 96 00     	br $!0x833 <__REL_lldiv+0xda>
     79d: 15           	movw ax, de
     79e: 12           	movw bc, ax
     79f: a8 0e        	movw ax, [sp+14]
     7a1: 14           	movw de, ax
     7a2: aa 02        	movw ax, [de+2]
     7a4: c1           	push ax
     7a5: a8 12        	movw ax, [sp+18]
     7a7: 16           	movw hl, ax
     7a8: ab           	movw ax, [hl]
     7a9: 14           	movw de, ax
     7aa: f6           	clrw ax
     7ab: 16           	movw hl, ax
     7ac: c0           	pop ax
     7ad: ce fb 0b     	divwu
     7b0: b8 04        	movw [sp+4], ax
     7b2: 15           	movw ax, de
     7b3: 12           	movw bc, ax
     7b4: a8 0e        	movw ax, [sp+14]
     7b6: 14           	movw de, ax
     7b7: a9           	movw ax, [de]
     7b8: c1           	push ax
     7b9: a8 12        	movw ax, [sp+18]
     7bb: 16           	movw hl, ax
     7bc: ab           	movw ax, [hl]
     7bd: 14           	movw de, ax
     7be: f6           	clrw ax
     7bf: 16           	movw hl, ax
     7c0: c0           	pop ax
     7c1: ce fb 0b     	divwu
     7c4: b8 02        	movw [sp+2], ax
     7c6: ee bd 00     	br $!0x886 <__REL_lldiv+0x12d>
     7c9: 31 8c        	shlw bc, 8
     7cb: 65           	mov a, d
     7cc: 72           	mov c, a
     7cd: a8 0e        	movw ax, [sp+14]
     7cf: 16           	movw hl, ax
     7d0: 8c 03        	mov a, [hl+3]
     7d2: 70           	mov x, a
     7d3: 64           	mov a, e
     7d4: c1           	push ax
     7d5: a8 12        	movw ax, [sp+18]
     7d7: 16           	movw hl, ax
     7d8: ab           	movw ax, [hl]
     7d9: 14           	movw de, ax
     7da: ac 02        	movw ax, [hl+2]
     7dc: 16           	movw hl, ax
     7dd: c0           	pop ax
     7de: ce fb 0b     	divwu
     7e1: 60           	mov a, x
     7e2: 98 05        	mov [sp+5], a
     7e4: 66           	mov a, l
     7e5: 73           	mov b, a
     7e6: 65           	mov a, d
     7e7: 72           	mov c, a
     7e8: a8 0e        	movw ax, [sp+14]
     7ea: 16           	movw hl, ax
     7eb: ac 02        	movw ax, [hl+2]
     7ed: 64           	mov a, e
     7ee: c1           	push ax
     7ef: a8 12        	movw ax, [sp+18]
     7f1: 16           	movw hl, ax
     7f2: ab           	movw ax, [hl]
     7f3: 14           	movw de, ax
     7f4: ac 02        	movw ax, [hl+2]
     7f6: 16           	movw hl, ax
     7f7: c0           	pop ax
     7f8: ce fb 0b     	divwu
     7fb: 60           	mov a, x
     7fc: 98 04        	mov [sp+4], a
     7fe: 66           	mov a, l
     7ff: 73           	mov b, a
     800: 65           	mov a, d
     801: 72           	mov c, a
     802: a8 0e        	movw ax, [sp+14]
     804: 16           	movw hl, ax
     805: ab           	movw ax, [hl]
     806: 70           	mov x, a
     807: 64           	mov a, e
     808: c1           	push ax
     809: a8 12        	movw ax, [sp+18]
     80b: 16           	movw hl, ax
     80c: ab           	movw ax, [hl]
     80d: 14           	movw de, ax
     80e: ac 02        	movw ax, [hl+2]
     810: 16           	movw hl, ax
     811: c0           	pop ax
     812: ce fb 0b     	divwu
     815: 60           	mov a, x
     816: 98 03        	mov [sp+3], a
     818: 66           	mov a, l
     819: 73           	mov b, a
     81a: 65           	mov a, d
     81b: 72           	mov c, a
     81c: a8 0e        	movw ax, [sp+14]
     81e: 16           	movw hl, ax
     81f: ab           	movw ax, [hl]
     820: 64           	mov a, e
     821: c1           	push ax
     822: a8 12        	movw ax, [sp+18]
     824: 16           	movw hl, ax
     825: ab           	movw ax, [hl]
     826: 14           	movw de, ax
     827: ac 02        	movw ax, [hl+2]
     829: 16           	movw hl, ax
     82a: c0           	pop ax
     82b: ce fb 0b     	divwu
     82e: 60           	mov a, x
     82f: 98 02        	mov [sp+2], a
     831: ef 53        	br $0x886 <__REL_lldiv+0x12d>
     833: 13           	movw ax, bc
     834: b8 0c        	movw [sp+12], ax
     836: 15           	movw ax, de
     837: b8 0a        	movw [sp+10], ax
     839: a8 0e        	movw ax, [sp+14]
     83b: 14           	movw de, ax
     83c: aa 02        	movw ax, [de+2]
     83e: b8 04        	movw [sp+4], ax
     840: a9           	movw ax, [de]
     841: b8 02        	movw [sp+2], ax
     843: a8 10        	movw ax, [sp+16]
     845: 16           	movw hl, ax
     846: 52 20        	mov c, #32
     848: a8 02        	movw ax, [sp+2]
     84a: 01           	addw ax, ax
     84b: b8 02        	movw [sp+2], ax
     84d: a8 04        	movw ax, [sp+4]
     84f: 61 ee        	rolwc ax, 1
     851: b8 04        	movw [sp+4], ax
     853: a8 0a        	movw ax, [sp+10]
     855: 61 ee        	rolwc ax, 1
     857: b8 0a        	movw [sp+10], ax
     859: a8 0c        	movw ax, [sp+12]
     85b: 61 ee        	rolwc ax, 1
     85d: b8 0c        	movw [sp+12], ax
     85f: dc 0c        	bc $0x86d <__REL_lldiv+0x114>
     861: 61 49 02     	cmpw ax, [hl+2]
     864: df 05        	bnz $0x86b <__REL_lldiv+0x112>
     866: a8 0a        	movw ax, [sp+10]
     868: 61 49 00     	cmpw ax, [hl]
     86b: dc 16        	bc $0x883 <__REL_lldiv+0x12a>
     86d: a8 0a        	movw ax, [sp+10]
     86f: 61 29 00     	subw ax, [hl]
     872: b8 0a        	movw [sp+10], ax
     874: a8 0c        	movw ax, [sp+12]
     876: 61 d8        	sknc
     878: b1           	decw ax
     879: 61 29 02     	subw ax, [hl+2]
     87c: b8 0c        	movw [sp+12], ax
     87e: a8 02        	movw ax, [sp+2]
     880: a1           	incw ax
     881: b8 02        	movw [sp+2], ax
     883: 92           	dec c
     884: df c2        	bnz $0x848 <__REL_lldiv+0xef>
     886: c6           	pop hl
     887: c0           	pop ax
     888: bb           	movw [hl], ax
     889: c0           	pop ax
     88a: bc 02        	movw [hl+2], ax
     88c: c0           	pop ax
     88d: bc 04        	movw [hl+4], ax
     88f: c0           	pop ax
     890: bc 06        	movw [hl+6], ax
     892: 10 08        	addw sp, #8
     894: d7           	ret
     895: aa 06        	movw ax, [de+6]
     897: 61 49 06     	cmpw ax, [hl+6]
     89a: df 14        	bnz $0x8b0 <__REL_lldiv+0x157>
     89c: aa 04        	movw ax, [de+4]
     89e: 61 49 04     	cmpw ax, [hl+4]
     8a1: df 0d        	bnz $0x8b0 <__REL_lldiv+0x157>
     8a3: aa 02        	movw ax, [de+2]
     8a5: 61 49 02     	cmpw ax, [hl+2]
     8a8: df 06        	bnz $0x8b0 <__REL_lldiv+0x157>
     8aa: a9           	movw ax, [de]
     8ab: 61 49 00     	cmpw ax, [hl]
     8ae: 61 e8        	skz
     8b0: de 0f        	bnc $0x8c1 <__REL_lldiv+0x168>
     8b2: c6           	pop hl
     8b3: f6           	clrw ax
     8b4: bc 06        	movw [hl+6], ax
     8b6: bc 04        	movw [hl+4], ax
     8b8: bc 02        	movw [hl+2], ax
     8ba: 61 f8        	sknz
     8bc: e6           	onew ax
     8bd: bb           	movw [hl], ax
     8be: 10 10        	addw sp, #16
     8c0: d7           	ret
     8c1: f6           	clrw ax
     8c2: b8 02        	movw [sp+2], ax
     8c4: b8 04        	movw [sp+4], ax
     8c6: 52 20        	mov c, #32
     8c8: a9           	movw ax, [de]
     8c9: 01           	addw ax, ax
     8ca: b9           	movw [de], ax
     8cb: aa 02        	movw ax, [de+2]
     8cd: 61 ee        	rolwc ax, 1
     8cf: ba 02        	movw [de+2], ax
     8d1: aa 04        	movw ax, [de+4]
     8d3: 61 ee        	rolwc ax, 1
     8d5: ba 04        	movw [de+4], ax
     8d7: aa 06        	movw ax, [de+6]
     8d9: 61 ee        	rolwc ax, 1
     8db: ba 06        	movw [de+6], ax
     8dd: a8 02        	movw ax, [sp+2]
     8df: 61 ee        	rolwc ax, 1
     8e1: b8 02        	movw [sp+2], ax
     8e3: a8 04        	movw ax, [sp+4]
     8e5: 61 ee        	rolwc ax, 1
     8e7: b8 04        	movw [sp+4], ax
     8e9: 61 49 06     	cmpw ax, [hl+6]
     8ec: df 13        	bnz $0x901 <__REL_lldiv+0x1a8>
     8ee: a8 02        	movw ax, [sp+2]
     8f0: 61 49 04     	cmpw ax, [hl+4]
     8f3: df 0c        	bnz $0x901 <__REL_lldiv+0x1a8>
     8f5: aa 06        	movw ax, [de+6]
     8f7: 61 49 02     	cmpw ax, [hl+2]
     8fa: df 05        	bnz $0x901 <__REL_lldiv+0x1a8>
     8fc: aa 04        	movw ax, [de+4]
     8fe: 61 49 00     	cmpw ax, [hl]
     901: dc 28        	bc $0x92b <__REL_lldiv+0x1d2>
     903: aa 04        	movw ax, [de+4]
     905: 61 29 00     	subw ax, [hl]
     908: ba 04        	movw [de+4], ax
     90a: aa 06        	movw ax, [de+6]
     90c: 08           	xch a, x
     90d: 3e 02        	subc a, [hl+2]
     90f: 08           	xch a, x
     910: 3e 03        	subc a, [hl+3]
     912: ba 06        	movw [de+6], ax
     914: a8 02        	movw ax, [sp+2]
     916: 08           	xch a, x
     917: 3e 04        	subc a, [hl+4]
     919: 08           	xch a, x
     91a: 3e 05        	subc a, [hl+5]
     91c: b8 02        	movw [sp+2], ax
     91e: a8 04        	movw ax, [sp+4]
     920: 61 d8        	sknc
     922: b1           	decw ax
     923: 61 29 06     	subw ax, [hl+6]
     926: b8 04        	movw [sp+4], ax
     928: a9           	movw ax, [de]
     929: a1           	incw ax
     92a: b9           	movw [de], ax
     92b: 92           	dec c
     92c: df 9a        	bnz $0x8c8 <__REL_lldiv+0x16f>
     92e: c6           	pop hl
     92f: a9           	movw ax, [de]
     930: bb           	movw [hl], ax
     931: aa 02        	movw ax, [de+2]
     933: bc 02        	movw [hl+2], ax
     935: f6           	clrw ax
     936: bc 04        	movw [hl+4], ax
     938: bc 06        	movw [hl+6], ax
     93a: 10 10        	addw sp, #16
     93c: d7           	ret
     93d: c0           	pop ax
     93e: 15           	movw ax, de
     93f: d7           	ret

00000940 <___modsi3>:
     940: 14           	movw de, ax
     941: f6           	clrw ax
     942: c1           	push ax
     943: fb f8 ff     	movw hl, sp
     946: a8 06        	movw ax, [sp+6]
     948: 61 68        	or a, x
     94a: 6e 08        	or a, [hl+8]
     94c: 6e 09        	or a, [hl+9]
     94e: dd ed        	bz $0x93d <__REL_lldiv+0x1e4>
     950: 63           	mov a, b
     951: 31 75 0b     	bf a.7, $0x95f <___modsi3+0x1f>
     954: 61 59 00     	inc [hl+0]
     957: f6           	clrw ax
     958: 25           	subw ax, de
     959: 14           	movw de, ax
     95a: 61 31        	subc a, a
     95c: 70           	mov x, a
     95d: 23           	subw ax, bc
     95e: 12           	movw bc, ax
     95f: ac 08        	movw ax, [hl+8]
     961: 31 75 0c     	bf a.7, $0x970 <___modsi3+0x30>
     964: f6           	clrw ax
     965: 61 29 06     	subw ax, [hl+6]
     968: bc 06        	movw [hl+6], ax
     96a: 61 31        	subc a, a
     96c: 70           	mov x, a
     96d: 61 29 08     	subw ax, [hl+8]
     970: 16           	movw hl, ax
     971: a8 06        	movw ax, [sp+6]
     973: 35           	xchw ax, de
     974: ce fb 0b     	divwu
     977: c2           	pop bc
     978: 92           	dec c
     979: 17           	movw ax, hl
     97a: df 07        	bnz $0x983 <___modsi3+0x43>
     97c: f6           	clrw ax
     97d: 25           	subw ax, de
     97e: 14           	movw de, ax
     97f: 61 31        	subc a, a
     981: 70           	mov x, a
     982: 27           	subw ax, hl
     983: 12           	movw bc, ax
     984: 15           	movw ax, de
     985: d7           	ret

00000986 <___muldi3>:
     986: c1           	push ax
     987: a8 10        	movw ax, [sp+16]
     989: c1           	push ax
     98a: a8 10        	movw ax, [sp+16]
     98c: c1           	push ax
     98d: a8 0c        	movw ax, [sp+12]
     98f: 14           	movw de, ax
     990: a8 0a        	movw ax, [sp+10]
     992: 12           	movw bc, ax
     993: a8 04        	movw ax, [sp+4]
     995: fc be 09 00  	call !!0x9be <__COM_mulul>
     999: a8 10        	movw ax, [sp+16]
     99b: 12           	movw bc, ax
     99c: a8 0e        	movw ax, [sp+14]
     99e: fc 3e 0a 00  	call !!0xa3e <___mulsi3>
     9a2: fc 0d 0a 00  	call !!0xa0d <__REL_llmul_addh>
     9a6: a8 18        	movw ax, [sp+24]
     9a8: b8 02        	movw [sp+2], ax
     9aa: a8 16        	movw ax, [sp+22]
     9ac: b8 00        	movw [sp+0], ax
     9ae: a8 0c        	movw ax, [sp+12]
     9b0: 12           	movw bc, ax
     9b1: a8 0a        	movw ax, [sp+10]
     9b3: fc 3e 0a 00  	call !!0xa3e <___mulsi3>
     9b7: fc 0d 0a 00  	call !!0xa0d <__REL_llmul_addh>
     9bb: 10 06        	addw sp, #6
     9bd: d7           	ret

000009be <__COM_mulul>:
     9be: c3           	push bc
     9bf: 16           	movw hl, ax
     9c0: a8 06        	movw ax, [sp+6]
     9c2: ce fb 01     	mulhu
     9c5: bb           	movw [hl], ax
     9c6: 13           	movw ax, bc
     9c7: bc 02        	movw [hl+2], ax
     9c9: 15           	movw ax, de
     9ca: 12           	movw bc, ax
     9cb: a8 06        	movw ax, [sp+6]
     9cd: ce fb 01     	mulhu
     9d0: 61 09 02     	addw ax, [hl+2]
     9d3: bc 02        	movw [hl+2], ax
     9d5: 61 d8        	sknc
     9d7: a3           	incw bc
     9d8: 13           	movw ax, bc
     9d9: bc 04        	movw [hl+4], ax
     9db: a8 00        	movw ax, [sp+0]
     9dd: 12           	movw bc, ax
     9de: a8 08        	movw ax, [sp+8]
     9e0: ce fb 01     	mulhu
     9e3: 61 09 02     	addw ax, [hl+2]
     9e6: bc 02        	movw [hl+2], ax
     9e8: 61 d8        	sknc
     9ea: a3           	incw bc
     9eb: ac 04        	movw ax, [hl+4]
     9ed: 03           	addw ax, bc
     9ee: bc 04        	movw [hl+4], ax
     9f0: f6           	clrw ax
     9f1: 61 ee        	rolwc ax, 1
     9f3: bc 06        	movw [hl+6], ax
     9f5: 15           	movw ax, de
     9f6: 12           	movw bc, ax
     9f7: a8 08        	movw ax, [sp+8]
     9f9: ce fb 01     	mulhu
     9fc: 61 09 04     	addw ax, [hl+4]
     9ff: bc 04        	movw [hl+4], ax
     a01: 61 d8        	sknc
     a03: a3           	incw bc
     a04: 13           	movw ax, bc
     a05: 61 09 06     	addw ax, [hl+6]
     a08: bc 06        	movw [hl+6], ax
     a0a: 10 02        	addw sp, #2
     a0c: d7           	ret

00000a0d <__REL_llmul_addh>:
     a0d: 14           	movw de, ax
     a0e: a8 08        	movw ax, [sp+8]
     a10: 16           	movw hl, ax
     a11: ac 04        	movw ax, [hl+4]
     a13: 05           	addw ax, de
     a14: bc 04        	movw [hl+4], ax
     a16: ac 06        	movw ax, [hl+6]
     a18: 61 d8        	sknc
     a1a: a1           	incw ax
     a1b: 03           	addw ax, bc
     a1c: bc 06        	movw [hl+6], ax
     a1e: d7           	ret

00000a1f <___modhi3>:
     a1f: 14           	movw de, ax
     a20: f6           	clrw ax
     a21: 43           	cmpw ax, bc
     a22: dd 18        	bz $0xa3c <___modhi3+0x1d>
     a24: 16           	movw hl, ax
     a25: 13           	movw ax, bc
     a26: 31 75 02     	bf a.7, $0xa2b <___modhi3+0xc>
     a29: f6           	clrw ax
     a2a: 23           	subw ax, bc
     a2b: 35           	xchw ax, de
     a2c: 31 75 04     	bf a.7, $0xa33 <___modhi3+0x14>
     a2f: 86           	inc l
     a30: 12           	movw bc, ax
     a31: f6           	clrw ax
     a32: 23           	subw ax, bc
     a33: ce fb 03     	divhu
     a36: 96           	dec l
     a37: df 03        	bnz $0xa3c <___modhi3+0x1d>
     a39: f6           	clrw ax
     a3a: 25           	subw ax, de
     a3b: d7           	ret
     a3c: 15           	movw ax, de
     a3d: d7           	ret

00000a3e <___mulsi3>:
     a3e: 16           	movw hl, ax
     a3f: a8 04        	movw ax, [sp+4]
     a41: ce fb 01     	mulhu
     a44: 14           	movw de, ax
     a45: 17           	movw ax, hl
     a46: 12           	movw bc, ax
     a47: a8 06        	movw ax, [sp+6]
     a49: ce fb 01     	mulhu
     a4c: 05           	addw ax, de
     a4d: 37           	xchw ax, hl
     a4e: 12           	movw bc, ax
     a4f: a8 04        	movw ax, [sp+4]
     a51: ce fb 01     	mulhu
     a54: 33           	xchw ax, bc
     a55: 07           	addw ax, hl
     a56: 33           	xchw ax, bc
     a57: d7           	ret
     a58: c0           	pop ax
     a59: f6           	clrw ax
     a5a: b1           	decw ax
     a5b: 12           	movw bc, ax
     a5c: d7           	ret

00000a5d <___divsi3>:
     a5d: 14           	movw de, ax
     a5e: f6           	clrw ax
     a5f: c1           	push ax
     a60: fb f8 ff     	movw hl, sp
     a63: a8 06        	movw ax, [sp+6]
     a65: 61 68        	or a, x
     a67: 6e 08        	or a, [hl+8]
     a69: 6e 09        	or a, [hl+9]
     a6b: dd eb        	bz $0xa58 <___mulsi3+0x1a>
     a6d: 63           	mov a, b
     a6e: 31 75 0b     	bf a.7, $0xa7c <___divsi3+0x1f>
     a71: 61 59 00     	inc [hl+0]
     a74: f6           	clrw ax
     a75: 25           	subw ax, de
     a76: 14           	movw de, ax
     a77: 61 31        	subc a, a
     a79: 70           	mov x, a
     a7a: 23           	subw ax, bc
     a7b: 12           	movw bc, ax
     a7c: ac 08        	movw ax, [hl+8]
     a7e: 31 75 0f     	bf a.7, $0xa90 <___divsi3+0x33>
     a81: 61 59 00     	inc [hl+0]
     a84: f6           	clrw ax
     a85: 61 29 06     	subw ax, [hl+6]
     a88: bc 06        	movw [hl+6], ax
     a8a: 61 31        	subc a, a
     a8c: 70           	mov x, a
     a8d: 61 29 08     	subw ax, [hl+8]
     a90: 16           	movw hl, ax
     a91: a8 06        	movw ax, [sp+6]
     a93: 35           	xchw ax, de
     a94: ce fb 0b     	divwu
     a97: c4           	pop de
     a98: 94           	dec e
     a99: df 0a        	bnz $0xaa5 <___divsi3+0x48>
     a9b: 14           	movw de, ax
     a9c: f6           	clrw ax
     a9d: 25           	subw ax, de
     a9e: 14           	movw de, ax
     a9f: 61 31        	subc a, a
     aa1: 70           	mov x, a
     aa2: 23           	subw ax, bc
     aa3: 12           	movw bc, ax
     aa4: 15           	movw ax, de
     aa5: d7           	ret
     aa6: b1           	decw ax
     aa7: d7           	ret

00000aa8 <___divhi3>:
     aa8: 14           	movw de, ax
     aa9: f6           	clrw ax
     aaa: 43           	cmpw ax, bc
     aab: dd f9        	bz $0xaa6 <___divsi3+0x49>
     aad: 16           	movw hl, ax
     aae: 13           	movw ax, bc
     aaf: 31 75 03     	bf a.7, $0xab5 <___divhi3+0xd>
     ab2: 86           	inc l
     ab3: f6           	clrw ax
     ab4: 23           	subw ax, bc
     ab5: 35           	xchw ax, de
     ab6: 31 75 04     	bf a.7, $0xabd <___divhi3+0x15>
     ab9: 86           	inc l
     aba: 12           	movw bc, ax
     abb: f6           	clrw ax
     abc: 23           	subw ax, bc
     abd: ce fb 03     	divhu
     ac0: 96           	dec l
     ac1: df 03        	bnz $0xac6 <___divhi3+0x1e>
     ac3: 12           	movw bc, ax
     ac4: f6           	clrw ax
     ac5: 23           	subw ax, bc
     ac6: d7           	ret

00000ac7 <_get_fclk_freq_hz>:
;     if (1U == CLS)
     ac7: 31 f4 a4 0a  	bf 0xfffa4.7, $0xad5 <_get_fclk_freq_hz+0xe>
     acb: 34 00 00     	movw de, #0
     ace: 32 00 80     	movw bc, #32768
;         if (1U == SELLOSC)
     ad1: 8e a7        	mov a, 0xfffa7
     ad3: ef 56        	br $0xb2b <_get_fclk_freq_hz+0x64>
;         if (1U == MCS)
     ad5: 31 d4 a4 1e  	bf 0xfffa4.5, $0xaf7 <_get_fclk_freq_hz+0x30>
;             for (i = MOSCDIV; i > 0U; i--)
     ad9: 8f 14 02     	mov a, !0xf0214                 ; 0xf0214 <__frodata+0xe9ab6>
     adc: 76           	mov l, a
     add: 34 4c 00     	movw de, #76
     ae0: 32 40 4b     	movw bc, #19264
;             for (i = MOSCDIV; i > 0U; i--)
     ae3: 66           	mov a, l
     ae4: d1           	cmp0 a
     ae5: dd 44        	bz $0xb2b <_get_fclk_freq_hz+0x64>
     ae7: 96           	dec l
;                 sys_clock_src_freq /= 2U;
     ae8: 13           	movw ax, bc
     ae9: 31 1e        	shrw ax, 1
     aeb: 12           	movw bc, ax
     aec: 15           	movw ax, de
     aed: 31 fd        	shlw ax, 15
     aef: 03           	addw ax, bc
     af0: 12           	movw bc, ax
     af1: 15           	movw ax, de
     af2: 31 1e        	shrw ax, 1
     af4: 14           	movw de, ax
     af5: ef ec        	br $0xae3 <_get_fclk_freq_hz+0x1c>
;             if (1U == MCS1)
     af7: 31 94 a4 13  	bf 0xfffa4.1, $0xb0e <_get_fclk_freq_hz+0x47>
;                 sys_clock_src_freq = g_fim_hz[MOCODIV & 0x03U];
     afb: 51 03        	mov a, #3
     afd: 5f f2 00     	and a, !0xf00f2                 ; 0xf00f2 <__frodata+0xe9994>
     b00: 31 8e        	shrw ax, 8
     b02: 31 2d        	shlw ax, 2
     b04: 12           	movw bc, ax
     b05: 79 74 61     	movw ax, 24948[bc]              ; 0xf6174 <__frodata+0xefa16>
     b08: 14           	movw de, ax
     b09: 79 72 61     	movw ax, 24946[bc]              ; 0xf6172 <__frodata+0xefa14>
     b0c: ef 1c        	br $0xb2a <_get_fclk_freq_hz+0x63>
;                 sys_clock_src_freq = g_fih_hz[(temp1 & 0x08U) | (temp2 & 0x07U)];
     b0e: 41 00        	mov es, #0
     b10: 51 08        	mov a, #8
     b12: 11 5f c2 00  	and a, es:!0xc2
     b16: 70           	mov x, a
     b17: 51 07        	mov a, #7
     b19: 5f a8 00     	and a, !0xf00a8                 ; 0xf00a8 <__frodata+0xe994a>
     b1c: 61 68        	or a, x
     b1e: 31 8e        	shrw ax, 8
     b20: 31 2d        	shlw ax, 2
     b22: 12           	movw bc, ax
     b23: 79 34 61     	movw ax, 24884[bc]              ; 0xf6134 <__frodata+0xef9d6>
     b26: 14           	movw de, ax
     b27: 79 32 61     	movw ax, 24882[bc]              ; 0xf6132 <__frodata+0xef9d4>
     b2a: 12           	movw bc, ax
;     return sys_clock_src_freq;
     b2b: 13           	movw ax, bc
     b2c: c5           	push de
     b2d: c2           	pop bc
     b2e: d7           	ret

00000b2f <_mcu_clock_setup>:
; {
     b2f: 20 04        	subw sp, #4
;     HOCODIV = BSP_CFG_HOCO_DIVIDE;
     b31: f5 a8 00     	clrb !0xf00a8                   ; 0xf00a8 <__frodata+0xe994a>
;     CMC = cmc_tmp;
     b34: ce a0 18     	mov 0xfffa0, #24
;     while (1U == MCS1)
     b37: 71 7a a1     	set1 0xfffa1.7
     b3a: 71 1b a1     	clr1 0xfffa1.1
     b3d: 71 0b a4     	clr1 0xfffa4.0
     b40: 31 92 a4 fc  	bt 0xfffa4.1, $0xb40 <_mcu_clock_setup+0x11>
;     while (1U == MCS)
     b44: 71 4b a4     	clr1 0xfffa4.4
     b47: 31 d2 a4 fc  	bt 0xfffa4.5, $0xb47 <_mcu_clock_setup+0x18>
;     OSMC |= 0x00U;
     b4b: 8f f3 00     	mov a, !0xf00f3                 ; 0xf00f3 <__frodata+0xe9995>
     b4e: 9f f3 00     	mov !0xf00f3, a                 ; 0xf00f3 <__frodata+0xe9995>
;     for (w_count = 0U; w_count <= BSP_CFG_SUBWAITTIME; w_count++)
     b51: 71 6b a1     	clr1 0xfffa1.6
     b54: f6           	clrw ax
     b55: b8 02        	movw [sp+2], ax
     b57: b8 00        	movw [sp+0], ax
     b59: a8 02        	movw ax, [sp+2]
     b5b: 14           	movw de, ax
     b5c: a8 00        	movw ax, [sp+0]
     b5e: 12           	movw bc, ax
     b5f: 15           	movw ax, de
     b60: 44 0c 00     	cmpw ax, #12
     b63: 13           	movw ax, bc
     b64: 61 f8        	sknz
     b66: 44 01 35     	cmpw ax, #13569
     b69: de 15        	bnc $0xb80 <_mcu_clock_setup+0x51>
;         BSP_NOP();
     b6b: 00           	nop
;     for (w_count = 0U; w_count <= BSP_CFG_SUBWAITTIME; w_count++)
     b6c: a8 00        	movw ax, [sp+0]
     b6e: 14           	movw de, ax
     b6f: a8 02        	movw ax, [sp+2]
     b71: 12           	movw bc, ax
     b72: 15           	movw ax, de
     b73: 04 01 00     	addw ax, #1
     b76: 14           	movw de, ax
     b77: 61 d8        	sknc
     b79: a3           	incw bc
     b7a: 13           	movw ax, bc
     b7b: b8 02        	movw [sp+2], ax
     b7d: 15           	movw ax, de
     b7e: ef d7        	br $0xb57 <_mcu_clock_setup+0x28>
;     while (1U == CLS)
     b80: 71 6b a4     	clr1 0xfffa4.6
     b83: 31 f2 a4 fc  	bt 0xfffa4.7, $0xb83 <_mcu_clock_setup+0x54>
; } /* End of function mcu_clock_setup() */
     b87: 71 08 15 02  	clr1 !0xf0215.0
     b8b: 71 0b a1     	clr1 0xfffa1.0
     b8e: 10 04        	addw sp, #4
     b90: d7           	ret

00000b91 <_R_BSP_GetFclkFreqHz>:
;     return (get_fclk_freq_hz());
     b91: ed c7 0a     	br !0xac7 <_get_fclk_freq_hz>

00000b94 <_R_BSP_SoftwareDelay>:
; {
     b94: 20 52        	subw sp, #82
     b96: 35           	xchw ax, de
     b97: b8 46        	movw [sp+70], ax
     b99: 35           	xchw ax, de
     b9a: 33           	xchw ax, bc
     b9b: b8 44        	movw [sp+68], ax
     b9d: 33           	xchw ax, bc
     b9e: b8 48        	movw [sp+72], ax
;     fclk_rate = R_BSP_GetFclkFreqHz();    /* Get the current ICLK frequency. */
     ba0: fd 91 0b     	call !0xb91 <_R_BSP_GetFclkFreqHz>
     ba3: 14           	movw de, ax
     ba4: a8 48        	movw ax, [sp+72]
     ba6: 16           	movw hl, ax
     ba7: 13           	movw ax, bc
     ba8: b8 12        	movw [sp+18], ax
     baa: 15           	movw ax, de
     bab: b8 10        	movw [sp+16], ax
;     if ((BSP_DELAY_MICROSECS == units) &&
     bad: a8 46        	movw ax, [sp+70]
     baf: 44 02 00     	cmpw ax, #2
     bb2: 61 e8        	skz
     bb4: ee 0d 01     	br $!0xcc4 <_R_BSP_SoftwareDelay+0x130>
;         (delay <= (0xFFFFFFFFUL / fclk_rate)))    /* Ensure (fclk_rate * delay) will not exceed 32 bits. */
     bb7: a8 10        	movw ax, [sp+16]
     bb9: 14           	movw de, ax
     bba: a8 12        	movw ax, [sp+18]
     bbc: b8 4e        	movw [sp+78], ax
     bbe: c7           	push hl
     bbf: c2           	pop bc
     bc0: ce fb 01     	mulhu
     bc3: 33           	xchw ax, bc
     bc4: b8 4c        	movw [sp+76], ax
     bc6: 33           	xchw ax, bc
     bc7: b8 50        	movw [sp+80], ax
     bc9: a8 44        	movw ax, [sp+68]
     bcb: c5           	push de
     bcc: c2           	pop bc
     bcd: ce fb 01     	mulhu
     bd0: 33           	xchw ax, bc
     bd1: b8 4a        	movw [sp+74], ax
     bd3: a8 50        	movw ax, [sp+80]
     bd5: 33           	xchw ax, bc
     bd6: 03           	addw ax, bc
     bd7: b8 50        	movw [sp+80], ax
     bd9: 15           	movw ax, de
     bda: c7           	push hl
     bdb: c2           	pop bc
     bdc: 35           	xchw ax, de
     bdd: a8 50        	movw ax, [sp+80]
     bdf: 35           	xchw ax, de
     be0: ce fb 01     	mulhu
     be3: 13           	movw ax, bc
     be4: 05           	addw ax, de
     be5: 43           	cmpw ax, bc
     be6: 34 01 00     	movw de, #1
     be9: 61 c8        	skc
     beb: 34 00 00     	movw de, #0
     bee: e7           	onew bc
     bef: a8 4e        	movw ax, [sp+78]
     bf1: 44 00 00     	cmpw ax, #0
     bf4: 61 f8        	sknz
     bf6: f7           	clrw bc
     bf7: 36 01 00     	movw hl, #1
     bfa: a8 44        	movw ax, [sp+68]
     bfc: 44 00 00     	cmpw ax, #0
     bff: 61 f8        	sknz
     c01: 36 00 00     	movw hl, #0
     c04: 13           	movw ax, bc
     c05: 61 5f        	and a, h
     c07: 08           	xch a, x
     c08: 61 5e        	and a, l
     c0a: 36 01 00     	movw hl, #1
     c0d: 08           	xch a, x
     c0e: 12           	movw bc, ax
     c0f: a8 4c        	movw ax, [sp+76]
     c11: 44 00 00     	cmpw ax, #0
     c14: 61 f8        	sknz
     c16: 36 00 00     	movw hl, #0
     c19: 13           	movw ax, bc
     c1a: 61 6f        	or a, h
     c1c: 08           	xch a, x
     c1d: 61 6e        	or a, l
     c1f: 36 01 00     	movw hl, #1
     c22: 08           	xch a, x
     c23: 12           	movw bc, ax
     c24: a8 4a        	movw ax, [sp+74]
     c26: 44 00 00     	cmpw ax, #0
     c29: 61 f8        	sknz
     c2b: 36 00 00     	movw hl, #0
     c2e: 13           	movw ax, bc
     c2f: 61 6f        	or a, h
     c31: 08           	xch a, x
     c32: 61 6e        	or a, l
     c34: 37           	xchw ax, hl
     c35: a8 48        	movw ax, [sp+72]
     c37: 37           	xchw ax, hl
     c38: 08           	xch a, x
     c39: 61 6d        	or a, d
     c3b: 08           	xch a, x
     c3c: 61 6c        	or a, e
     c3e: 08           	xch a, x
;     if ((BSP_DELAY_MICROSECS == units) &&
     c3f: 60           	mov a, x
     c40: 71 8c        	mov1 cy, a.0
     c42: 61 d8        	sknc
     c44: ee 7d 00     	br $!0xcc4 <_R_BSP_SoftwareDelay+0x130>
;         delay_cycles = ((fclk_rate * delay) / g_bsp_delay_time[units]);
     c47: 17           	movw ax, hl
     c48: b8 00        	movw [sp+0], ax
     c4a: a8 44        	movw ax, [sp+68]
     c4c: b8 02        	movw [sp+2], ax
     c4e: a8 12        	movw ax, [sp+18]
     c50: 12           	movw bc, ax
     c51: a8 10        	movw ax, [sp+16]
     c53: fd 3e 0a     	call !0xa3e <___mulsi3>
     c56: 34 40 42     	movw de, #16960
     c59: 36 0f 00     	movw hl, #15
     c5c: ce fb 0b     	divwu
     c5f: 00           	nop
     c60: 14           	movw de, ax
     c61: 13           	movw ax, bc
     c62: b8 16        	movw [sp+22], ax
     c64: 15           	movw ax, de
     c65: b8 14        	movw [sp+20], ax
;         if (delay_cycles > BSP_PRV_OVERHEAD_CYCLES)
     c67: a8 16        	movw ax, [sp+22]
     c69: 14           	movw de, ax
     c6a: a8 14        	movw ax, [sp+20]
     c6c: 12           	movw bc, ax
     c6d: 15           	movw ax, de
     c6e: 44 00 00     	cmpw ax, #0
     c71: 13           	movw ax, bc
     c72: 61 f8        	sknz
     c74: 44 02 00     	cmpw ax, #2
     c77: 61 d3 14     	bnh $0xc8e <_R_BSP_SoftwareDelay+0xfa>
;             delay_cycles -= BSP_PRV_OVERHEAD_CYCLES;
     c7a: a8 14        	movw ax, [sp+20]
     c7c: 14           	movw de, ax
     c7d: a8 16        	movw ax, [sp+22]
     c7f: 12           	movw bc, ax
     c80: 15           	movw ax, de
     c81: 04 fe ff     	addw ax, #65534
     c84: 14           	movw de, ax
     c85: 61 c8        	skc
     c87: b3           	decw bc
     c88: 13           	movw ax, bc
     c89: b8 16        	movw [sp+22], ax
     c8b: 15           	movw ax, de
     c8c: ef 03        	br $0xc91 <_R_BSP_SoftwareDelay+0xfd>
;             delay_cycles = 0U;
     c8e: f6           	clrw ax
     c8f: b8 16        	movw [sp+22], ax
     c91: b8 14        	movw [sp+20], ax
;         loop_cnt = delay_cycles / BSP_CPU_CYCLES_PER_LOOP;
     c93: 34 06 00     	movw de, #6
     c96: 36 00 00     	movw hl, #0
     c99: a8 16        	movw ax, [sp+22]
     c9b: 12           	movw bc, ax
     c9c: a8 14        	movw ax, [sp+20]
     c9e: ce fb 0b     	divwu
     ca1: 00           	nop
     ca2: 14           	movw de, ax
     ca3: 13           	movw ax, bc
     ca4: b8 1a        	movw [sp+26], ax
     ca6: 15           	movw ax, de
     ca7: b8 18        	movw [sp+24], ax
;         if (0U == loop_cnt)
     ca9: a8 1a        	movw ax, [sp+26]
     cab: 14           	movw de, ax
     cac: a8 18        	movw ax, [sp+24]
     cae: 12           	movw bc, ax
     caf: 15           	movw ax, de
     cb0: 44 00 00     	cmpw ax, #0
     cb3: 13           	movw ax, bc
     cb4: 61 f8        	sknz
     cb6: 44 00 00     	cmpw ax, #0
     cb9: 61 e8        	skz
     cbb: ee 60 01     	br $!0xe1e <_R_BSP_SoftwareDelay+0x28a>
     cbe: 32 02 00     	movw bc, #2
     cc1: ee 63 01     	br $!0xe27 <_R_BSP_SoftwareDelay+0x293>
;         delay_cycles_64 = (((uint64_t)fclk_rate * (uint64_t)delay) / g_bsp_delay_time[units]);
     cc4: 17           	movw ax, hl
     cc5: b8 08        	movw [sp+8], ax
     cc7: f6           	clrw ax
     cc8: b8 0e        	movw [sp+14], ax
     cca: b8 0c        	movw [sp+12], ax
     ccc: b8 06        	movw [sp+6], ax
     cce: b8 04        	movw [sp+4], ax
     cd0: a8 12        	movw ax, [sp+18]
     cd2: b8 02        	movw [sp+2], ax
     cd4: a8 10        	movw ax, [sp+16]
     cd6: b8 00        	movw [sp+0], ax
     cd8: a8 44        	movw ax, [sp+68]
     cda: b8 0a        	movw [sp+10], ax
     cdc: ae f8        	movw ax, sp
     cde: 04 2c 00     	addw ax, #44
     ce1: fd 86 09     	call !0x986 <___muldi3>
     ce4: a8 46        	movw ax, [sp+70]
     ce6: 31 3d        	shlw ax, 3
     ce8: 12           	movw bc, ax
     ce9: 79 88 61     	movw ax, 24968[bc]              ; 0xf6188 <__frodata+0xefa2a>
     cec: b8 0e        	movw [sp+14], ax
     cee: 79 86 61     	movw ax, 24966[bc]              ; 0xf6186 <__frodata+0xefa28>
     cf1: b8 0c        	movw [sp+12], ax
     cf3: 79 84 61     	movw ax, 24964[bc]              ; 0xf6184 <__frodata+0xefa26>
     cf6: b8 0a        	movw [sp+10], ax
     cf8: 79 82 61     	movw ax, 24962[bc]              ; 0xf6182 <__frodata+0xefa24>
     cfb: b8 08        	movw [sp+8], ax
     cfd: a8 32        	movw ax, [sp+50]
     cff: b8 06        	movw [sp+6], ax
     d01: a8 30        	movw ax, [sp+48]
     d03: b8 04        	movw [sp+4], ax
     d05: a8 2e        	movw ax, [sp+46]
     d07: b8 02        	movw [sp+2], ax
     d09: a8 2c        	movw ax, [sp+44]
     d0b: b8 00        	movw [sp+0], ax
     d0d: ae f8        	movw ax, sp
     d0f: 04 34 00     	addw ax, #52
     d12: fd 14 07     	call !0x714 <___udivdi3>
;         if (delay_cycles_64 > BSP_PRV_OVERHEAD_CYCLES_64)
     d15: 34 01 00     	movw de, #1
;         delay_cycles_64 = (((uint64_t)fclk_rate * (uint64_t)delay) / g_bsp_delay_time[units]);
     d18: a8 3a        	movw ax, [sp+58]
     d1a: b8 2a        	movw [sp+42], ax
     d1c: a8 38        	movw ax, [sp+56]
     d1e: b8 28        	movw [sp+40], ax
     d20: a8 36        	movw ax, [sp+54]
     d22: b8 26        	movw [sp+38], ax
     d24: a8 34        	movw ax, [sp+52]
     d26: b8 24        	movw [sp+36], ax
;         if (delay_cycles_64 > BSP_PRV_OVERHEAD_CYCLES_64)
     d28: a8 2a        	movw ax, [sp+42]
     d2a: 12           	movw bc, ax
     d2b: a8 28        	movw ax, [sp+40]
     d2d: fd 35 0e     	call !0xe35 <_OUTLINED_FUNCTION_1>
     d30: a8 24        	movw ax, [sp+36]
     d32: 44 03 00     	cmpw ax, #3
     d35: 61 c8        	skc
     d37: 34 00 00     	movw de, #0
     d3a: a8 26        	movw ax, [sp+38]
     d3c: 44 00 00     	cmpw ax, #0
     d3f: 61 e8        	skz
     d41: 34 00 00     	movw de, #0
     d44: 13           	movw ax, bc
     d45: 44 00 00     	cmpw ax, #0
     d48: 61 e8        	skz
     d4a: 34 00 00     	movw de, #0
     d4d: 64           	mov a, e
     d4e: 31 03 32     	bt a.0, $0xd83 <_R_BSP_SoftwareDelay+0x1ef>
;             delay_cycles_64 -= BSP_PRV_OVERHEAD_CYCLES_64;
     d51: a8 24        	movw ax, [sp+36]
     d53: 14           	movw de, ax
     d54: a8 26        	movw ax, [sp+38]
     d56: 16           	movw hl, ax
     d57: a8 28        	movw ax, [sp+40]
     d59: b8 44        	movw [sp+68], ax
     d5b: a8 2a        	movw ax, [sp+42]
     d5d: 12           	movw bc, ax
     d5e: 15           	movw ax, de
     d5f: 04 fe ff     	addw ax, #65534
     d62: 14           	movw de, ax
     d63: 17           	movw ax, hl
     d64: 08           	xch a, x
     d65: 1c ff        	addc a, #255
     d67: 08           	xch a, x
     d68: 1c ff        	addc a, #255
     d6a: 16           	movw hl, ax
     d6b: a8 44        	movw ax, [sp+68]
     d6d: 08           	xch a, x
     d6e: 1c ff        	addc a, #255
     d70: 08           	xch a, x
     d71: 1c ff        	addc a, #255
     d73: 61 c8        	skc
     d75: b3           	decw bc
     d76: b8 28        	movw [sp+40], ax
     d78: 13           	movw ax, bc
     d79: b8 2a        	movw [sp+42], ax
     d7b: 15           	movw ax, de
     d7c: b8 24        	movw [sp+36], ax
     d7e: 17           	movw ax, hl
     d7f: b8 26        	movw [sp+38], ax
     d81: ef 05        	br $0xd88 <_R_BSP_SoftwareDelay+0x1f4>
;             delay_cycles = 0U;
     d83: f6           	clrw ax
     d84: b8 16        	movw [sp+22], ax
     d86: b8 14        	movw [sp+20], ax
;         loop_cnt_64 = delay_cycles_64 / BSP_CPU_CYCLES_PER_LOOP;
     d88: f6           	clrw ax
     d89: b8 0e        	movw [sp+14], ax
     d8b: b8 0c        	movw [sp+12], ax
     d8d: b8 0a        	movw [sp+10], ax
     d8f: 30 06 00     	movw ax, #6
     d92: b8 08        	movw [sp+8], ax
     d94: a8 2a        	movw ax, [sp+42]
     d96: b8 06        	movw [sp+6], ax
     d98: a8 28        	movw ax, [sp+40]
     d9a: b8 04        	movw [sp+4], ax
     d9c: a8 26        	movw ax, [sp+38]
     d9e: b8 02        	movw [sp+2], ax
     da0: a8 24        	movw ax, [sp+36]
     da2: b8 00        	movw [sp+0], ax
     da4: ae f8        	movw ax, sp
     da6: 04 3c 00     	addw ax, #60
     da9: fd 14 07     	call !0x714 <___udivdi3>
     dac: a8 3e        	movw ax, [sp+62]
     dae: b8 1e        	movw [sp+30], ax
     db0: a8 40        	movw ax, [sp+64]
     db2: b8 20        	movw [sp+32], ax
     db4: a8 42        	movw ax, [sp+66]
     db6: b8 22        	movw [sp+34], ax
     db8: a8 3c        	movw ax, [sp+60]
     dba: b8 1c        	movw [sp+28], ax
;         if ((loop_cnt_64 > 0xFFFFFFFFUL) || (0U == loop_cnt_64))
     dbc: a8 22        	movw ax, [sp+34]
     dbe: 12           	movw bc, ax
     dbf: 44 00 00     	cmpw ax, #0
     dc2: e6           	onew ax
     dc3: 61 f8        	sknz
     dc5: f6           	clrw ax
     dc6: b8 44        	movw [sp+68], ax
;         if ((loop_cnt_64 > 0xFFFFFFFFUL) || (0U == loop_cnt_64))
     dc8: 36 01 00     	movw hl, #1
     dcb: a8 20        	movw ax, [sp+32]
     dcd: 14           	movw de, ax
     dce: 44 00 00     	cmpw ax, #0
     dd1: 61 f8        	sknz
     dd3: 36 00 00     	movw hl, #0
     dd6: 13           	movw ax, bc
     dd7: 44 00 00     	cmpw ax, #0
     dda: dd 03        	bz $0xddf <_R_BSP_SoftwareDelay+0x24b>
     ddc: a8 44        	movw ax, [sp+68]
     dde: 16           	movw hl, ax
;         if ((loop_cnt_64 > 0xFFFFFFFFUL) || (0U == loop_cnt_64))
     ddf: 15           	movw ax, de
     de0: 34 00 00     	movw de, #0
     de3: fd 2b 0e     	call !0xe2b <_OUTLINED_FUNCTION_0>
     de6: dd 02        	bz $0xdea <_R_BSP_SoftwareDelay+0x256>
     de8: c7           	push hl
     de9: c4           	pop de
     dea: 32 02 00     	movw bc, #2
;         if ((loop_cnt_64 > 0xFFFFFFFFUL) || (0U == loop_cnt_64))
     ded: a8 1c        	movw ax, [sp+28]
     def: a8 1e        	movw ax, [sp+30]
     df1: 64           	mov a, e
     df2: 31 03 32     	bt a.0, $0xe27 <_R_BSP_SoftwareDelay+0x293>
     df5: a8 22        	movw ax, [sp+34]
     df7: 12           	movw bc, ax
     df8: a8 1e        	movw ax, [sp+30]
     dfa: fd 35 0e     	call !0xe35 <_OUTLINED_FUNCTION_1>
     dfd: a8 20        	movw ax, [sp+32]
     dff: 14           	movw de, ax
     e00: a8 1c        	movw ax, [sp+28]
     e02: 61 6d        	or a, d
     e04: 08           	xch a, x
     e05: 61 6c        	or a, e
     e07: 08           	xch a, x
     e08: fd 2b 0e     	call !0xe2b <_OUTLINED_FUNCTION_0>
     e0b: 61 f8        	sknz
     e0d: ee ae fe     	br $!0xcbe <_R_BSP_SoftwareDelay+0x12a>
;         loop_cnt = (uint32_t)loop_cnt_64;
     e10: a8 22        	movw ax, [sp+34]
     e12: a8 20        	movw ax, [sp+32]
     e14: a8 1c        	movw ax, [sp+28]
     e16: 12           	movw bc, ax
     e17: a8 1e        	movw ax, [sp+30]
     e19: b8 1a        	movw [sp+26], ax
     e1b: 13           	movw ax, bc
     e1c: b8 18        	movw [sp+24], ax
;     delay_wait (loop_cnt);
     e1e: a8 1a        	movw ax, [sp+26]
     e20: 12           	movw bc, ax
     e21: a8 18        	movw ax, [sp+24]
     e23: fd 40 05     	call !0x540 <loop>
     e26: f7           	clrw bc
; } /* End of function R_BSP_SoftwareDelay() */
     e27: 13           	movw ax, bc
     e28: 10 52        	addw sp, #82
     e2a: d7           	ret

00000e2b <_OUTLINED_FUNCTION_0>:
     e2b: 61 6b        	or a, b
     e2d: 08           	xch a, x
     e2e: 61 6a        	or a, c
     e30: 08           	xch a, x
     e31: 44 00 00     	cmpw ax, #0
     e34: d7           	ret

00000e35 <_OUTLINED_FUNCTION_1>:
     e35: 61 6b        	or a, b
     e37: 08           	xch a, x
     e38: 61 6a        	or a, c
     e3a: 08           	xch a, x
     e3b: 12           	movw bc, ax
     e3c: d7           	ret

00000e3d <_hdwinit>:
;     output_ports_configure();
     e3d: fd 4a 0e     	call !0xe4a <_output_ports_configure>
;     interrupts_configure();
     e40: fd 4c 0e     	call !0xe4c <_interrupts_configure>
;     peripheral_modules_enable();
     e43: fd 4e 0e     	call !0xe4e <_peripheral_modules_enable>
;     IAWCTL = (BSP_CFG_INVALID_MEMORY_ACCESS_DETECTION_ENABLE << 7U) |
     e46: f5 78 00     	clrb !0xf0078                   ; 0xf0078 <__frodata+0xe991a>
; } /* End of function hdwinit() */
     e49: d7           	ret

00000e4a <_output_ports_configure>:
;     BSP_NOP();
     e4a: 00           	nop
; } /* End of function output_ports_configure() */
     e4b: d7           	ret

00000e4c <_interrupts_configure>:
;     BSP_NOP();
     e4c: 00           	nop
; } /* End of function interrupts_configure() */
     e4d: d7           	ret

00000e4e <_peripheral_modules_enable>:
;     R_Systeminit();
     e4e: ed ac 0e     	br !0xeac <_R_Systeminit>

00000e51 <_bsp_init_system>:
;     mcu_clock_setup();
     e51: ed 2f 0b     	br !0xb2f <_mcu_clock_setup>

00000e54 <_bsp_init_hardware>:
;     hdwinit();
     e54: ed 3d 0e     	br !0xe3d <_hdwinit>

00000e57 <_INT_WDTI>:
; }
     e57: 61 fc        	reti

00000e59 <_INT_LVI>:
; }
     e59: 61 fc        	reti

00000e5b <_INT_P0>:
; }
     e5b: 61 fc        	reti

00000e5d <_INT_P1>:
; }
     e5d: 61 fc        	reti

00000e5f <_INT_P2>:
; }
     e5f: 61 fc        	reti

00000e61 <_INT_P3>:
; }
     e61: 61 fc        	reti

00000e63 <_INT_P4>:
; }
     e63: 61 fc        	reti

00000e65 <_INT_P5>:
; }
     e65: 61 fc        	reti

00000e67 <_INT_ST2>:
; }
     e67: 61 fc        	reti

00000e69 <_INT_SR2>:
; }
     e69: 61 fc        	reti

00000e6b <_INT_SRE2>:
; }
     e6b: 61 fc        	reti

00000e6d <_INT_SMSE>:
; }
     e6d: 61 fc        	reti

00000e6f <_INT_ST0>:
; }
     e6f: 61 fc        	reti

00000e71 <_INT_TM00>:
; }
     e71: 61 fc        	reti

00000e73 <_INT_TM01H>:
; }
     e73: 61 fc        	reti

00000e75 <_INT_IICA0>:
; }
     e75: 61 fc        	reti

00000e77 <_INT_SR0>:
; }
     e77: 61 fc        	reti

00000e79 <_INT_TM01>:
; }
     e79: 61 fc        	reti

00000e7b <_INT_TM02>:
; }
     e7b: 61 fc        	reti

00000e7d <_INT_TM03>:
; }
     e7d: 61 fc        	reti

00000e7f <_INT_AD>:
; }
     e7f: 61 fc        	reti

00000e81 <_INT_ITL>:
; }
     e81: 61 fc        	reti

00000e83 <_INT_KR>:
; }
     e83: 61 fc        	reti

00000e85 <_INT_TM04>:
; }
     e85: 61 fc        	reti

00000e87 <_INT_TM05>:
; }
     e87: 61 fc        	reti

00000e89 <_INT_TM06>:
; }
     e89: 61 fc        	reti

00000e8b <_INT_TM07>:
; }
     e8b: 61 fc        	reti

00000e8d <_INT_P6>:
; }
     e8d: 61 fc        	reti

00000e8f <_INT_P8>:
; }
     e8f: 61 fc        	reti

00000e91 <_INT_P9>:
; }
     e91: 61 fc        	reti

00000e93 <_INT_FL>:
; }
     e93: 61 fc        	reti

00000e95 <_INT_URE0>:
; }
     e95: 61 fc        	reti

00000e97 <_INT_CTSUWR>:
; }
     e97: 61 fc        	reti

00000e99 <_INT_CTSURD>:
; }
     e99: 61 fc        	reti

00000e9b <_INT_CTSUFN>:
; }
     e9b: 61 fc        	reti

00000e9d <_INT_UT0>:
; }
     e9d: 61 fc        	reti

00000e9f <_INT_UR0>:
; }
     e9f: 61 fc        	reti

00000ea1 <_INT_BRK_I>:
; }
     ea1: 61 fc        	reti

00000ea3 <_INT_DUMMY>:
; }
     ea3: 61 fc        	reti

00000ea5 <_R_SAU0_Create>:
;     R_Config_UART1_Create();
     ea5: 71 20 f0 00  	set1 !0xf00f0.2
     ea9: ed c3 0e     	br !0xec3 <_R_Config_UART1_Create>

00000eac <_R_Systeminit>:
;     PRR0 = 0x25U;    /* reset ADC, TAU and SAU module */
     eac: cf f1 00 25  	mov !0xf00f1, #37               ; 0xf00f1 <__frodata+0xe9993>
;     PRR1 = 0x51U;    /* reset SMS, ITL, CTSU module */
     eb0: cf fb 00 51  	mov !0xf00fb, #81               ; 0xf00fb <__frodata+0xe999d>
;     PRR0 = 0x00U;    /* release IICA, ADC, TAU and SAU module */
     eb4: f5 f1 00     	clrb !0xf00f1                   ; 0xf00f1 <__frodata+0xe9993>
;     PRR1 = 0x00U;    /* release SMS, ITL, CTSU module */
     eb7: f5 fb 00     	clrb !0xf00fb                   ; 0xf00fb <__frodata+0xe999d>
;     R_Config_PORT_Create();
     eba: fd a8 14     	call !0x14a8 <_R_Config_PORT_Create>
;     R_SAU0_Create();
     ebd: fd a5 0e     	call !0xea5 <_R_SAU0_Create>
;     R_Config_RTC_Create();
     ec0: ed bd 10     	br !0x10bd <_R_Config_RTC_Create>

00000ec3 <_R_Config_UART1_Create>:
;     temp &= _F0_SAU_CK00_CLEAR;
     ec3: 51 f0        	mov a, #240
     ec5: 5f 26 01     	and a, !0xf0126                 ; 0xf0126 <__frodata+0xe99c8>
;     temp |= _03_SAU_CK00_FCLK_3;
     ec8: 6c 03        	or a, #3
;     SPS0L = temp;
     eca: 9f 26 01     	mov !0xf0126, a                 ; 0xf0126 <__frodata+0xe99c8>
     ecd: fd bc 0f     	call !0xfbc <_OUTLINED_FUNCTION_2>
;     SMR02 = _0020_SAU_SMRMN_INITIALVALUE | _0000_SAU_CLOCK_SELECT_CK00 | _0000_SAU_TRIGGER_SOFTWARE | 
     ed0: 71 0a e6     	set1 0xfffe6.0
     ed3: 71 0b e2     	clr1 0xfffe2.0
     ed6: 71 1a e6     	set1 0xfffe6.1
     ed9: 71 1b e2     	clr1 0xfffe2.1
     edc: 71 2a e6     	set1 0xfffe6.2
     edf: 71 2b e2     	clr1 0xfffe2.2
     ee2: 71 0a ee     	set1 0xfffee.0
     ee5: 71 0a ea     	set1 0xfffea.0
     ee8: 71 1a ee     	set1 0xfffee.1
     eeb: 71 1a ea     	set1 0xfffea.1
     eee: 71 2a ee     	set1 0xfffee.2
     ef1: 71 2a ea     	set1 0xfffea.2
     ef4: 30 22 00     	movw ax, #34
     ef7: bf 14 01     	movw !0xf0114, ax               ; 0xf0114 <__frodata+0xe99b6>
;     SCR02 = _0004_SAU_SCRMN_INITIALVALUE | _8000_SAU_TRANSMISSION | _0000_SAU_INTSRE_MASK | _0000_SAU_PARITY_NONE | 
     efa: 30 97 80     	movw ax, #32919
     efd: bf 1c 01     	movw !0xf011c, ax               ; 0xf011c <__frodata+0xe99be>
;     SDR02 = _6600_SAU0_CH2_TRANSMIT_DIVISOR;
     f00: cb 44 00 66  	movw 0xfff44, #26112
;     SIR03L = _04_SAU_SIRMN_FECTMN | _02_SAU_SIRMN_PECTMN | _01_SAU_SIRMN_OVCTMN;    /* clear error flag */
     f04: 71 20 70 00  	set1 !0xf0070.2
     f08: cf 0e 01 07  	mov !0xf010e, #7                ; 0xf010e <__frodata+0xe99b0>
;     SMR03 = _0020_SAU_SMRMN_INITIALVALUE | _0000_SAU_CLOCK_SELECT_CK00 | _0100_SAU_TRIGGER_RXD | _0000_SAU_EDGE_FALL | 
     f0c: 30 22 01     	movw ax, #290
     f0f: bf 16 01     	movw !0xf0116, ax               ; 0xf0116 <__frodata+0xe99b8>
;     SCR03 = _0004_SAU_SCRMN_INITIALVALUE | _4000_SAU_RECEPTION | _0400_SAU_INTSRE_ENABLE | _0000_SAU_PARITY_NONE | 
     f12: 30 97 44     	movw ax, #17559
     f15: bf 1e 01     	movw !0xf011e, ax               ; 0xf011e <__frodata+0xe99c0>
;     SDR03 = _6600_SAU0_CH3_RECEIVE_DIVISOR;
     f18: cb 46 00 66  	movw 0xfff46, #26112
     f1c: fd a7 0f     	call !0xfa7 <_OUTLINED_FUNCTION_0>
;     SOL0L |= _00_SAU_CHANNEL2_NORMAL;    /* output level normal */
     f1f: 8f 34 01     	mov a, !0xf0134                 ; 0xf0134 <__frodata+0xe99d6>
     f22: 9f 34 01     	mov !0xf0134, a                 ; 0xf0134 <__frodata+0xe99d6>
;     R_Config_UART1_Create_UserInit();
     f25: 71 20 2a 01  	set1 !0xf012a.2
     f29: 71 08 60 00  	clr1 !0xf0060.0
     f2d: 71 08 60 02  	clr1 !0xf0260.0
     f31: 71 0a 00     	set1 0xfff00.0
     f34: 71 0b 20     	clr1 0xfff20.0
     f37: 71 18 60 00  	clr1 !0xf0060.1
     f3b: 71 18 60 02  	clr1 !0xf0260.1
     f3f: 71 1a 20     	set1 0xfff20.1
     f42: ed c5 0f     	br !0xfc5 <_R_Config_UART1_Create_UserInit>

00000f45 <_R_Config_UART1_Start>:
; {
     f45: fd a7 0f     	call !0xfa7 <_OUTLINED_FUNCTION_0>
; }
     f48: 71 20 2a 01  	set1 !0xf012a.2
     f4c: 71 20 22 01  	set1 !0xf0122.2
     f50: 71 30 22 01  	set1 !0xf0122.3
     f54: fd b2 0f     	call !0xfb2 <_OUTLINED_FUNCTION_1>
     f57: 71 0b e6     	clr1 0xfffe6.0
     f5a: 71 1b e6     	clr1 0xfffe6.1
     f5d: 71 2b e6     	clr1 0xfffe6.2
     f60: d7           	ret

00000f61 <_R_Config_UART1_Send>:
; {
     f61: c3           	push bc
     f62: c4           	pop de
     f63: 12           	movw bc, ax
;     if (tx_num < 1U)
     f64: 15           	movw ax, de
     f65: 44 00 00     	cmpw ax, #0
     f68: df 04        	bnz $0xf6e <_R_Config_UART1_Send+0xd>
     f6a: 30 81 00     	movw ax, #129
;     return (status);
     f6d: d7           	ret
;         g_uart1_tx_count = tx_num;
     f6e: 15           	movw ax, de
     f6f: bf 68 f3     	movw !0xff368, ax               ; 0xff368 <_g_uart1_tx_count>
;         gp_uart1_tx_address = tx_buf;
     f72: 13           	movw ax, bc
     f73: bf 66 f3     	movw !0xff366, ax               ; 0xff366 <_gp_uart1_tx_address>
;         TXD1 = *gp_uart1_tx_address;
     f76: 71 0a e6     	set1 0xfffe6.0
     f79: fb 66 f3     	movw hl, !0xff366               ; 0xff366 <_gp_uart1_tx_address>
     f7c: 8b           	mov a, [hl]
     f7d: 9e 44        	mov 0xfff44, a
;         gp_uart1_tx_address++;
     f7f: a2 66 f3     	incw !0xff366                   ; 0xff366 <_gp_uart1_tx_address>
;         g_uart1_tx_count--;
     f82: b2 68 f3     	decw !0xff368                   ; 0xff368 <_g_uart1_tx_count>
     f85: 71 0b e6     	clr1 0xfffe6.0
     f88: f6           	clrw ax
;     return (status);
     f89: d7           	ret

00000f8a <_R_Config_UART1_Receive>:
; {
     f8a: c3           	push bc
     f8b: c4           	pop de
     f8c: 12           	movw bc, ax
;     if (rx_num < 1U)
     f8d: 15           	movw ax, de
     f8e: 44 00 00     	cmpw ax, #0
     f91: df 05        	bnz $0xf98 <_R_Config_UART1_Receive+0xe>
     f93: 32 81 00     	movw bc, #129
     f96: ef 0d        	br $0xfa5 <_R_Config_UART1_Receive+0x1b>
;         g_uart1_rx_length = rx_num;
     f98: 15           	movw ax, de
     f99: bf 6c f3     	movw !0xff36c, ax               ; 0xff36c <_g_uart1_rx_length>
;         gp_uart1_rx_address = rx_buf;
     f9c: 13           	movw ax, bc
     f9d: bf 6e f3     	movw !0xff36e, ax               ; 0xff36e <_gp_uart1_rx_address>
     fa0: f7           	clrw bc
;         g_uart1_rx_count = 0U;
     fa1: f6           	clrw ax
     fa2: bf 6a f3     	movw !0xff36a, ax               ; 0xff36a <_g_uart1_rx_count>
;     return (status);
     fa5: 13           	movw ax, bc
     fa6: d7           	ret

00000fa7 <_OUTLINED_FUNCTION_0>:
     fa7: af 28 01     	movw ax, !0xf0128               ; 0xf0128 <__frodata+0xe99ca>
     faa: 08           	xch a, x
     fab: 6c 04        	or a, #4
     fad: 08           	xch a, x
     fae: bf 28 01     	movw !0xf0128, ax               ; 0xf0128 <__frodata+0xe99ca>
     fb1: d7           	ret

00000fb2 <_OUTLINED_FUNCTION_1>:
     fb2: 71 0b e2     	clr1 0xfffe2.0
     fb5: 71 1b e2     	clr1 0xfffe2.1
     fb8: 71 2b e2     	clr1 0xfffe2.2
     fbb: d7           	ret

00000fbc <_OUTLINED_FUNCTION_2>:
     fbc: 71 20 24 01  	set1 !0xf0124.2
     fc0: 71 30 24 01  	set1 !0xf0124.3
     fc4: d7           	ret

00000fc5 <_R_Config_UART1_Create_UserInit>:
; {
     fc5: fd b5 10     	call !0x10b5 <_OUTLINED_FUNCTION_1>
; 	R_Config_UART1_Receive(&UART1_rx_char, 1);
     fc8: fd 8a 0f     	call !0xf8a <_R_Config_UART1_Receive>
     fcb: ed a1 10     	br !0x10a1 <_OUTLINED_FUNCTION_0>

00000fce <_r_Config_UART1_interrupt_send>:
; {
     fce: c1           	push ax
     fcf: c7           	push hl
;     if (g_uart1_tx_count > 0U)
     fd0: af 68 f3     	movw ax, !0xff368               ; 0xff368 <_g_uart1_tx_count>
     fd3: 44 00 00     	cmpw ax, #0
     fd6: dd 0c        	bz $0xfe4 <_r_Config_UART1_interrupt_send+0x16>
;         TXD1 = *gp_uart1_tx_address;
     fd8: fb 66 f3     	movw hl, !0xff366               ; 0xff366 <_gp_uart1_tx_address>
     fdb: 8b           	mov a, [hl]
     fdc: 9e 44        	mov 0xfff44, a
;         gp_uart1_tx_address++;
     fde: a2 66 f3     	incw !0xff366                   ; 0xff366 <_gp_uart1_tx_address>
;         g_uart1_tx_count--;
     fe1: b2 68 f3     	decw !0xff368                   ; 0xff368 <_g_uart1_tx_count>
; }
     fe4: c6           	pop hl
     fe5: c0           	pop ax
     fe6: 61 fc        	reti

00000fe8 <_r_Config_UART1_interrupt_receive>:
; {
     fe8: c1           	push ax
     fe9: c3           	push bc
     fea: c5           	push de
     feb: c7           	push hl
     fec: 8e fc        	mov a, cs
     fee: 70           	mov x, a
     fef: 8e fd        	mov a, es
     ff1: c1           	push ax
;     rx_data = RXD1;
     ff2: 8e 46        	mov a, 0xfff46
;     if (g_uart1_rx_length > g_uart1_rx_count)
     ff4: eb 6a f3     	movw de, !0xff36a               ; 0xff36a <_g_uart1_rx_count>
;     rx_data = RXD1;
     ff7: 72           	mov c, a
;     if (g_uart1_rx_length > g_uart1_rx_count)
     ff8: af 6c f3     	movw ax, !0xff36c               ; 0xff36c <_g_uart1_rx_length>
     ffb: 45           	cmpw ax, de
     ffc: 61 d3 17     	bnh $0x1016 <_r_Config_UART1_interrupt_receive+0x2e>
;         *gp_uart1_rx_address = rx_data;
     fff: fb 6e f3     	movw hl, !0xff36e               ; 0xff36e <_gp_uart1_rx_address>
    1002: 62           	mov a, c
    1003: 9b           	mov [hl], a
;         g_uart1_rx_count++;
    1004: a2 6a f3     	incw !0xff36a                   ; 0xff36a <_g_uart1_rx_count>
;         gp_uart1_rx_address++;
    1007: a2 6e f3     	incw !0xff36e                   ; 0xff36e <_gp_uart1_rx_address>
;         if (g_uart1_rx_length == g_uart1_rx_count)
    100a: af 6c f3     	movw ax, !0xff36c               ; 0xff36c <_g_uart1_rx_length>
    100d: db 6a f3     	movw bc, !0xff36a               ; 0xff36a <_g_uart1_rx_count>
    1010: 43           	cmpw ax, bc
    1011: 61 f8        	sknz
;             r_Config_UART1_callback_receiveend();
    1013: fd 22 10     	call !0x1022 <_r_Config_UART1_callback_receiveend>
; }
    1016: c0           	pop ax
    1017: 9e fd        	mov es, a
    1019: 60           	mov a, x
    101a: 9e fc        	mov cs, a
    101c: c6           	pop hl
    101d: c4           	pop de
    101e: c2           	pop bc
    101f: c0           	pop ax
    1020: 61 fc        	reti

00001022 <_r_Config_UART1_callback_receiveend>:
; 	if (UART1_rx_buf_cnt == (UART1_RX_BUF_LEN - 2)){
    1022: 8f f1 f3     	mov a, !0xff3f1                 ; 0xff3f1 <_UART1_rx_buf_cnt>
    1025: 74           	mov e, a
    1026: 64           	mov a, e
    1027: 4c 7e        	cmp a, #126
    1029: df 0e        	bnz $0x1039 <_r_Config_UART1_callback_receiveend+0x17>
; 		UART1_rx_buf[UART1_rx_buf_cnt + 1] = '\0';
    102b: f5 f0 f3     	clrb !0xff3f0                   ; 0xff3f0 <_UART1_rx_buf+0x7f>
; 		UART1_rx_buf_is_full = true;
    102e: e5 f3 f3     	oneb !0xff3f3                   ; 0xff3f3 <_UART1_rx_buf_is_full>
; 		UART1_rx_buf[UART1_rx_buf_cnt] = UART1_rx_char;
    1031: 8f 70 f3     	mov a, !0xff370                 ; 0xff370 <_UART1_rx_char>
    1034: 9f ef f3     	mov !0xff3ef, a                 ; 0xff3ef <_UART1_rx_buf+0x7e>
    1037: ef 32        	br $0x106b <_r_Config_UART1_callback_receiveend+0x49>
; 		UART1_rx_buf[UART1_rx_buf_cnt] = UART1_rx_char;
    1039: 8f 70 f3     	mov a, !0xff370                 ; 0xff370 <_UART1_rx_char>
    103c: c1           	push ax
    103d: 64           	mov a, e
    103e: 73           	mov b, a
    103f: c0           	pop ax
; 		UART1_rx_buf_cnt++;
    1040: 84           	inc e
; 		UART1_rx_buf[UART1_rx_buf_cnt] = UART1_rx_char;
    1041: 18 71 f3     	mov 62321[b], a                 ; 0xff371 <_UART1_rx_buf>
; 		UART1_rx_buf_is_full = false;
    1044: f5 f3 f3     	clrb !0xff3f3                   ; 0xff3f3 <_UART1_rx_buf_is_full>
; 		UART1_rx_buf_cnt++;
    1047: 64           	mov a, e
; 		if (UART1_rx_buf_cnt > 2 && UART1_rx_buf[UART1_rx_buf_cnt - 2] == '\r' && UART1_rx_buf[UART1_rx_buf_cnt - 1] == '\n') {
    1048: 4c 03        	cmp a, #3
; 		UART1_rx_buf_cnt++;
    104a: 9f f1 f3     	mov !0xff3f1, a                 ; 0xff3f1 <_UART1_rx_buf_cnt>
; 		if (UART1_rx_buf_cnt > 2 && UART1_rx_buf[UART1_rx_buf_cnt - 2] == '\r' && UART1_rx_buf[UART1_rx_buf_cnt - 1] == '\n') {
    104d: dc 1f        	bc $0x106e <_r_Config_UART1_callback_receiveend+0x4c>
    104f: f1           	clrb a
    1050: 75           	mov d, a
    1051: c1           	push ax
    1052: 64           	mov a, e
    1053: 73           	mov b, a
    1054: c0           	pop ax
    1055: 09 6f f3     	mov a, 62319[b]                 ; 0xff36f <_gp_uart1_rx_address+0x1>
    1058: 4c 0d        	cmp a, #13
    105a: df 12        	bnz $0x106e <_r_Config_UART1_callback_receiveend+0x4c>
    105c: c5           	push de
    105d: c2           	pop bc
    105e: 49 70 f3     	mov a, 62320[bc]                ; 0xff370 <_UART1_rx_char>
    1061: 4c 0a        	cmp a, #10
    1063: df 09        	bnz $0x106e <_r_Config_UART1_callback_receiveend+0x4c>
; 			UART1_rx_buf[UART1_rx_buf_cnt] = '\0';	// 末端にNULL文字を追加し、受信完了フラグを立てる
    1065: c5           	push de
    1066: c2           	pop bc
    1067: 39 71 f3 00  	mov 62321[bc], #0               ; 0xff371 <_UART1_rx_buf>
    106b: e5 f2 f3     	oneb !0xff3f2                   ; 0xff3f2 <_UART1_rx_line_rcv_end>
    106e: fd b5 10     	call !0x10b5 <_OUTLINED_FUNCTION_1>
; 	R_Config_UART1_Receive(&UART1_rx_char, 1);
    1071: ed 8a 0f     	br !0xf8a <_R_Config_UART1_Receive>

00001074 <_r_Config_UART1_interrupt_error>:
; {
    1074: c1           	push ax
    1075: c7           	push hl
;     *gp_uart1_rx_address = RXD1;
    1076: 8e 46        	mov a, 0xfff46
    1078: fb 6e f3     	movw hl, !0xff36e               ; 0xff36e <_gp_uart1_rx_address>
    107b: 9b           	mov [hl], a
;     err_type = (uint8_t)(SSR03 & 0x0007U);
    107c: af 06 01     	movw ax, !0xf0106               ; 0xf0106 <__frodata+0xe99a8>
    107f: 60           	mov a, x
    1080: 5c 07        	and a, #7
;     SIR03L = err_type;
    1082: 9f 0e 01     	mov !0xf010e, a                 ; 0xf010e <__frodata+0xe99b0>
; }
    1085: c6           	pop hl
    1086: c0           	pop ax
    1087: 61 fc        	reti

00001089 <_isUART1ReceivedLine>:
; 	return UART1_rx_line_rcv_end;
    1089: d5 f2 f3     	cmp0 !0xff3f2                   ; 0xff3f2 <_UART1_rx_line_rcv_end>
    108c: e6           	onew ax
    108d: 61 f8        	sknz
    108f: f6           	clrw ax
    1090: 60           	mov a, x
    1091: d7           	ret

00001092 <_UART1_ClearReceiveBuffer>:
    1092: ed a1 10     	br !0x10a1 <_OUTLINED_FUNCTION_0>

00001095 <_isUART1SendFinished>:
; 	return (g_uart1_tx_count > 0U) ? false : true;
    1095: af 68 f3     	movw ax, !0xff368               ; 0xff368 <_g_uart1_tx_count>
    1098: 44 00 00     	cmpw ax, #0
    109b: e6           	onew ax
    109c: 61 e8        	skz
    109e: f6           	clrw ax
    109f: 60           	mov a, x
    10a0: d7           	ret

000010a1 <_OUTLINED_FUNCTION_0>:
    10a1: 34 80 00     	movw de, #128
    10a4: f7           	clrw bc
    10a5: 30 71 f3     	movw ax, #62321
    10a8: fd 08 06     	call !0x608 <_memset>
    10ab: f5 f1 f3     	clrb !0xff3f1                   ; 0xff3f1 <_UART1_rx_buf_cnt>
    10ae: f5 f2 f3     	clrb !0xff3f2                   ; 0xff3f2 <_UART1_rx_line_rcv_end>
    10b1: f5 f3 f3     	clrb !0xff3f3                   ; 0xff3f3 <_UART1_rx_buf_is_full>
    10b4: d7           	ret

000010b5 <_OUTLINED_FUNCTION_1>:
    10b5: f5 70 f3     	clrb !0xff370                   ; 0xff370 <_UART1_rx_char>
    10b8: e7           	onew bc
    10b9: 30 70 f3     	movw ax, #62320
    10bc: d7           	ret

000010bd <_R_Config_RTC_Create>:
;     RTCC0 = _10_RTC_CLK_128HZ;
    10bd: 71 70 f0 00  	set1 !0xf00f0.7
    10c1: fd 2b 13     	call !0x132b <_OUTLINED_FUNCTION_5>
    10c4: 71 1a ef     	set1 0xfffef.1
    10c7: 71 1a eb     	set1 0xfffeb.1
    10ca: cf 2b 02 10  	mov !0xf022b, #16               ; 0xf022b <__frodata+0xe9acd>
;     RTCC0 |= (_20_RTC_RTC1HZ_ENABLE | _08_RTC_24HOUR_MODE | _02_RTC_INTRTC_CLOCK_1SEC);
    10ce: 51 2a        	mov a, #42
    10d0: fd 36 13     	call !0x1336 <_OUTLINED_FUNCTION_6>
;     SEC = _00_RTC_COUNTER_SEC;
    10d3: f5 20 02     	clrb !0xf0220                   ; 0xf0220 <__frodata+0xe9ac2>
;     MIN = _00_RTC_COUNTER_MIN;
    10d6: f5 21 02     	clrb !0xf0221                   ; 0xf0221 <__frodata+0xe9ac3>
;     HOUR = _12_RTC_COUNTER_HOUR;
    10d9: cf 22 02 12  	mov !0xf0222, #18               ; 0xf0222 <__frodata+0xe9ac4>
;     WEEK = _06_RTC_COUNTER_WEEK;
    10dd: cf 23 02 06  	mov !0xf0223, #6                ; 0xf0223 <__frodata+0xe9ac5>
;     DAY = _01_RTC_COUNTER_DAY;
    10e1: e5 24 02     	oneb !0xf0224                   ; 0xf0224 <__frodata+0xe9ac6>
;     MONTH = _01_RTC_COUNTER_MONTH;
    10e4: e5 25 02     	oneb !0xf0225                   ; 0xf0225 <__frodata+0xe9ac7>
;     YEAR = _00_RTC_COUNTER_YEAR;
    10e7: f5 26 02     	clrb !0xf0226                   ; 0xf0226 <__frodata+0xe9ac8>
;     R_Config_RTC_Create_UserInit();
    10ea: 71 08 63 02  	clr1 !0xf0263.0
    10ee: 71 0b 03     	clr1 0xfff03.0
    10f1: 71 0b 23     	clr1 0xfff23.0
    10f4: ed 3d 13     	br !0x133d <_R_Config_RTC_Create_UserInit>

000010f7 <_R_Config_RTC_Start>:
; }
    10f7: 71 1b e3     	clr1 0xfffe3.1
    10fa: 71 1b e7     	clr1 0xfffe7.1
    10fd: 71 70 2b 02  	set1 !0xf022b.7
    1101: d7           	ret

00001102 <_R_Config_RTC_Set_HourSystem>:
; {
    1102: c1           	push ax
;     switch (hour_system)
    1103: 44 01 00     	cmpw ax, #1
    1106: dd 47        	bz $0x114f <_R_Config_RTC_Set_HourSystem+0x4d>
    1108: 32 81 00     	movw bc, #129
;     switch (hour_system)
    110b: 44 00 00     	cmpw ax, #0
    110e: 61 e8        	skz
    1110: ee 78 00     	br $!0x118b <_R_Config_RTC_Set_HourSystem+0x89>
    1113: f7           	clrw bc
;             if(1U == RTCC0_bit.no3)    /* 24-hour system */
    1114: 8f 2b 02     	mov a, !0xf022b                 ; 0xf022b <__frodata+0xe9acd>
    1117: 71 bc        	mov1 cy, a.3
    1119: 61 c8        	skc
    111b: ee 6d 00     	br $!0x118b <_R_Config_RTC_Set_HourSystem+0x89>
;                 for (w_count = 0U; w_count < RTC_WAITTIME_2CYCLE; w_count++ )
    111e: 71 00 2c 02  	set1 !0xf022c.0
    1122: fd f6 12     	call !0x12f6 <_OUTLINED_FUNCTION_1>
    1125: 61 c3 05     	bh $0x112d <_R_Config_RTC_Set_HourSystem+0x2b>
    1128: fd ea 12     	call !0x12ea <_OUTLINED_FUNCTION_0>
;                 for (w_count = 0U; w_count < RTC_WAITTIME_2CYCLE; w_count++ )
    112b: dc fb        	bc $0x1128 <_R_Config_RTC_Set_HourSystem+0x26>
    112d: 32 03 00     	movw bc, #3
;                 if (0U == RWST)
    1130: 8f 2c 02     	mov a, !0xf022c                 ; 0xf022c <__frodata+0xe9ace>
    1133: 71 9c        	mov1 cy, a.1
    1135: 61 c8        	skc
    1137: ee 51 00     	br $!0x118b <_R_Config_RTC_Set_HourSystem+0x89>
;                     for (w_count = 0U; w_count < RTC_WAITTIME_2CYCLE; w_count++ )
    113a: 71 38 2b 02  	clr1 !0xf022b.3
    113e: 71 08 2c 02  	clr1 !0xf022c.0
    1142: fd f6 12     	call !0x12f6 <_OUTLINED_FUNCTION_1>
    1145: 61 c3 39     	bh $0x1181 <_R_Config_RTC_Set_HourSystem+0x7f>
    1148: fd ea 12     	call !0x12ea <_OUTLINED_FUNCTION_0>
;                     for (w_count = 0U; w_count < RTC_WAITTIME_2CYCLE; w_count++ )
    114b: dc fb        	bc $0x1148 <_R_Config_RTC_Set_HourSystem+0x46>
    114d: ef 32        	br $0x1181 <_R_Config_RTC_Set_HourSystem+0x7f>
    114f: f7           	clrw bc
;             if(0U == RTCC0_bit.no3)    /* 12-hour system */
    1150: 8f 2b 02     	mov a, !0xf022b                 ; 0xf022b <__frodata+0xe9acd>
    1153: 31 33 35     	bt a.3, $0x118b <_R_Config_RTC_Set_HourSystem+0x89>
;                 for (w_count = 0U; w_count < RTC_WAITTIME_2CYCLE; w_count++ )
    1156: 71 00 2c 02  	set1 !0xf022c.0
    115a: fd f6 12     	call !0x12f6 <_OUTLINED_FUNCTION_1>
    115d: 61 c3 05     	bh $0x1165 <_R_Config_RTC_Set_HourSystem+0x63>
    1160: fd ea 12     	call !0x12ea <_OUTLINED_FUNCTION_0>
;                 for (w_count = 0U; w_count < RTC_WAITTIME_2CYCLE; w_count++ )
    1163: dc fb        	bc $0x1160 <_R_Config_RTC_Set_HourSystem+0x5e>
    1165: 32 03 00     	movw bc, #3
;                 if (0U == RWST)
    1168: 8f 2c 02     	mov a, !0xf022c                 ; 0xf022c <__frodata+0xe9ace>
    116b: 31 15 1d     	bf a.1, $0x118b <_R_Config_RTC_Set_HourSystem+0x89>
;                     for (w_count = 0U; w_count < RTC_WAITTIME_2CYCLE; w_count++ )
    116e: 71 30 2b 02  	set1 !0xf022b.3
    1172: 71 08 2c 02  	clr1 !0xf022c.0
    1176: fd f6 12     	call !0x12f6 <_OUTLINED_FUNCTION_1>
    1179: 61 c3 05     	bh $0x1181 <_R_Config_RTC_Set_HourSystem+0x7f>
    117c: fd ea 12     	call !0x12ea <_OUTLINED_FUNCTION_0>
;                     for (w_count = 0U; w_count < RTC_WAITTIME_2CYCLE; w_count++ )
    117f: dc fb        	bc $0x117c <_R_Config_RTC_Set_HourSystem+0x7a>
    1181: f7           	clrw bc
    1182: 8f 2c 02     	mov a, !0xf022c                 ; 0xf022c <__frodata+0xe9ace>
    1185: 31 15 03     	bf a.1, $0x118b <_R_Config_RTC_Set_HourSystem+0x89>
    1188: 32 04 00     	movw bc, #4
;     return (status);
    118b: 13           	movw ax, bc
    118c: c6           	pop hl
    118d: d7           	ret

0000118e <_R_Config_RTC_Get_CounterValue>:
; {
    118e: c1           	push ax
    118f: 16           	movw hl, ax
;     uint8_t temp1 = RTCC0;
    1190: e9 2b 02     	mov b, !0xf022b                 ; 0xf022b <__frodata+0xe9acd>
;     if (1U == WALIE)
    1193: 8f 2c 02     	mov a, !0xf022c                 ; 0xf022c <__frodata+0xe9ace>
    1196: 31 65 1c     	bf a.6, $0x11b5 <_R_Config_RTC_Get_CounterValue+0x27>
;         temp = RTCC0 & 0x07;
    1199: d9 2b 02     	mov x, !0xf022b                 ; 0xf022b <__frodata+0xe9acd>
;         temp1 &= _F8_RTC_INTRTC_CLEAR;
    119c: 71 1a e7     	set1 0xfffe7.1
    119f: 63           	mov a, b
    11a0: fd ff 12     	call !0x12ff <_OUTLINED_FUNCTION_2>
;         if (1U == WAFG)
    11a3: 31 45 03     	bf a.4, $0x11a9 <_R_Config_RTC_Get_CounterValue+0x1b>
;         }
    11a6: 71 1a e3     	set1 0xfffe3.1
;         while (0U == g_rtc_interrupt_flag)
    11a9: d5 f4 f3     	cmp0 !0xff3f4                   ; 0xff3f4 <_g_rtc_interrupt_flag>
    11ac: dd fb        	bz $0x11a9 <_R_Config_RTC_Get_CounterValue+0x1b>
;     }
    11ae: 71 1a e7     	set1 0xfffe7.1
;         temp = RTCC0 & 0x07;
    11b1: 60           	mov a, x
    11b2: 5c 07        	and a, #7
    11b4: 72           	mov c, a
;     for (w_count = 0U; w_count < RTC_WAITTIME_2CYCLE; w_count++ )
    11b5: 71 00 2c 02  	set1 !0xf022c.0
    11b9: fd f6 12     	call !0x12f6 <_OUTLINED_FUNCTION_1>
    11bc: 61 c3 05     	bh $0x11c4 <_R_Config_RTC_Get_CounterValue+0x36>
    11bf: fd ea 12     	call !0x12ea <_OUTLINED_FUNCTION_0>
;     for (w_count = 0U; w_count < RTC_WAITTIME_2CYCLE; w_count++ )
    11c2: dc fb        	bc $0x11bf <_R_Config_RTC_Get_CounterValue+0x31>
    11c4: 34 03 00     	movw de, #3
;     if (0U == RWST)
    11c7: 8f 2c 02     	mov a, !0xf022c                 ; 0xf022c <__frodata+0xe9ace>
    11ca: 31 15 4d     	bf a.1, $0x121a <_R_Config_RTC_Get_CounterValue+0x8c>
;         counter_read_val->sec = SEC;
    11cd: 8f 20 02     	mov a, !0xf0220                 ; 0xf0220 <__frodata+0xe9ac2>
    11d0: 9b           	mov [hl], a
;         counter_read_val->min = MIN;
    11d1: 8f 21 02     	mov a, !0xf0221                 ; 0xf0221 <__frodata+0xe9ac3>
    11d4: 9c 01        	mov [hl+1], a
;         counter_read_val->hour = HOUR;
    11d6: 8f 22 02     	mov a, !0xf0222                 ; 0xf0222 <__frodata+0xe9ac4>
    11d9: 9c 02        	mov [hl+2], a
;         counter_read_val->week = WEEK;
    11db: 8f 23 02     	mov a, !0xf0223                 ; 0xf0223 <__frodata+0xe9ac5>
    11de: 9c 04        	mov [hl+4], a
;         counter_read_val->day = DAY;
    11e0: 8f 24 02     	mov a, !0xf0224                 ; 0xf0224 <__frodata+0xe9ac6>
    11e3: 9c 03        	mov [hl+3], a
;         counter_read_val->month = MONTH;
    11e5: 8f 25 02     	mov a, !0xf0225                 ; 0xf0225 <__frodata+0xe9ac7>
    11e8: 9c 05        	mov [hl+5], a
;         counter_read_val->year = YEAR;
    11ea: 8f 26 02     	mov a, !0xf0226                 ; 0xf0226 <__frodata+0xe9ac8>
    11ed: 9c 06        	mov [hl+6], a
;         for (w_count = 0U; w_count < RTC_WAITTIME_2CYCLE; w_count++ )
    11ef: 71 08 2c 02  	clr1 !0xf022c.0
    11f3: fd f6 12     	call !0x12f6 <_OUTLINED_FUNCTION_1>
    11f6: 61 c3 05     	bh $0x11fe <_R_Config_RTC_Get_CounterValue+0x70>
    11f9: fd ea 12     	call !0x12ea <_OUTLINED_FUNCTION_0>
;         for (w_count = 0U; w_count < RTC_WAITTIME_2CYCLE; w_count++ )
    11fc: dc fb        	bc $0x11f9 <_R_Config_RTC_Get_CounterValue+0x6b>
    11fe: 34 04 00     	movw de, #4
;         if (1U == RWST)
    1201: 8f 2c 02     	mov a, !0xf022c                 ; 0xf022c <__frodata+0xe9ace>
    1204: 31 13 13     	bt a.1, $0x121a <_R_Config_RTC_Get_CounterValue+0x8c>
    1207: 34 00 00     	movw de, #0
;         else if (1U == WALIE)
    120a: 8f 2c 02     	mov a, !0xf022c                 ; 0xf022c <__frodata+0xe9ace>
    120d: 31 65 0a     	bf a.6, $0x121a <_R_Config_RTC_Get_CounterValue+0x8c>
    1210: fd 22 13     	call !0x1322 <_OUTLINED_FUNCTION_4>
;             RTCC0 |= temp;
    1213: 62           	mov a, c
    1214: fd 36 13     	call !0x1336 <_OUTLINED_FUNCTION_6>
    1217: fd 17 13     	call !0x1317 <_OUTLINED_FUNCTION_3>
;     return (status);
    121a: 15           	movw ax, de
    121b: c6           	pop hl
    121c: d7           	ret

0000121d <_R_Config_RTC_Set_CounterValue>:
; {
    121d: 20 06        	subw sp, #6
    121f: 88 10        	mov a, [sp+16]
    1221: 98 02        	mov [sp+2], a
    1223: 88 0f        	mov a, [sp+15]
    1225: 98 03        	mov [sp+3], a
    1227: 88 0e        	mov a, [sp+14]
    1229: 76           	mov l, a
    122a: 88 0d        	mov a, [sp+13]
    122c: 98 04        	mov [sp+4], a
;     uint8_t temp1 = RTCC0;
    122e: 8f 2b 02     	mov a, !0xf022b                 ; 0xf022b <__frodata+0xe9acd>
    1231: 74           	mov e, a
    1232: 88 0c        	mov a, [sp+12]
    1234: 77           	mov h, a
    1235: 88 0b        	mov a, [sp+11]
    1237: 72           	mov c, a
    1238: 88 0a        	mov a, [sp+10]
    123a: 73           	mov b, a
;     if (1U == WALIE)
    123b: 8f 2c 02     	mov a, !0xf022c                 ; 0xf022c <__frodata+0xe9ace>
    123e: 31 65 1d     	bf a.6, $0x125e <_R_Config_RTC_Set_CounterValue+0x41>
;         temp = RTCC0 & 0x07;
    1241: d9 2b 02     	mov x, !0xf022b                 ; 0xf022b <__frodata+0xe9acd>
;         temp1 &= _F8_RTC_INTRTC_CLEAR;
    1244: 71 1a e7     	set1 0xfffe7.1
    1247: 64           	mov a, e
    1248: fd ff 12     	call !0x12ff <_OUTLINED_FUNCTION_2>
;         if (1U == WAFG)
    124b: 31 45 03     	bf a.4, $0x1251 <_R_Config_RTC_Set_CounterValue+0x34>
;         }
    124e: 71 1a e3     	set1 0xfffe3.1
;         while (0U == g_rtc_interrupt_flag)
    1251: d5 f4 f3     	cmp0 !0xff3f4                   ; 0xff3f4 <_g_rtc_interrupt_flag>
    1254: dd fb        	bz $0x1251 <_R_Config_RTC_Set_CounterValue+0x34>
;         temp = RTCC0 & 0x07;
    1256: 60           	mov a, x
    1257: 5c 07        	and a, #7
    1259: 98 05        	mov [sp+5], a
;     }
    125b: 71 1a e7     	set1 0xfffe7.1
;     for (w_count = 0U; w_count < RTC_WAITTIME_2CYCLE; w_count++ )
    125e: 71 00 2c 02  	set1 !0xf022c.0
    1262: fd f6 12     	call !0x12f6 <_OUTLINED_FUNCTION_1>
    1265: 61 c3 05     	bh $0x126d <_R_Config_RTC_Set_CounterValue+0x50>
    1268: fd ea 12     	call !0x12ea <_OUTLINED_FUNCTION_0>
;     for (w_count = 0U; w_count < RTC_WAITTIME_2CYCLE; w_count++ )
    126b: dc fb        	bc $0x1268 <_R_Config_RTC_Set_CounterValue+0x4b>
    126d: 34 03 00     	movw de, #3
;     if (0U == RWST)
    1270: 8f 2c 02     	mov a, !0xf022c                 ; 0xf022c <__frodata+0xe9ace>
    1273: 31 15 4f     	bf a.1, $0x12c5 <_R_Config_RTC_Set_CounterValue+0xa8>
;         SEC = counter_write_val.sec;
    1276: 63           	mov a, b
    1277: 9f 20 02     	mov !0xf0220, a                 ; 0xf0220 <__frodata+0xe9ac2>
;         MIN = counter_write_val.min;
    127a: 62           	mov a, c
    127b: 9f 21 02     	mov !0xf0221, a                 ; 0xf0221 <__frodata+0xe9ac3>
;         HOUR = counter_write_val.hour;
    127e: 67           	mov a, h
    127f: 9f 22 02     	mov !0xf0222, a                 ; 0xf0222 <__frodata+0xe9ac4>
;         WEEK = counter_write_val.week;
    1282: 66           	mov a, l
    1283: 9f 23 02     	mov !0xf0223, a                 ; 0xf0223 <__frodata+0xe9ac5>
;         DAY = counter_write_val.day;
    1286: 88 04        	mov a, [sp+4]
    1288: 9f 24 02     	mov !0xf0224, a                 ; 0xf0224 <__frodata+0xe9ac6>
;         MONTH = counter_write_val.month;
    128b: 88 03        	mov a, [sp+3]
    128d: 9f 25 02     	mov !0xf0225, a                 ; 0xf0225 <__frodata+0xe9ac7>
;         YEAR = counter_write_val.year;
    1290: 88 02        	mov a, [sp+2]
    1292: 9f 26 02     	mov !0xf0226, a                 ; 0xf0226 <__frodata+0xe9ac8>
;         for (w_count = 0U; w_count < RTC_WAITTIME_2CYCLE; w_count++ )
    1295: 71 08 2c 02  	clr1 !0xf022c.0
    1299: fd f6 12     	call !0x12f6 <_OUTLINED_FUNCTION_1>
    129c: 61 c3 05     	bh $0x12a4 <_R_Config_RTC_Set_CounterValue+0x87>
    129f: fd ea 12     	call !0x12ea <_OUTLINED_FUNCTION_0>
;         for (w_count = 0U; w_count < RTC_WAITTIME_2CYCLE; w_count++ )
    12a2: dc fb        	bc $0x129f <_R_Config_RTC_Set_CounterValue+0x82>
    12a4: 34 04 00     	movw de, #4
;         if (1U == RWST)
    12a7: 8f 2c 02     	mov a, !0xf022c                 ; 0xf022c <__frodata+0xe9ace>
    12aa: 31 13 18     	bt a.1, $0x12c5 <_R_Config_RTC_Set_CounterValue+0xa8>
    12ad: 34 00 00     	movw de, #0
;         else if (1U == WALIE)
    12b0: 8f 2c 02     	mov a, !0xf022c                 ; 0xf022c <__frodata+0xe9ace>
    12b3: 31 65 0f     	bf a.6, $0x12c5 <_R_Config_RTC_Set_CounterValue+0xa8>
    12b6: fd 22 13     	call !0x1322 <_OUTLINED_FUNCTION_4>
;             RTCC0 |= temp;
    12b9: 88 05        	mov a, [sp+5]
    12bb: fd 36 13     	call !0x1336 <_OUTLINED_FUNCTION_6>
;         }
    12be: 71 48 2c 02  	clr1 !0xf022c.4
    12c2: fd 17 13     	call !0x1317 <_OUTLINED_FUNCTION_3>
;     return (status);
    12c5: 15           	movw ax, de
    12c6: 10 06        	addw sp, #6
    12c8: d7           	ret

000012c9 <_R_Config_RTC_Set_ConstPeriodInterruptOn>:
; {
    12c9: 12           	movw bc, ax
    12ca: 34 81 00     	movw de, #129
;     if ((period < HALFSEC) || (period > ONEMONTH))
    12cd: 04 f9 ff     	addw ax, #65529
    12d0: 44 fa ff     	cmpw ax, #65530
    12d3: dc 13        	bc $0x12e8 <_R_Config_RTC_Set_ConstPeriodInterruptOn+0x1f>
;         RTCC0 = (uint8_t)((RTCC0 & _F8_RTC_INTRTC_CLEAR) | period);
    12d5: 71 1a e7     	set1 0xfffe7.1
    12d8: 34 00 00     	movw de, #0
    12db: 51 f8        	mov a, #248
    12dd: 5f 2b 02     	and a, !0xf022b                 ; 0xf022b <__frodata+0xe9acd>
    12e0: 61 6a        	or a, c
    12e2: 9f 2b 02     	mov !0xf022b, a                 ; 0xf022b <__frodata+0xe9acd>
    12e5: fd 17 13     	call !0x1317 <_OUTLINED_FUNCTION_3>
;     return (status);
    12e8: 15           	movw ax, de
    12e9: d7           	ret

000012ea <_OUTLINED_FUNCTION_0>:
    12ea: 00           	nop
    12eb: a8 04        	movw ax, [sp+4]
    12ed: a1           	incw ax
    12ee: b8 04        	movw [sp+4], ax
    12f0: a8 04        	movw ax, [sp+4]
    12f2: 44 c2 a2     	cmpw ax, #41666
    12f5: d7           	ret

000012f6 <_OUTLINED_FUNCTION_1>:
    12f6: f6           	clrw ax
    12f7: b8 04        	movw [sp+4], ax
    12f9: a8 04        	movw ax, [sp+4]
    12fb: 44 c1 a2     	cmpw ax, #41665
    12fe: d7           	ret

000012ff <_OUTLINED_FUNCTION_2>:
    12ff: 5c f8        	and a, #248
    1301: 6c 02        	or a, #2
    1303: 9f 2b 02     	mov !0xf022b, a                 ; 0xf022b <__frodata+0xe9acd>
    1306: 71 38 2c 02  	clr1 !0xf022c.3
    130a: 71 1b e3     	clr1 0xfffe3.1
    130d: 71 1b e7     	clr1 0xfffe7.1
    1310: f5 f4 f3     	clrb !0xff3f4                   ; 0xff3f4 <_g_rtc_interrupt_flag>
    1313: 8f 2c 02     	mov a, !0xf022c                 ; 0xf022c <__frodata+0xe9ace>
    1316: d7           	ret

00001317 <_OUTLINED_FUNCTION_3>:
    1317: 71 38 2c 02  	clr1 !0xf022c.3
    131b: 71 1b e3     	clr1 0xfffe3.1
    131e: 71 1b e7     	clr1 0xfffe7.1
    1321: d7           	ret

00001322 <_OUTLINED_FUNCTION_4>:
    1322: 51 f8        	mov a, #248
    1324: 5f 2b 02     	and a, !0xf022b                 ; 0xf022b <__frodata+0xe9acd>
    1327: 9f 2b 02     	mov !0xf022b, a                 ; 0xf022b <__frodata+0xe9acd>
    132a: d7           	ret

0000132b <_OUTLINED_FUNCTION_5>:
    132b: 71 78 2b 02  	clr1 !0xf022b.7
    132f: 71 1a e7     	set1 0xfffe7.1
    1332: 71 1b e3     	clr1 0xfffe3.1
    1335: d7           	ret

00001336 <_OUTLINED_FUNCTION_6>:
    1336: 6f 2b 02     	or a, !0xf022b                  ; 0xf022b <__frodata+0xe9acd>
    1339: 9f 2b 02     	mov !0xf022b, a                 ; 0xf022b <__frodata+0xe9acd>
    133c: d7           	ret

0000133d <_R_Config_RTC_Create_UserInit>:
; 	timeout_cnt = 0;
    133d: f5 f5 f3     	clrb !0xff3f5                   ; 0xff3f5 <_timeout_cnt>
; }
    1340: d7           	ret

00001341 <_r_Config_RTC_interrupt>:
; {
    1341: c1           	push ax
    1342: c3           	push bc
    1343: c5           	push de
    1344: c7           	push hl
    1345: 8e fc        	mov a, cs
    1347: 70           	mov x, a
    1348: 8e fd        	mov a, es
    134a: c1           	push ax
;     g_rtc_interrupt_flag = 1U;
    134b: e5 f4 f3     	oneb !0xff3f4                   ; 0xff3f4 <_g_rtc_interrupt_flag>
;     if (1U == RIFG)
    134e: 8f 2c 02     	mov a, !0xf022c                 ; 0xf022c <__frodata+0xe9ace>
    1351: 31 35 07     	bf a.3, $0x135b <_r_Config_RTC_interrupt+0x1a>
;         r_Config_RTC_callback_constperiod();
    1354: 71 38 2c 02  	clr1 !0xf022c.3
    1358: fd 67 13     	call !0x1367 <_r_Config_RTC_callback_constperiod>
; }
    135b: c0           	pop ax
    135c: 9e fd        	mov es, a
    135e: 60           	mov a, x
    135f: 9e fc        	mov cs, a
    1361: c6           	pop hl
    1362: c4           	pop de
    1363: c2           	pop bc
    1364: c0           	pop ax
    1365: 61 fc        	reti

00001367 <_r_Config_RTC_callback_constperiod>:
; 	ProcessPerOneSecond_OnInterruptVec();
    1367: ed 14 14     	br !0x1414 <_ProcessPerOneSecond_OnInterruptVec>

0000136a <_R_Config_RTC_Set_CounterValue_TM>:
; MD_STATUS R_Config_RTC_Set_CounterValue_TM(struct tm nowtm){
    136a: 20 08        	subw sp, #8
; 	const uint8_t rtc_day 	= (uint8_t)((nowtm.tm_mday / 10) << 4) 	+ ((uint8_t)(nowtm.tm_mday % 10));
    136c: 32 67 66     	movw bc, #26215
    136f: 88 18        	mov a, [sp+24]
; 	return R_Config_RTC_Set_CounterValue(sntp_val);
    1371: 98 04        	mov [sp+4], a
    1373: a8 12        	movw ax, [sp+18]
    1375: 16           	movw hl, ax
; 	const uint8_t rtc_day 	= (uint8_t)((nowtm.tm_mday / 10) << 4) 	+ ((uint8_t)(nowtm.tm_mday % 10));
    1376: ce fb 02     	mulh
    1379: c3           	push bc
    137a: c4           	pop de
    137b: fd 7e 14     	call !0x147e <_OUTLINED_FUNCTION_0>
; 	return R_Config_RTC_Set_CounterValue(sntp_val);
    137e: 98 03        	mov [sp+3], a
    1380: a8 10        	movw ax, [sp+16]
    1382: 16           	movw hl, ax
; 	const uint8_t rtc_hour 	= (uint8_t)((nowtm.tm_hour / 10) << 4) 	+ ((uint8_t)(nowtm.tm_hour % 10));
    1383: ce fb 02     	mulh
    1386: c3           	push bc
    1387: c4           	pop de
    1388: fd 7e 14     	call !0x147e <_OUTLINED_FUNCTION_0>
; 	return R_Config_RTC_Set_CounterValue(sntp_val);
    138b: 98 02        	mov [sp+2], a
    138d: a8 0e        	movw ax, [sp+14]
    138f: 16           	movw hl, ax
; 	const uint8_t rtc_min 	= (uint8_t)((nowtm.tm_min / 10) << 4) 	+ ((uint8_t)(nowtm.tm_min % 10));
    1390: ce fb 02     	mulh
    1393: c3           	push bc
    1394: c4           	pop de
    1395: fd 7e 14     	call !0x147e <_OUTLINED_FUNCTION_0>
; 	return R_Config_RTC_Set_CounterValue(sntp_val);
    1398: 98 01        	mov [sp+1], a
    139a: a8 0c        	movw ax, [sp+12]
    139c: 16           	movw hl, ax
; 	const uint8_t rtc_sec 	= (uint8_t)((nowtm.tm_sec / 10) << 4) 	+ ((uint8_t)(nowtm.tm_sec % 10));
    139d: ce fb 02     	mulh
    13a0: c3           	push bc
    13a1: c4           	pop de
    13a2: fd 7e 14     	call !0x147e <_OUTLINED_FUNCTION_0>
; 	return R_Config_RTC_Set_CounterValue(sntp_val);
    13a5: 98 00        	mov [sp+0], a
    13a7: a8 14        	movw ax, [sp+20]
    13a9: 16           	movw hl, ax
; 	nowtm.tm_mon += 1;
    13aa: a7           	incw hl
; 	const uint8_t rtc_month = (uint8_t)((nowtm.tm_mon / 10) << 4) 	+ ((uint8_t)(nowtm.tm_mon % 10));
    13ab: 17           	movw ax, hl
    13ac: ce fb 02     	mulh
    13af: c3           	push bc
    13b0: c4           	pop de
    13b1: 15           	movw ax, de
    13b2: 31 fe        	shrw ax, 15
    13b4: 12           	movw bc, ax
    13b5: 15           	movw ax, de
    13b6: 31 2f        	sarw ax, 2
    13b8: 03           	addw ax, bc
    13b9: 32 0a 00     	movw bc, #10
    13bc: 14           	movw de, ax
    13bd: ce fb 01     	mulhu
    13c0: 12           	movw bc, ax
    13c1: 17           	movw ax, hl
    13c2: 23           	subw ax, bc
; 	nowtm.tm_year = 0 + (nowtm.tm_year % 100);
    13c3: 32 7b 14     	movw bc, #5243
; 	const uint8_t rtc_month = (uint8_t)((nowtm.tm_mon / 10) << 4) 	+ ((uint8_t)(nowtm.tm_mon % 10));
    13c6: 64           	mov a, e
    13c7: 31 49        	shl a, 4
    13c9: 61 08        	add a, x
    13cb: 98 07        	mov [sp+7], a
    13cd: a8 16        	movw ax, [sp+22]
    13cf: 14           	movw de, ax
; 	nowtm.tm_year = 0 + (nowtm.tm_year % 100);
    13d0: ce fb 02     	mulh
    13d3: 13           	movw ax, bc
    13d4: 31 fe        	shrw ax, 15
    13d6: 16           	movw hl, ax
    13d7: 13           	movw ax, bc
    13d8: 31 3f        	sarw ax, 3
    13da: 07           	addw ax, hl
    13db: 12           	movw bc, ax
; 	return R_Config_RTC_Set_CounterValue(sntp_val);
    13dc: 88 07        	mov a, [sp+7]
    13de: 98 05        	mov [sp+5], a
; 	nowtm.tm_year = 0 + (nowtm.tm_year % 100);
    13e0: 13           	movw ax, bc
    13e1: 32 64 00     	movw bc, #100
    13e4: ce fb 01     	mulhu
    13e7: 12           	movw bc, ax
    13e8: 15           	movw ax, de
    13e9: 23           	subw ax, bc
    13ea: 14           	movw de, ax
; 	const uint8_t rtc_year 	= (uint8_t)((nowtm.tm_year / 10) << 4) 	+ ((uint8_t)(nowtm.tm_year % 10));
    13eb: 32 67 00     	movw bc, #103
    13ee: 31 8d        	shlw ax, 8
    13f0: 31 8f        	sarw ax, 8
    13f2: ce fb 01     	mulhu
    13f5: 16           	movw hl, ax
    13f6: 31 fe        	shrw ax, 15
    13f8: 12           	movw bc, ax
    13f9: 17           	movw ax, hl
    13fa: 31 af        	sarw ax, 10
    13fc: 60           	mov a, x
    13fd: 50 0a        	mov x, #10
    13ff: 61 0a        	add a, c
    1401: 72           	mov c, a
    1402: d6           	mulu x
    1403: 64           	mov a, e
    1404: 61 28        	sub a, x
    1406: 70           	mov x, a
    1407: 62           	mov a, c
    1408: 31 49        	shl a, 4
    140a: 61 08        	add a, x
; 	return R_Config_RTC_Set_CounterValue(sntp_val);
    140c: 98 06        	mov [sp+6], a
    140e: fd 1d 12     	call !0x121d <_R_Config_RTC_Set_CounterValue>
    1411: 10 08        	addw sp, #8
    1413: d7           	ret

00001414 <_ProcessPerOneSecond_OnInterruptVec>:
; void ProcessPerOneSecond_OnInterruptVec(){
    1414: 20 10        	subw sp, #16
; 	timeout_cnt++;
    1416: a0 f5 f3     	inc !0xff3f5                    ; 0xff3f5 <_timeout_cnt>
    1419: ae f8        	movw ax, sp
; 	R_Config_RTC_Get_CounterValue(&counter_val);
    141b: fd 8e 11     	call !0x118e <_R_Config_RTC_Get_CounterValue>
; 	if (PIN_READ(SW_CALENDAR) == 0) {
    141e: 31 e2 01 1b  	bt 0xfff01.6, $0x143d <_ProcessPerOneSecond_OnInterruptVec+0x29>
    1422: 55 2f        	mov d, #47
    1424: 53 20        	mov b, #32
; 		spitest[0] = (uint8_t)(((counter_val.year >> 4) & 0x0F) + '0');
    1426: 88 06        	mov a, [sp+6]
    1428: fd 99 14     	call !0x1499 <_OUTLINED_FUNCTION_1>
; 		spitest[6] = (uint8_t)(((counter_val.day >> 4) & 0x03) + '0');
    142b: 88 03        	mov a, [sp+3]
    142d: 70           	mov x, a
    142e: 31 4a        	shr a, 4
    1430: 5c 03        	and a, #3
    1432: 74           	mov e, a
; 		spitest[3] = (uint8_t)(((counter_val.month >> 4) & 0x01) + '0');
    1433: 88 05        	mov a, [sp+5]
    1435: 72           	mov c, a
    1436: 31 4a        	shr a, 4
    1438: 5c 01        	and a, #1
    143a: 76           	mov l, a
    143b: ef 15        	br $0x1452 <_ProcessPerOneSecond_OnInterruptVec+0x3e>
    143d: 53 3a        	mov b, #58
    143f: 55 3a        	mov d, #58
; 		spitest[0] = (uint8_t)(((counter_val.hour >> 4) & 0x0F) + '0');
    1441: 88 02        	mov a, [sp+2]
    1443: fd 99 14     	call !0x1499 <_OUTLINED_FUNCTION_1>
; 		spitest[6] = (uint8_t)(((counter_val.sec >> 4) & 0x0F) + '0');
    1446: 88 00        	mov a, [sp+0]
    1448: 70           	mov x, a
    1449: 31 4a        	shr a, 4
    144b: 74           	mov e, a
; 		spitest[3] = (uint8_t)(((counter_val.min >> 4) & 0x0F) + '0');
    144c: 88 01        	mov a, [sp+1]
    144e: 72           	mov c, a
    144f: 31 4a        	shr a, 4
    1451: 76           	mov l, a
    1452: c8 0f 00     	mov [sp+15], #0
    1455: 65           	mov a, d
    1456: 98 0c        	mov [sp+12], a
    1458: 63           	mov a, b
    1459: 98 09        	mov [sp+9], a
    145b: 64           	mov a, e
    145c: 6c 30        	or a, #48
    145e: 98 0d        	mov [sp+13], a
    1460: 66           	mov a, l
    1461: 6c 30        	or a, #48
    1463: 98 0a        	mov [sp+10], a
    1465: 60           	mov a, x
    1466: 5c 0f        	and a, #15
    1468: 6c 30        	or a, #48
    146a: 98 0e        	mov [sp+14], a
    146c: 62           	mov a, c
    146d: 5c 0f        	and a, #15
    146f: 6c 30        	or a, #48
    1471: 98 0b        	mov [sp+11], a
    1473: ae f8        	movw ax, sp
    1475: 04 07 00     	addw ax, #7
; 	VFD_Display8Characters(spitest);
    1478: fd 98 15     	call !0x1598 <_VFD_Display8Characters>
; }
    147b: 10 10        	addw sp, #16
    147d: d7           	ret

0000147e <_OUTLINED_FUNCTION_0>:
    147e: 15           	movw ax, de
    147f: 31 fe        	shrw ax, 15
    1481: 12           	movw bc, ax
    1482: 15           	movw ax, de
    1483: 31 2f        	sarw ax, 2
    1485: 03           	addw ax, bc
    1486: 32 0a 00     	movw bc, #10
    1489: 14           	movw de, ax
    148a: ce fb 01     	mulhu
    148d: 12           	movw bc, ax
    148e: 17           	movw ax, hl
    148f: 23           	subw ax, bc
    1490: 32 67 66     	movw bc, #26215
    1493: 64           	mov a, e
    1494: 31 49        	shl a, 4
    1496: 61 08        	add a, x
    1498: d7           	ret

00001499 <_OUTLINED_FUNCTION_1>:
    1499: 70           	mov x, a
    149a: 5c 0f        	and a, #15
    149c: 6c 30        	or a, #48
    149e: 98 0c        	mov [sp+12], a
    14a0: 60           	mov a, x
    14a1: 31 4a        	shr a, 4
    14a3: 6c 30        	or a, #48
    14a5: 98 0b        	mov [sp+11], a
    14a7: d7           	ret

000014a8 <_R_Config_PORT_Create>:
;     P1 = _00_Pn7_OUTPUT_0 | _00_Pn6_OUTPUT_0 | _00_Pn2_OUTPUT_0 | _00_Pn1_OUTPUT_0 | _00_Pn0_OUTPUT_0;
    14a8: ce 01 00     	mov 0xfff01, #0
;     PU1 = _00_PUn7_PULLUP_OFF | _40_PUn6_PULLUP_ON | _00_PUn2_PULLUP_OFF | _00_PUn1_PULLUP_OFF | _00_PUn0_PULLUP_OFF;
    14ab: cf 31 00 40  	mov !0xf0031, #64               ; 0xf0031 <__frodata+0xe98d3>
;     PIM1 = _00_PIMn7_TTL_OFF | _00_PIMn6_TTL_OFF | _00_PIMn1_TTL_OFF | _00_PIMn0_TTL_OFF;
    14af: f5 41 00     	clrb !0xf0041                   ; 0xf0041 <__frodata+0xe98e3>
;     PDIDIS1 = _00_PDIDISn7_INPUT_BUFFER_ON | _00_PDIDISn2_INPUT_BUFFER_ON | _00_PDIDISn1_INPUT_BUFFER_ON | 
    14b2: f5 b1 02     	clrb !0xf02b1                   ; 0xf02b1 <__frodata+0xe9b53>
;     POM1 = _00_POMn7_NCH_OFF | _00_POMn2_NCH_OFF | _00_POMn1_NCH_OFF | _01_POMn0_NCH_ON;
    14b5: e5 51 00     	oneb !0xf0051                   ; 0xf0051 <__frodata+0xe98f3>
;     PMCT1 = _00_PMCTn7_DIGITAL_ON | _00_PMCTn6_DIGITAL_ON | _00_PMCTn2_NOT_USE | _00_PMCTn1_NOT_USE | 
    14b8: f5 61 02     	clrb !0xf0261                   ; 0xf0261 <__frodata+0xe9b03>
;     PM1 = _38_PM1_DEFAULT | _00_PMn7_MODE_OUTPUT | _40_PMn6_MODE_INPUT | _04_PMn2_NOT_USE | _02_PMn1_NOT_USE | 
    14bb: ce 21 7e     	mov 0xfff21, #126
;     P2 = _00_Pn2_OUTPUT_0 | _02_Pn1_OUTPUT_1 | _01_Pn0_OUTPUT_1;
    14be: ce 02 03     	mov 0xfff02, #3
;     PMCA2 = _F8_PMCA2_DEFAULT | _00_PMCAn2_DIGITAL_ON | _00_PMCAn1_DIGITAL_ON | _00_PMCAn0_DIGITAL_ON;
    14c1: cf 62 00 f8  	mov !0xf0062, #248              ; 0xf0062 <__frodata+0xe9904>
;     PMCT2 = _00_PMCTn2_DIGITAL_ON;
    14c5: f5 62 02     	clrb !0xf0262                   ; 0xf0262 <__frodata+0xe9b04>
;     PM2 = _F8_PM2_DEFAULT | _00_PMn2_MODE_OUTPUT | _00_PMn1_MODE_OUTPUT | _00_PMn0_MODE_OUTPUT;
    14c8: ce 22 f8     	mov 0xfff22, #248
;     P14 = _00_Pn7_OUTPUT_0;
    14cb: ce 0e 00     	mov 0xfff0e, #0
;     PMCA14 = _7F_PMCA14_DEFAULT | _00_PMCAn7_DIGITAL_ON;
    14ce: cf 6e 00 7f  	mov !0xf006e, #127              ; 0xf006e <__frodata+0xe9910>
;     PMCT14 = _00_PMCTn7_DIGITAL_ON;
    14d2: f5 6e 02     	clrb !0xf026e                   ; 0xf026e <__frodata+0xe9b10>
;     PM14 = _7F_PM14_DEFAULT | _00_PMn7_MODE_OUTPUT;
    14d5: ce 2e 7f     	mov 0xfff2e, #127
;     R_Config_PORT_Create_UserInit();
    14d8: ed db 14     	br !0x14db <_R_Config_PORT_Create_UserInit>

000014db <_R_Config_PORT_Create_UserInit>:
; }
    14db: d7           	ret

000014dc <_VFD_Init>:
; void VFD_Init(){
    14dc: 20 04        	subw sp, #4
; 	VFD_Reset();
    14de: 71 7a 0e     	set1 0xfff0e.7
    14e1: 71 2a 02     	set1 0xfff02.2
    14e4: 71 0b 02     	clr1 0xfff02.0
    14e7: 71 1a 02     	set1 0xfff02.1
    14ea: fd d3 15     	call !0x15d3 <_VFD_Reset>
;     uint8_t initcmd1[] = {0xE0, 0x07};
    14ed: 30 e0 07     	movw ax, #2016
    14f0: b8 00        	movw [sp+0], ax
;     VFD_SendCommands(initcmd1, 2);
    14f2: 52 02        	mov c, #2
    14f4: ae f8        	movw ax, sp
    14f6: fd 0b 15     	call !0x150b <_VFD_SendCommands>
; 	uint8_t initcmd2[] = {0xE4, 0xFF};
    14f9: 30 e4 ff     	movw ax, #65508
    14fc: b8 02        	movw [sp+2], ax
; 	VFD_SendCommands(initcmd2, 2);
    14fe: 52 02        	mov c, #2
    1500: ae f8        	movw ax, sp
    1502: 04 02 00     	addw ax, #2
    1505: fd 0b 15     	call !0x150b <_VFD_SendCommands>
; }
    1508: 10 04        	addw sp, #4
    150a: d7           	ret

0000150b <_VFD_SendCommands>:
; static void VFD_SendCommands(uint8_t* cmds, uint8_t cmdlen){
    150b: 20 0a        	subw sp, #10
    150d: 33           	xchw ax, bc
    150e: b8 04        	movw [sp+4], ax
    1510: 33           	xchw ax, bc
    1511: b8 08        	movw [sp+8], ax
; 	CS_Low();
    1513: 71 0b 02     	clr1 0xfff02.0
    1516: 71 1a 02     	set1 0xfff02.1
    1519: fd e4 15     	call !0x15e4 <_CS_Low>
    151c: a8 04        	movw ax, [sp+4]
; 	for (uint8_t i = 0; i < cmdlen; i++){
    151e: 60           	mov a, x
    151f: d1           	cmp0 a
    1520: dd 48        	bz $0x156a <_VFD_SendCommands+0x5f>
    1522: 36 00 00     	movw hl, #0
    1525: f7           	clrw bc
; 		uint8_t dataByte = cmds[i];
    1526: a8 08        	movw ax, [sp+8]
    1528: 37           	xchw ax, hl
    1529: b8 06        	movw [sp+6], ax
    152b: 37           	xchw ax, hl
; 		uint8_t dataByte = cmds[i];
    152c: 07           	addw ax, hl
    152d: 16           	movw hl, ax
    152e: 8b           	mov a, [hl]
    152f: 70           	mov x, a
; 			if (((dataByte >> bit) & 0x01) == 0x01){
    1530: 33           	xchw ax, bc
    1531: b8 00        	movw [sp+0], ax
    1533: 33           	xchw ax, bc
; 			if (((dataByte >> bit) & 0x01) == 0x01){
    1534: f1           	clrb a
    1535: c1           	push ax
    1536: 60           	mov a, x
    1537: 74           	mov e, a
    1538: c0           	pop ax
; 			if (((dataByte >> bit) & 0x01) == 0x01){
    1539: 35           	xchw ax, de
    153a: b8 02        	movw [sp+2], ax
    153c: 35           	xchw ax, de
    153d: fd dd 06     	call !0x6dd <___lshrhi3>
    1540: 71 1b 02     	clr1 0xfff02.1
    1543: 60           	mov a, x
    1544: 31 05 2c     	bf a.0, $0x1573 <_VFD_SendCommands+0x68>
; 			} else {
    1547: 71 0a 02     	set1 0xfff02.0
    154a: ef 2a        	br $0x1576 <_VFD_SendCommands+0x6b>
; 		R_BSP_SoftwareDelay(5, BSP_DELAY_MICROSECS);
    154c: 34 02 00     	movw de, #2
    154f: f7           	clrw bc
    1550: 30 05 00     	movw ax, #5
    1553: fd 94 0b     	call !0xb94 <_R_BSP_SoftwareDelay>
    1556: a8 06        	movw ax, [sp+6]
    1558: 16           	movw hl, ax
    1559: a8 04        	movw ax, [sp+4]
    155b: 12           	movw bc, ax
; 	for (uint8_t i = 0; i < cmdlen; i++){
    155c: f1           	clrb a
    155d: 73           	mov b, a
    155e: a7           	incw hl
    155f: 17           	movw ax, hl
    1560: c1           	push ax
    1561: 62           	mov a, c
    1562: 74           	mov e, a
    1563: c0           	pop ax
    1564: 43           	cmpw ax, bc
    1565: 15           	movw ax, de
    1566: b8 04        	movw [sp+4], ax
    1568: df bb        	bnz $0x1525 <_VFD_SendCommands+0x1a>
;     CS_High();
    156a: fd e8 15     	call !0x15e8 <_CS_High>
;     return;
    156d: 71 0b 02     	clr1 0xfff02.0
    1570: 10 0a        	addw sp, #10
    1572: d7           	ret
    1573: 71 0b 02     	clr1 0xfff02.0
; 			R_BSP_SoftwareDelay(1, BSP_DELAY_MICROSECS);
    1576: 34 02 00     	movw de, #2
    1579: f7           	clrw bc
    157a: e6           	onew ax
    157b: fd 94 0b     	call !0xb94 <_R_BSP_SoftwareDelay>
; 			R_BSP_SoftwareDelay(1, BSP_DELAY_MICROSECS);
    157e: 71 1a 02     	set1 0xfff02.1
    1581: 34 02 00     	movw de, #2
    1584: f7           	clrw bc
    1585: e6           	onew ax
    1586: fd 94 0b     	call !0xb94 <_R_BSP_SoftwareDelay>
    1589: a8 00        	movw ax, [sp+0]
    158b: 12           	movw bc, ax
; 		for (uint8_t bit = 0; bit < 8; bit++){
    158c: a3           	incw bc
    158d: 13           	movw ax, bc
    158e: 44 08 00     	cmpw ax, #8
    1591: a8 02        	movw ax, [sp+2]
    1593: dd b7        	bz $0x154c <_VFD_SendCommands+0x41>
    1595: ee 98 ff     	br $!0x1530 <_VFD_SendCommands+0x25>

00001598 <_VFD_Display8Characters>:
; void VFD_Display8Characters(uint8_t* chars){
    1598: 20 0a        	subw sp, #10
    159a: 16           	movw hl, ax
;     uint8_t packets[9] = {0x20, chars[0], chars[1], chars[2], chars[3], chars[4], chars[5], chars[6], chars[7]};
    159b: c8 00 20     	mov [sp+0], #32
    159e: 8b           	mov a, [hl]
    159f: 98 01        	mov [sp+1], a
    15a1: 8c 01        	mov a, [hl+1]
    15a3: 98 02        	mov [sp+2], a
    15a5: 8c 02        	mov a, [hl+2]
    15a7: 98 03        	mov [sp+3], a
    15a9: 8c 03        	mov a, [hl+3]
    15ab: 98 04        	mov [sp+4], a
    15ad: 8c 04        	mov a, [hl+4]
    15af: 98 05        	mov [sp+5], a
    15b1: 8c 05        	mov a, [hl+5]
    15b3: 98 06        	mov [sp+6], a
    15b5: 8c 06        	mov a, [hl+6]
    15b7: 98 07        	mov [sp+7], a
    15b9: 8c 07        	mov a, [hl+7]
    15bb: 98 08        	mov [sp+8], a
;     VFD_SendCommands(packets, 9);		// 割り込みからこれを呼ぶとうまく動かない
    15bd: 52 09        	mov c, #9
    15bf: ae f8        	movw ax, sp
    15c1: fd 0b 15     	call !0x150b <_VFD_SendCommands>
; 	uint8_t initcmd2[] = {0xE8};
    15c4: c8 09 e8     	mov [sp+9], #232
; 	VFD_SendCommands(initcmd2, 1);
    15c7: e2           	oneb c
    15c8: ae f8        	movw ax, sp
    15ca: 04 09 00     	addw ax, #9
    15cd: fd 0b 15     	call !0x150b <_VFD_SendCommands>
; }
    15d0: 10 0a        	addw sp, #10
    15d2: d7           	ret

000015d3 <_VFD_Reset>:
; 	R_BSP_SoftwareDelay(5, BSP_DELAY_MILLISECS);
    15d3: 71 7b 0e     	clr1 0xfff0e.7
    15d6: 34 01 00     	movw de, #1
    15d9: f7           	clrw bc
    15da: 30 05 00     	movw ax, #5
    15dd: fd 94 0b     	call !0xb94 <_R_BSP_SoftwareDelay>
; }
    15e0: 71 7a 0e     	set1 0xfff0e.7
    15e3: d7           	ret

000015e4 <_CS_Low>:
; }
    15e4: 71 2b 02     	clr1 0xfff02.2
    15e7: d7           	ret

000015e8 <_CS_High>:
; }
    15e8: 71 2a 02     	set1 0xfff02.2
    15eb: d7           	ret

000015ec <__Z19ProcessPerOneSecondv>:
; 	if (sntp_error_cnt > MAX_ALLOWED_SNTP_ERROR_CNT) {
    15ec: db f6 f3     	movw bc, !0xff3f6               ; 0xff3f6 <__ZL14sntp_error_cnt>
    15ef: af f8 f3     	movw ax, !0xff3f8               ; 0xff3f8 <__ZL14sntp_error_cnt+0x2>
    15f2: 44 00 00     	cmpw ax, #0
    15f5: 13           	movw ax, bc
    15f6: 61 f8        	sknz
    15f8: 44 18 00     	cmpw ax, #24
    15fb: 61 f3        	sknh
; 		ESP8266_Init();
    15fd: fd 35 16     	call !0x1635 <__ZL12ESP8266_Initv>
; 	if (is_last_SNTP_access_error == 1U){
    1600: 8f fa f3     	mov a, !0xff3fa                 ; 0xff3fa <__ZL25is_last_SNTP_access_error>
    1603: 4c 01        	cmp a, #1
    1605: df 05        	bnz $0x160c <__Z19ProcessPerOneSecondv+0x20>
; 	} else {
    1607: 71 7b 01     	clr1 0xfff01.7
    160a: ef 03        	br $0x160f <__Z19ProcessPerOneSecondv+0x23>
    160c: 71 7a 01     	set1 0xfff01.7
; 	if (++sec_cnt == DURATION_SEC_TO_ACCESS_NTP_SERVER) {
    160f: e6           	onew ax
    1610: 02 fc f3     	addw ax, !0xff3fc               ; 0xff3fc <__ZL7sec_cnt>
    1613: 44 10 0e     	cmpw ax, #3600
    1616: bf fc f3     	movw !0xff3fc, ax               ; 0xff3fc <__ZL7sec_cnt>
    1619: df 19        	bnz $0x1634 <__Z19ProcessPerOneSecondv+0x48>
; 		const AT_RESULT sntp_ret = AccessSNTPServerAndRefreshRTC();
    161b: fd b8 16     	call !0x16b8 <__ZL29AccessSNTPServerAndRefreshRTCv>
    161e: 12           	movw bc, ax
; 		sec_cnt = 0;
    161f: f6           	clrw ax
    1620: bf fc f3     	movw !0xff3fc, ax               ; 0xff3fc <__ZL7sec_cnt>
; 		if(sntp_ret != AT_OK){
    1623: 13           	movw ax, bc
    1624: 44 00 00     	cmpw ax, #0
    1627: e6           	onew ax
    1628: 61 f8        	sknz
    162a: f6           	clrw ax
    162b: 08           	xch a, x
    162c: 5c 01        	and a, #1
    162e: 08           	xch a, x
    162f: f1           	clrb a
    1630: 60           	mov a, x
    1631: 9f fa f3     	mov !0xff3fa, a                 ; 0xff3fa <__ZL25is_last_SNTP_access_error>
; }
    1634: d7           	ret

00001635 <__ZL12ESP8266_Initv>:
; static void ESP8266_Init(){
    1635: 20 4e        	subw sp, #78
; 	R_BSP_SoftwareDelay(1000, BSP_DELAY_MILLISECS);
    1637: 71 0b 01     	clr1 0xfff01.0
    163a: fd 1c 18     	call !0x181c <_OUTLINED_FUNCTION_1>
;     VFD_Display8Characters((uint8_t*)"WAITCONN");
    163d: 30 bb 61     	movw ax, #25019
    1640: fd 98 15     	call !0x1598 <_VFD_Display8Characters>
; 	uint8_t str_AT2[] = "WIFI GOT IP";
    1643: 71 0a 01     	set1 0xfff01.0
; 	ESP8266_ReceiveResponseAndCheckEquality(str_AT2, true);
    1646: 30 6d 63     	movw ax, #25453
    1649: fd 58 17     	call !0x1758 <__ZL39ESP8266_ReceiveResponseAndCheckEqualityPhb>
; 	R_BSP_SoftwareDelay(1000, BSP_DELAY_MILLISECS);
    164c: fd 1c 18     	call !0x181c <_OUTLINED_FUNCTION_1>
;     VFD_Display8Characters((uint8_t*)"WAIT AT ");
    164f: 30 48 62     	movw ax, #25160
    1652: fd 98 15     	call !0x1598 <_VFD_Display8Characters>
; 	uint8_t AT0[] = "AT\r\n";
    1655: c8 04 00     	mov [sp+4], #0
    1658: 30 0d 0a     	movw ax, #2573
    165b: b8 02        	movw [sp+2], ax
    165d: 30 41 54     	movw ax, #21569
    1660: b8 00        	movw [sp+0], ax
; 	const AT_RESULT at0_res = ESP8266_SendAndReceiveATCommand(AT0, true);
    1662: ae f8        	movw ax, sp
    1664: fd 27 18     	call !0x1827 <_OUTLINED_FUNCTION_2>
; 	if (at0_res != AT_OK){
    1667: dd 05        	bz $0x166e <__ZL12ESP8266_Initv+0x39>
; 		HALT();
    1669: 71 7b 01     	clr1 0xfff01.7
    166c: 61 ed        	halt
; 	R_BSP_SoftwareDelay(2000, BSP_DELAY_MILLISECS);
    166e: 34 01 00     	movw de, #1
    1671: f7           	clrw bc
    1672: 30 d0 07     	movw ax, #2000
    1675: fd 94 0b     	call !0xb94 <_R_BSP_SoftwareDelay>
;     VFD_Display8Characters((uint8_t*)"WAITSNTP");
    1678: 30 51 62     	movw ax, #25169
    167b: fd 98 15     	call !0x1598 <_VFD_Display8Characters>
; 	uint8_t AT1[] = "AT+CIPSNTPCFG=1,9,\"ntp.nict.jp\",\"jp.pool.ntp.org\",\"time.google.com\"\r\n";
    167e: 34 46 00     	movw de, #70
    1681: 32 e1 62     	movw bc, #25313
    1684: ae f8        	movw ax, sp
    1686: 04 05 00     	addw ax, #5
    1689: b8 4c        	movw [sp+76], ax
    168b: fd 55 06     	call !0x655 <_memcpy>
; 	const AT_RESULT at1_res = ESP8266_SendAndReceiveATCommand(AT1, true);
    168e: a8 4c        	movw ax, [sp+76]
    1690: fd 27 18     	call !0x1827 <_OUTLINED_FUNCTION_2>
; 	if (at1_res != AT_OK){
    1693: dd 05        	bz $0x169a <__ZL12ESP8266_Initv+0x65>
; 		HALT();
    1695: 71 7b 01     	clr1 0xfff01.7
    1698: 61 ed        	halt
; 	R_BSP_SoftwareDelay(5000, BSP_DELAY_MILLISECS);
    169a: 34 01 00     	movw de, #1
    169d: f7           	clrw bc
    169e: 30 88 13     	movw ax, #5000
    16a1: fd 94 0b     	call !0xb94 <_R_BSP_SoftwareDelay>
;     VFD_Display8Characters((uint8_t*)"UPDATE..");
    16a4: 30 a3 62     	movw ax, #25251
    16a7: fd 98 15     	call !0x1598 <_VFD_Display8Characters>
; 	AT_RESULT sntp_ret = AccessSNTPServerAndRefreshRTC();
    16aa: fd b8 16     	call !0x16b8 <__ZL29AccessSNTPServerAndRefreshRTCv>
; 	if (sntp_ret != AT_OK){
    16ad: 44 00 00     	cmpw ax, #0
    16b0: 61 e8        	skz
; 	}
    16b2: 71 7b 01     	clr1 0xfff01.7
; }
    16b5: 10 4e        	addw sp, #78
    16b7: d7           	ret

000016b8 <__ZL29AccessSNTPServerAndRefreshRTCv>:
; static AT_RESULT AccessSNTPServerAndRefreshRTC(){
    16b8: 20 3a        	subw sp, #58
; 	uint8_t AT3[] = "AT+CIPSNTPTIME?\r\n";
    16ba: 34 12 00     	movw de, #18
    16bd: 32 94 63     	movw bc, #25492
    16c0: ae f8        	movw ax, sp
    16c2: 04 12 00     	addw ax, #18
    16c5: b8 36        	movw [sp+54], ax
    16c7: fd 55 06     	call !0x655 <_memcpy>
; 	AT_RESULT sntp_res = ESP8266_SendAndReceiveATCommand(AT3, true);
    16ca: a8 36        	movw ax, [sp+54]
    16cc: fd 91 17     	call !0x1791 <__ZL31ESP8266_SendAndReceiveATCommandPhb>
    16cf: 16           	movw hl, ax
; 	if (sntp_res == AT_OK){
    16d0: 44 00 00     	cmpw ax, #0
    16d3: df 2a        	bnz $0x16ff <__ZL29AccessSNTPServerAndRefreshRTCv+0x47>
    16d5: fd 2e 18     	call !0x182e <_OUTLINED_FUNCTION_3>
; 		strptime((char*)(AT_command_response_buf + 13), "%a %b %d %H:%M:%S %Y", &tes);
    16d8: 32 d8 61     	movw bc, #25048
    16db: ae f8        	movw ax, sp
    16dd: 04 24 00     	addw ax, #36
    16e0: b8 38        	movw [sp+56], ax
    16e2: 14           	movw de, ax
    16e3: 17           	movw ax, hl
    16e4: b8 36        	movw [sp+54], ax
    16e6: 30 0b f4     	movw ax, #62475
    16e9: fd 82 21     	call !0x2182 <_strptime>
; 		R_Config_RTC_Set_CounterValue_TM(tes);
    16ec: a8 38        	movw ax, [sp+56]
    16ee: 12           	movw bc, ax
    16ef: 34 12 00     	movw de, #18
    16f2: ae f8        	movw ax, sp
    16f4: fd 55 06     	call !0x655 <_memcpy>
    16f7: fd 6a 13     	call !0x136a <_R_Config_RTC_Set_CounterValue_TM>
    16fa: a8 36        	movw ax, [sp+54]
    16fc: 16           	movw hl, ax
; 		R_Config_RTC_Set_CounterValue_TM(tes);
    16fd: ef 17        	br $0x1716 <__ZL29AccessSNTPServerAndRefreshRTCv+0x5e>
; 		sntp_error_cnt++;
    16ff: e6           	onew ax
    1700: 02 f6 f3     	addw ax, !0xff3f6               ; 0xff3f6 <__ZL14sntp_error_cnt>
    1703: 14           	movw de, ax
    1704: f6           	clrw ax
    1705: 08           	xch a, x
    1706: 1f f8 f3     	addc a, !0xff3f8                ; 0xff3f8 <__ZL14sntp_error_cnt+0x2>
    1709: 08           	xch a, x
    170a: 1f f9 f3     	addc a, !0xff3f9                ; 0xff3f9 <__ZL14sntp_error_cnt+0x3>
    170d: 12           	movw bc, ax
    170e: 15           	movw ax, de
    170f: bf f6 f3     	movw !0xff3f6, ax               ; 0xff3f6 <__ZL14sntp_error_cnt>
    1712: 13           	movw ax, bc
    1713: bf f8 f3     	movw !0xff3f8, ax               ; 0xff3f8 <__ZL14sntp_error_cnt+0x2>
; 	return sntp_res;
    1716: 17           	movw ax, hl
    1717: 10 3a        	addw sp, #58
    1719: d7           	ret

0000171a <_main>:
;     is_last_SNTP_access_error	= 0U;
    171a: 71 7a 01     	set1 0xfff01.7
    171d: 71 0b 01     	clr1 0xfff01.0
    1720: f5 fa f3     	clrb !0xff3fa                   ; 0xff3fa <__ZL25is_last_SNTP_access_error>
    1723: fd 2e 18     	call !0x182e <_OUTLINED_FUNCTION_3>
;     R_Config_UART1_Start();
    1726: fd 45 0f     	call !0xf45 <_R_Config_UART1_Start>
;     R_Config_RTC_Set_HourSystem(HOUR24);
    1729: e6           	onew ax
    172a: fd 02 11     	call !0x1102 <_R_Config_RTC_Set_HourSystem>
;     R_Config_RTC_Set_ConstPeriodInterruptOn(ONESEC);
    172d: 30 02 00     	movw ax, #2
    1730: fd c9 12     	call !0x12c9 <_R_Config_RTC_Set_ConstPeriodInterruptOn>
;     R_Config_RTC_Start();
    1733: fd f7 10     	call !0x10f7 <_R_Config_RTC_Start>
;     EI();
    1736: 71 7a fa     	ei
;     VFD_Init();
    1739: fd dc 14     	call !0x14dc <_VFD_Init>
;     VFD_Display8Characters((uint8_t*)"RL78 CLK");
    173c: 30 64 62     	movw ax, #25188
    173f: fd 98 15     	call !0x1598 <_VFD_Display8Characters>
; 	ESP8266_Init();
    1742: fd 35 16     	call !0x1635 <__ZL12ESP8266_Initv>
; 	sec_cnt = 0;
    1745: f6           	clrw ax
    1746: bf fc f3     	movw !0xff3fc, ax               ; 0xff3fc <__ZL7sec_cnt>
;     	HALT();
    1749: 61 ed        	halt
;     	if (g_rtc_interrupt_flag) {
    174b: d5 f4 f3     	cmp0 !0xff3f4                   ; 0xff3f4 <_g_rtc_interrupt_flag>
    174e: dd f9        	bz $0x1749 <_main+0x2f>
;     		ProcessPerOneSecond();
    1750: fd ec 15     	call !0x15ec <__Z19ProcessPerOneSecondv>
;     		g_rtc_interrupt_flag = false;
    1753: f5 f4 f3     	clrb !0xff3f4                   ; 0xff3f4 <_g_rtc_interrupt_flag>
    1756: ef f1        	br $0x1749 <_main+0x2f>

00001758 <__ZL39ESP8266_ReceiveResponseAndCheckEqualityPhb>:
; static void ESP8266_ReceiveResponseAndCheckEquality(uint8_t* const find_str, bool isTransferredToPC){
    1758: 20 88        	subw sp, #136
; 	const uint8_t len_AT1 = (uint8_t)strlen((char*)find_str);
    175a: b8 84        	movw [sp+132], ax
    175c: fd 16 06     	call !0x616 <_strlen>
    175f: b8 86        	movw [sp+134], ax
; 		if (isUART1ReceivedLine()){
    1761: fd 89 10     	call !0x1089 <_isUART1ReceivedLine>
    1764: 31 05 fa     	bf a.0, $0x1761 <__ZL39ESP8266_ReceiveResponseAndCheckEqualityPhb+0x9>
; 			uint8_t receivedResponse[UART1_RX_BUF_LEN + 1] = {0};
    1767: 34 81 00     	movw de, #129
    176a: f7           	clrw bc
    176b: ae f8        	movw ax, sp
    176d: b8 82        	movw [sp+130], ax
    176f: fd 08 06     	call !0x608 <_memset>
; 			strcpy((char*)receivedResponse, (char*)UART1_rx_buf);
    1772: 32 71 f3     	movw bc, #62321
    1775: a8 82        	movw ax, [sp+130]
    1777: fd 32 06     	call !0x632 <_strcpy>
; 			UART1_ClearReceiveBuffer();
    177a: fd 92 10     	call !0x1092 <_UART1_ClearReceiveBuffer>
; 			const uint8_t diff_res = (uint8_t)strncmp((char*)receivedResponse, (char*)find_str, len_AT1);
    177d: a8 86        	movw ax, [sp+134]
    177f: 33           	xchw ax, bc
    1780: a8 84        	movw ax, [sp+132]
    1782: 33           	xchw ax, bc
    1783: f1           	clrb a
    1784: 14           	movw de, ax
    1785: a8 82        	movw ax, [sp+130]
    1787: fd 3f 06     	call !0x63f <_strncmp>
    178a: 60           	mov a, x
    178b: d1           	cmp0 a
    178c: df d3        	bnz $0x1761 <__ZL39ESP8266_ReceiveResponseAndCheckEqualityPhb+0x9>
; }
    178e: 10 88        	addw sp, #136
    1790: d7           	ret

00001791 <__ZL31ESP8266_SendAndReceiveATCommandPhb>:
; static AT_RESULT ESP8266_SendAndReceiveATCommand(uint8_t* const AT_comm, bool isTransferredToPC){
    1791: 20 0e        	subw sp, #14
; 	const uint8_t len_AT = (uint8_t)strlen((char*)AT_comm);
    1793: b8 0a        	movw [sp+10], ax
    1795: fd 16 06     	call !0x616 <_strlen>
    1798: b8 0c        	movw [sp+12], ax
; 	timeout_cnt = 0;
    179a: f5 f5 f3     	clrb !0xff3f5                   ; 0xff3f5 <_timeout_cnt>
; 	while (!isUART1SendFinished()){
    179d: fd 95 10     	call !0x1095 <_isUART1SendFinished>
    17a0: 31 05 fa     	bf a.0, $0x179d <__ZL31ESP8266_SendAndReceiveATCommandPhb+0xc>
; 	R_Config_UART1_Send(AT_comm, len_AT);
    17a3: a8 0c        	movw ax, [sp+12]
    17a5: f1           	clrb a
    17a6: 12           	movw bc, ax
    17a7: a8 0a        	movw ax, [sp+10]
    17a9: fd 61 0f     	call !0xf61 <_R_Config_UART1_Send>
; 	while (!isUART1SendFinished()){
    17ac: fd 95 10     	call !0x1095 <_isUART1SendFinished>
    17af: 31 05 fa     	bf a.0, $0x17ac <__ZL31ESP8266_SendAndReceiveATCommandPhb+0x1b>
    17b2: e7           	onew bc
; 	while(timeout_cnt < AT_TIMEOUT_CNT){
    17b3: 8f f5 f3     	mov a, !0xff3f5                 ; 0xff3f5 <_timeout_cnt>
    17b6: 4c 13        	cmp a, #19
    17b8: 61 c3 23     	bh $0x17de <__ZL31ESP8266_SendAndReceiveATCommandPhb+0x4d>
; 		if (isUART1ReceivedLine()){
    17bb: fd 89 10     	call !0x1089 <_isUART1ReceivedLine>
    17be: 31 03 0a     	bt a.0, $0x17cb <__ZL31ESP8266_SendAndReceiveATCommandPhb+0x3a>
; 	while(timeout_cnt < AT_TIMEOUT_CNT){
    17c1: 8f f5 f3     	mov a, !0xff3f5                 ; 0xff3f5 <_timeout_cnt>
    17c4: 4c 14        	cmp a, #20
    17c6: dc f3        	bc $0x17bb <__ZL31ESP8266_SendAndReceiveATCommandPhb+0x2a>
    17c8: e7           	onew bc
    17c9: ef 13        	br $0x17de <__ZL31ESP8266_SendAndReceiveATCommandPhb+0x4d>
; 			uint8_t str_ok[] = "OK";
    17cb: c8 02 00     	mov [sp+2], #0
    17ce: 30 4f 4b     	movw ax, #19279
    17d1: b8 00        	movw [sp+0], ax
; 			const uint8_t* diff_res1 = (uint8_t*)strstr((char*)UART1_rx_buf, (char*)str_ok);
    17d3: ae f8        	movw ax, sp
    17d5: fd 11 18     	call !0x1811 <_OUTLINED_FUNCTION_0>
; 			if (diff_res1 != NULL){
    17d8: dd 08        	bz $0x17e2 <__ZL31ESP8266_SendAndReceiveATCommandPhb+0x51>
; 				UART1_ClearReceiveBuffer();
    17da: fd 92 10     	call !0x1092 <_UART1_ClearReceiveBuffer>
    17dd: f7           	clrw bc
; }
    17de: 13           	movw ax, bc
    17df: 10 0e        	addw sp, #14
    17e1: d7           	ret
; 			uint8_t str_error[] = "ERROR";
    17e2: 30 52 00     	movw ax, #82
    17e5: b8 08        	movw [sp+8], ax
    17e7: 30 52 4f     	movw ax, #20306
    17ea: b8 06        	movw [sp+6], ax
    17ec: 30 45 52     	movw ax, #21061
    17ef: b8 04        	movw [sp+4], ax
; 			const uint8_t* diff_res2 = (uint8_t*)strstr((char*)UART1_rx_buf, (char*)str_error);
    17f1: ae f8        	movw ax, sp
    17f3: 04 04 00     	addw ax, #4
    17f6: fd 11 18     	call !0x1811 <_OUTLINED_FUNCTION_0>
; 			if (diff_res2 != NULL){
    17f9: dd 05        	bz $0x1800 <__ZL31ESP8266_SendAndReceiveATCommandPhb+0x6f>
; 				UART1_ClearReceiveBuffer();
    17fb: fd 92 10     	call !0x1092 <_UART1_ClearReceiveBuffer>
    17fe: ef c8        	br $0x17c8 <__ZL31ESP8266_SendAndReceiveATCommandPhb+0x37>
; 			strcpy((char*)AT_command_response_buf, (char*)UART1_rx_buf);
    1800: 32 71 f3     	movw bc, #62321
    1803: 30 fe f3     	movw ax, #62462
    1806: fd 32 06     	call !0x632 <_strcpy>
; 			UART1_ClearReceiveBuffer();
    1809: fd 92 10     	call !0x1092 <_UART1_ClearReceiveBuffer>
    180c: ef b3        	br $0x17c1 <__ZL31ESP8266_SendAndReceiveATCommandPhb+0x30>

0000180e <__Z6strstrB7v170001Ua9enable_ifILb1EEPcPKc>:
;   return __builtin_strstr(__s1, __s2);
    180e: ed e9 05     	br !0x5e9 <_strstr>

00001811 <_OUTLINED_FUNCTION_0>:
    1811: 12           	movw bc, ax
    1812: 30 71 f3     	movw ax, #62321
    1815: fd 0e 18     	call !0x180e <__Z6strstrB7v170001Ua9enable_ifILb1EEPcPKc>
    1818: 44 00 00     	cmpw ax, #0
    181b: d7           	ret

0000181c <_OUTLINED_FUNCTION_1>:
    181c: 34 01 00     	movw de, #1
    181f: f7           	clrw bc
    1820: 30 e8 03     	movw ax, #1000
    1823: fd 94 0b     	call !0xb94 <_R_BSP_SoftwareDelay>
    1826: d7           	ret

00001827 <_OUTLINED_FUNCTION_2>:
    1827: fd 91 17     	call !0x1791 <__ZL31ESP8266_SendAndReceiveATCommandPhb>
    182a: 44 00 00     	cmpw ax, #0
    182d: d7           	ret

0000182e <_OUTLINED_FUNCTION_3>:
    182e: f6           	clrw ax
    182f: bf f8 f3     	movw !0xff3f8, ax               ; 0xff3f8 <__ZL14sntp_error_cnt+0x2>
    1832: bf f6 f3     	movw !0xff3f6, ax               ; 0xff3f6 <__ZL14sntp_error_cnt>
    1835: d7           	ret

00001836 <_strptime_l>:
    1836: 20 28        	subw sp, #40
    1838: 35           	xchw ax, de
    1839: b8 1c        	movw [sp+28], ax
    183b: 35           	xchw ax, de
    183c: b8 04        	movw [sp+4], ax
    183e: f6           	clrw ax
    183f: b8 1a        	movw [sp+26], ax
    1841: a8 2c        	movw ax, [sp+44]
    1843: b8 1e        	movw [sp+30], ax
    1845: c3           	push bc
    1846: c6           	pop hl
    1847: 8b           	mov a, [hl]
    1848: 74           	mov e, a
    1849: d1           	cmp0 a
    184a: 61 f8        	sknz
    184c: ee ab 06     	br $!0x1efa <_strptime_l+0x6c4>
    184f: 36 f5 65     	movw hl, #26101
    1852: f1           	clrb a
    1853: 75           	mov d, a
    1854: 15           	movw ax, de
    1855: 07           	addw ax, hl
    1856: 16           	movw hl, ax
    1857: 31 b5 18     	bf [hl].3, $0x1872 <_strptime_l+0x3c>
    185a: 36 f5 65     	movw hl, #26101
    185d: a8 04        	movw ax, [sp+4]
    185f: 14           	movw de, ax
    1860: 89           	mov a, [de]
    1861: 31 8e        	shrw ax, 8
    1863: 07           	addw ax, hl
    1864: 16           	movw hl, ax
    1865: 71 b4        	mov1 cy, [hl].3
    1867: 61 c8        	skc
    1869: ee 68 06     	br $!0x1ed4 <_strptime_l+0x69e>
    186c: a5           	incw de
    186d: 15           	movw ax, de
    186e: b8 04        	movw [sp+4], ax
    1870: ef e8        	br $0x185a <_strptime_l+0x24>
    1872: 64           	mov a, e
    1873: 4c 25        	cmp a, #37
    1875: 61 e8        	skz
    1877: ee 75 06     	br $!0x1eef <_strptime_l+0x6b9>
    187a: c3           	push bc
    187b: c6           	pop hl
    187c: 8c 01        	mov a, [hl+1]
    187e: d1           	cmp0 a
    187f: 61 f8        	sknz
    1881: ee 6b 06     	br $!0x1eef <_strptime_l+0x6b9>
    1884: 4c 4f        	cmp a, #79
    1886: 75           	mov d, a
    1887: dd 08        	bz $0x1891 <_strptime_l+0x5b>
    1889: c3           	push bc
    188a: c6           	pop hl
    188b: a7           	incw hl
    188c: 65           	mov a, d
    188d: 4c 45        	cmp a, #69
    188f: df 09        	bnz $0x189a <_strptime_l+0x64>
    1891: c3           	push bc
    1892: c6           	pop hl
    1893: 8c 02        	mov a, [hl+2]
    1895: 75           	mov d, a
    1896: 13           	movw ax, bc
    1897: a1           	incw ax
    1898: a1           	incw ax
    1899: 16           	movw hl, ax
    189a: 65           	mov a, d
    189b: b8 20        	movw [sp+32], ax
    189d: 37           	xchw ax, hl
    189e: b8 18        	movw [sp+24], ax
    18a0: 37           	xchw ax, hl
    18a1: 15           	movw ax, de
    18a2: 31 8f        	sarw ax, 8
    18a4: 14           	movw de, ax
    18a5: 04 9c ff     	addw ax, #65436
    18a8: 44 02 00     	cmpw ax, #2
    18ab: 61 d8        	sknc
    18ad: ee 21 02     	br $!0x1ad1 <_strptime_l+0x29b>
    18b0: 15           	movw ax, de
    18b1: 44 00 00     	cmpw ax, #0
    18b4: 61 f8        	sknz
    18b6: ee 0c 06     	br $!0x1ec5 <_strptime_l+0x68f>
    18b9: 15           	movw ax, de
    18ba: 44 25 00     	cmpw ax, #37
    18bd: 61 f8        	sknz
    18bf: ee 04 06     	br $!0x1ec6 <_strptime_l+0x690>
    18c2: 15           	movw ax, de
    18c3: 44 79 00     	cmpw ax, #121
    18c6: 61 f8        	sknz
    18c8: ee a0 05     	br $!0x1e6b <_strptime_l+0x635>
    18cb: 15           	movw ax, de
    18cc: 44 42 00     	cmpw ax, #66
    18cf: 61 f8        	sknz
    18d1: ee 61 01     	br $!0x1a35 <_strptime_l+0x1ff>
    18d4: 15           	movw ax, de
    18d5: 44 43 00     	cmpw ax, #67
    18d8: 61 f8        	sknz
    18da: ee 83 01     	br $!0x1a60 <_strptime_l+0x22a>
    18dd: 15           	movw ax, de
    18de: 44 44 00     	cmpw ax, #68
    18e1: 61 f8        	sknz
    18e3: ee ca 01     	br $!0x1ab0 <_strptime_l+0x27a>
    18e6: 15           	movw ax, de
    18e7: 44 46 00     	cmpw ax, #70
    18ea: 61 f8        	sknz
    18ec: ee 0c 02     	br $!0x1afb <_strptime_l+0x2c5>
    18ef: 15           	movw ax, de
    18f0: 44 48 00     	cmpw ax, #72
    18f3: 61 f8        	sknz
    18f5: ee 23 02     	br $!0x1b1b <_strptime_l+0x2e5>
    18f8: 15           	movw ax, de
    18f9: 44 49 00     	cmpw ax, #73
    18fc: 61 f8        	sknz
    18fe: ee 36 02     	br $!0x1b37 <_strptime_l+0x301>
    1901: 15           	movw ax, de
    1902: 44 4d 00     	cmpw ax, #77
    1905: 61 f8        	sknz
    1907: ee ae 02     	br $!0x1bb8 <_strptime_l+0x382>
    190a: 15           	movw ax, de
    190b: 44 52 00     	cmpw ax, #82
    190e: 61 f8        	sknz
    1910: ee 64 03     	br $!0x1c77 <_strptime_l+0x441>
    1913: 15           	movw ax, de
    1914: 44 53 00     	cmpw ax, #83
    1917: 61 f8        	sknz
    1919: ee 33 04     	br $!0x1d4f <_strptime_l+0x519>
    191c: 15           	movw ax, de
    191d: 44 54 00     	cmpw ax, #84
    1920: 61 f8        	sknz
    1922: ee 5d 04     	br $!0x1d82 <_strptime_l+0x54c>
    1925: 15           	movw ax, de
    1926: 44 55 00     	cmpw ax, #85
    1929: 61 f8        	sknz
    192b: ee a6 04     	br $!0x1dd4 <_strptime_l+0x59e>
    192e: 15           	movw ax, de
    192f: 44 56 00     	cmpw ax, #86
    1932: 61 f8        	sknz
    1934: ee c9 04     	br $!0x1e00 <_strptime_l+0x5ca>
    1937: 15           	movw ax, de
    1938: 44 57 00     	cmpw ax, #87
    193b: 61 f8        	sknz
    193d: ee e4 04     	br $!0x1e24 <_strptime_l+0x5ee>
    1940: 15           	movw ax, de
    1941: 44 58 00     	cmpw ax, #88
    1944: 61 f8        	sknz
    1946: ee 15 05     	br $!0x1e5e <_strptime_l+0x628>
    1949: 15           	movw ax, de
    194a: 44 59 00     	cmpw ax, #89
    194d: 61 f8        	sknz
    194f: ee 54 05     	br $!0x1ea6 <_strptime_l+0x670>
    1952: 15           	movw ax, de
    1953: 44 5a 00     	cmpw ax, #90
    1956: c7           	push hl
    1957: c2           	pop bc
    1958: 61 f8        	sknz
    195a: ee 77 05     	br $!0x1ed4 <_strptime_l+0x69e>
    195d: 15           	movw ax, de
    195e: 44 61 00     	cmpw ax, #97
    1961: 61 f8        	sknz
    1963: ee c2 00     	br $!0x1a28 <_strptime_l+0x1f2>
    1966: 15           	movw ax, de
    1967: 44 62 00     	cmpw ax, #98
    196a: 61 f8        	sknz
    196c: ee e4 00     	br $!0x1a53 <_strptime_l+0x21d>
    196f: 15           	movw ax, de
    1970: 44 63 00     	cmpw ax, #99
    1973: 61 f8        	sknz
    1975: ee 17 01     	br $!0x1a8f <_strptime_l+0x259>
    1978: 15           	movw ax, de
    1979: 44 68 00     	cmpw ax, #104
    197c: 61 f8        	sknz
    197e: ee d2 00     	br $!0x1a53 <_strptime_l+0x21d>
    1981: 15           	movw ax, de
    1982: 44 6a 00     	cmpw ax, #106
    1985: 61 f8        	sknz
    1987: ee db 01     	br $!0x1b65 <_strptime_l+0x32f>
    198a: 15           	movw ax, de
    198b: 44 6b 00     	cmpw ax, #107
    198e: 61 f8        	sknz
    1990: ee 88 01     	br $!0x1b1b <_strptime_l+0x2e5>
    1993: 15           	movw ax, de
    1994: 44 6c 00     	cmpw ax, #108
    1997: 61 f8        	sknz
    1999: ee 9b 01     	br $!0x1b37 <_strptime_l+0x301>
    199c: 15           	movw ax, de
    199d: 44 6d 00     	cmpw ax, #109
    19a0: 61 f8        	sknz
    19a2: ee e6 01     	br $!0x1b8b <_strptime_l+0x355>
    19a5: 15           	movw ax, de
    19a6: 44 6e 00     	cmpw ax, #110
    19a9: 61 f8        	sknz
    19ab: ee 2e 02     	br $!0x1bdc <_strptime_l+0x3a6>
    19ae: 15           	movw ax, de
    19af: 44 70 00     	cmpw ax, #112
    19b2: 61 f8        	sknz
    19b4: ee 2e 02     	br $!0x1be5 <_strptime_l+0x3af>
    19b7: 15           	movw ax, de
    19b8: 44 71 00     	cmpw ax, #113
    19bb: 61 f8        	sknz
    19bd: ee 68 02     	br $!0x1c28 <_strptime_l+0x3f2>
    19c0: 15           	movw ax, de
    19c1: 44 72 00     	cmpw ax, #114
    19c4: 61 f8        	sknz
    19c6: ee 8e 02     	br $!0x1c57 <_strptime_l+0x421>
    19c9: 15           	movw ax, de
    19ca: 44 73 00     	cmpw ax, #115
    19cd: 61 f8        	sknz
    19cf: ee b0 02     	br $!0x1c82 <_strptime_l+0x44c>
    19d2: 15           	movw ax, de
    19d3: 44 74 00     	cmpw ax, #116
    19d6: 61 f8        	sknz
    19d8: ee 97 03     	br $!0x1d72 <_strptime_l+0x53c>
    19db: 15           	movw ax, de
    19dc: 44 75 00     	cmpw ax, #117
    19df: 61 f8        	sknz
    19e1: ee aa 03     	br $!0x1d8e <_strptime_l+0x558>
    19e4: 15           	movw ax, de
    19e5: 44 77 00     	cmpw ax, #119
    19e8: 61 f8        	sknz
    19ea: ee c0 03     	br $!0x1dad <_strptime_l+0x577>
    19ed: 15           	movw ax, de
    19ee: 44 78 00     	cmpw ax, #120
    19f1: 61 f8        	sknz
    19f3: ee 52 04     	br $!0x1e48 <_strptime_l+0x612>
    19f6: 15           	movw ax, de
    19f7: 44 41 00     	cmpw ax, #65
    19fa: 61 e8        	skz
    19fc: ee d9 04     	br $!0x1ed8 <_strptime_l+0x6a2>
    19ff: a8 1e        	movw ax, [sp+30]
    1a01: 14           	movw de, ax
    1a02: 32 34 64     	movw bc, #25652
    1a05: ae f8        	movw ax, sp
    1a07: 04 04 00     	addw ax, #4
    1a0a: fd f1 1f     	call !0x1ff1 <_match_string>
    1a0d: 71 fc        	mov1 cy, a.7
    1a0f: 61 d8        	sknc
    1a11: ee e2 04     	br $!0x1ef6 <_strptime_l+0x6c0>
    1a14: 35           	xchw ax, de
    1a15: a8 1c        	movw ax, [sp+28]
    1a17: 35           	xchw ax, de
    1a18: ba 0c        	movw [de+12], ax
    1a1a: a8 1a        	movw ax, [sp+26]
    1a1c: 08           	xch a, x
    1a1d: 6c 08        	or a, #8
    1a1f: 08           	xch a, x
    1a20: b8 1a        	movw [sp+26], ax
    1a22: a8 18        	movw ax, [sp+24]
    1a24: 12           	movw bc, ax
    1a25: ee ac 04     	br $!0x1ed4 <_strptime_l+0x69e>
    1a28: a8 1e        	movw ax, [sp+30]
    1a2a: 14           	movw de, ax
    1a2b: 32 26 64     	movw bc, #25638
    1a2e: ae f8        	movw ax, sp
    1a30: 04 04 00     	addw ax, #4
    1a33: ef d5        	br $0x1a0a <_strptime_l+0x1d4>
    1a35: a8 1e        	movw ax, [sp+30]
    1a37: 14           	movw de, ax
    1a38: 32 0e 64     	movw bc, #25614
    1a3b: ae f8        	movw ax, sp
    1a3d: 04 04 00     	addw ax, #4
    1a40: fd f1 1f     	call !0x1ff1 <_match_string>
    1a43: 71 fc        	mov1 cy, a.7
    1a45: 61 d8        	sknc
    1a47: ee ac 04     	br $!0x1ef6 <_strptime_l+0x6c0>
    1a4a: 35           	xchw ax, de
    1a4b: a8 1c        	movw ax, [sp+28]
    1a4d: 35           	xchw ax, de
    1a4e: ba 08        	movw [de+8], ax
    1a50: ee 5d 01     	br $!0x1bb0 <_strptime_l+0x37a>
    1a53: a8 1e        	movw ax, [sp+30]
    1a55: 14           	movw de, ax
    1a56: 32 f6 63     	movw bc, #25590
    1a59: ae f8        	movw ax, sp
    1a5b: 04 04 00     	addw ax, #4
    1a5e: ef e0        	br $0x1a40 <_strptime_l+0x20a>
    1a60: a8 04        	movw ax, [sp+4]
    1a62: 16           	movw hl, ax
    1a63: 37           	xchw ax, hl
    1a64: b8 20        	movw [sp+32], ax
    1a66: 37           	xchw ax, hl
    1a67: fd 99 21     	call !0x2199 <_OUTLINED_FUNCTION_1>
    1a6a: ae f8        	movw ax, sp
    1a6c: 04 06 00     	addw ax, #6
    1a6f: 12           	movw bc, ax
    1a70: 17           	movw ax, hl
    1a71: fd 06 32     	call !0x3206 <_strtol_l>
    1a74: fd 04 22     	call !0x2204 <_OUTLINED_FUNCTION_12>
    1a77: 61 f8        	sknz
    1a79: ee 7a 04     	br $!0x1ef6 <_strptime_l+0x6c0>
    1a7c: a8 1c        	movw ax, [sp+28]
    1a7e: 14           	movw de, ax
    1a7f: 13           	movw ax, bc
    1a80: 32 64 00     	movw bc, #100
    1a83: ce fb 01     	mulhu
    1a86: 04 94 f8     	addw ax, #63636
    1a89: ba 0a        	movw [de+10], ax
    1a8b: 17           	movw ax, hl
    1a8c: ee 0f 04     	br $!0x1e9e <_strptime_l+0x668>
    1a8f: a8 04        	movw ax, [sp+4]
    1a91: 16           	movw hl, ax
    1a92: db 46 64     	movw bc, !0xf6446               ; 0xf6446 <__frodata+0xefce8>
    1a95: a8 1e        	movw ax, [sp+30]
    1a97: b8 00        	movw [sp+0], ax
    1a99: a8 1c        	movw ax, [sp+28]
    1a9b: 14           	movw de, ax
    1a9c: 17           	movw ax, hl
    1a9d: fd 36 18     	call !0x1836 <_strptime_l>
    1aa0: 44 00 00     	cmpw ax, #0
    1aa3: 61 f8        	sknz
    1aa5: ee 4e 04     	br $!0x1ef6 <_strptime_l+0x6c0>
    1aa8: fd ed 21     	call !0x21ed <_OUTLINED_FUNCTION_9>
    1aab: 6c 0f        	or a, #15
    1aad: ee 6f ff     	br $!0x1a1f <_strptime_l+0x1e9>
    1ab0: a8 04        	movw ax, [sp+4]
    1ab2: 16           	movw hl, ax
    1ab3: 32 a4 61     	movw bc, #24996
    1ab6: a8 1e        	movw ax, [sp+30]
    1ab8: b8 00        	movw [sp+0], ax
    1aba: a8 1c        	movw ax, [sp+28]
    1abc: 14           	movw de, ax
    1abd: 17           	movw ax, hl
    1abe: fd 36 18     	call !0x1836 <_strptime_l>
    1ac1: 44 00 00     	cmpw ax, #0
    1ac4: 61 f8        	sknz
    1ac6: ee 2d 04     	br $!0x1ef6 <_strptime_l+0x6c0>
    1ac9: fd ed 21     	call !0x21ed <_OUTLINED_FUNCTION_9>
    1acc: 6c 07        	or a, #7
    1ace: ee 4e ff     	br $!0x1a1f <_strptime_l+0x1e9>
    1ad1: a8 04        	movw ax, [sp+4]
    1ad3: 16           	movw hl, ax
    1ad4: 37           	xchw ax, hl
    1ad5: b8 20        	movw [sp+32], ax
    1ad7: 37           	xchw ax, hl
    1ad8: fd 99 21     	call !0x2199 <_OUTLINED_FUNCTION_1>
    1adb: ae f8        	movw ax, sp
    1add: 04 06 00     	addw ax, #6
    1ae0: 12           	movw bc, ax
    1ae1: 17           	movw ax, hl
    1ae2: fd 06 32     	call !0x3206 <_strtol_l>
    1ae5: fd 8f 21     	call !0x218f <_OUTLINED_FUNCTION_0>
    1ae8: 61 f8        	sknz
    1aea: ee 09 04     	br $!0x1ef6 <_strptime_l+0x6c0>
    1aed: fd d2 21     	call !0x21d2 <_OUTLINED_FUNCTION_6>
    1af0: ba 06        	movw [de+6], ax
    1af2: 13           	movw ax, bc
    1af3: fd ed 21     	call !0x21ed <_OUTLINED_FUNCTION_9>
    1af6: 6c 01        	or a, #1
    1af8: ee 24 ff     	br $!0x1a1f <_strptime_l+0x1e9>
    1afb: a8 04        	movw ax, [sp+4]
    1afd: 16           	movw hl, ax
    1afe: 32 c4 61     	movw bc, #25028
    1b01: fd e5 21     	call !0x21e5 <_OUTLINED_FUNCTION_8>
    1b04: 37           	xchw ax, hl
    1b05: b8 20        	movw [sp+32], ax
    1b07: 37           	xchw ax, hl
    1b08: 17           	movw ax, hl
    1b09: fd 36 18     	call !0x1836 <_strptime_l>
    1b0c: 44 00 00     	cmpw ax, #0
    1b0f: 61 f8        	sknz
    1b11: ee e2 03     	br $!0x1ef6 <_strptime_l+0x6c0>
    1b14: 33           	xchw ax, bc
    1b15: a8 20        	movw ax, [sp+32]
    1b17: 33           	xchw ax, bc
    1b18: 43           	cmpw ax, bc
    1b19: ef a9        	br $0x1ac4 <_strptime_l+0x28e>
    1b1b: a8 04        	movw ax, [sp+4]
    1b1d: 16           	movw hl, ax
    1b1e: 37           	xchw ax, hl
    1b1f: b8 20        	movw [sp+32], ax
    1b21: 37           	xchw ax, hl
    1b22: fd 99 21     	call !0x2199 <_OUTLINED_FUNCTION_1>
    1b25: ae f8        	movw ax, sp
    1b27: 04 06 00     	addw ax, #6
    1b2a: 12           	movw bc, ax
    1b2b: 17           	movw ax, hl
    1b2c: fd 06 32     	call !0x3206 <_strtol_l>
    1b2f: fd 8f 21     	call !0x218f <_OUTLINED_FUNCTION_0>
    1b32: df 26        	bnz $0x1b5a <_strptime_l+0x324>
    1b34: ee bf 03     	br $!0x1ef6 <_strptime_l+0x6c0>
    1b37: a8 04        	movw ax, [sp+4]
    1b39: 16           	movw hl, ax
    1b3a: 37           	xchw ax, hl
    1b3b: b8 20        	movw [sp+32], ax
    1b3d: 37           	xchw ax, hl
    1b3e: fd 99 21     	call !0x2199 <_OUTLINED_FUNCTION_1>
    1b41: ae f8        	movw ax, sp
    1b43: 04 06 00     	addw ax, #6
    1b46: 12           	movw bc, ax
    1b47: 17           	movw ax, hl
    1b48: fd 06 32     	call !0x3206 <_strtol_l>
    1b4b: fd 8f 21     	call !0x218f <_OUTLINED_FUNCTION_0>
    1b4e: 61 f8        	sknz
    1b50: ee a3 03     	br $!0x1ef6 <_strptime_l+0x6c0>
    1b53: 15           	movw ax, de
    1b54: 44 0c 00     	cmpw ax, #12
    1b57: f6           	clrw ax
    1b58: 61 e8        	skz
    1b5a: 15           	movw ax, de
    1b5b: 35           	xchw ax, de
    1b5c: a8 1c        	movw ax, [sp+28]
    1b5e: 35           	xchw ax, de
    1b5f: ba 04        	movw [de+4], ax
    1b61: 13           	movw ax, bc
    1b62: ee 0d 01     	br $!0x1c72 <_strptime_l+0x43c>
    1b65: a8 04        	movw ax, [sp+4]
    1b67: 16           	movw hl, ax
    1b68: 37           	xchw ax, hl
    1b69: b8 20        	movw [sp+32], ax
    1b6b: 37           	xchw ax, hl
    1b6c: fd 99 21     	call !0x2199 <_OUTLINED_FUNCTION_1>
    1b6f: ae f8        	movw ax, sp
    1b71: 04 06 00     	addw ax, #6
    1b74: 12           	movw bc, ax
    1b75: 17           	movw ax, hl
    1b76: fd 06 32     	call !0x3206 <_strtol_l>
    1b79: fd 8f 21     	call !0x218f <_OUTLINED_FUNCTION_0>
    1b7c: 61 f8        	sknz
    1b7e: ee 75 03     	br $!0x1ef6 <_strptime_l+0x6c0>
    1b81: b5           	decw de
    1b82: fd d2 21     	call !0x21d2 <_OUTLINED_FUNCTION_6>
    1b85: ba 0e        	movw [de+14], ax
    1b87: 13           	movw ax, bc
    1b88: ee 6d 02     	br $!0x1df8 <_strptime_l+0x5c2>
    1b8b: a8 04        	movw ax, [sp+4]
    1b8d: 16           	movw hl, ax
    1b8e: 37           	xchw ax, hl
    1b8f: b8 20        	movw [sp+32], ax
    1b91: 37           	xchw ax, hl
    1b92: fd 99 21     	call !0x2199 <_OUTLINED_FUNCTION_1>
    1b95: ae f8        	movw ax, sp
    1b97: 04 06 00     	addw ax, #6
    1b9a: 12           	movw bc, ax
    1b9b: 17           	movw ax, hl
    1b9c: fd 06 32     	call !0x3206 <_strtol_l>
    1b9f: fd 8f 21     	call !0x218f <_OUTLINED_FUNCTION_0>
    1ba2: 61 f8        	sknz
    1ba4: ee 4f 03     	br $!0x1ef6 <_strptime_l+0x6c0>
    1ba7: b5           	decw de
    1ba8: fd d2 21     	call !0x21d2 <_OUTLINED_FUNCTION_6>
    1bab: ba 08        	movw [de+8], ax
    1bad: 13           	movw ax, bc
    1bae: b8 04        	movw [sp+4], ax
    1bb0: a8 1a        	movw ax, [sp+26]
    1bb2: 08           	xch a, x
    1bb3: 6c 02        	or a, #2
    1bb5: ee 67 fe     	br $!0x1a1f <_strptime_l+0x1e9>
    1bb8: a8 04        	movw ax, [sp+4]
    1bba: 16           	movw hl, ax
    1bbb: 37           	xchw ax, hl
    1bbc: b8 20        	movw [sp+32], ax
    1bbe: 37           	xchw ax, hl
    1bbf: fd 99 21     	call !0x2199 <_OUTLINED_FUNCTION_1>
    1bc2: ae f8        	movw ax, sp
    1bc4: 04 06 00     	addw ax, #6
    1bc7: 12           	movw bc, ax
    1bc8: 17           	movw ax, hl
    1bc9: fd 06 32     	call !0x3206 <_strtol_l>
    1bcc: fd 8f 21     	call !0x218f <_OUTLINED_FUNCTION_0>
    1bcf: 61 f8        	sknz
    1bd1: ee 22 03     	br $!0x1ef6 <_strptime_l+0x6c0>
    1bd4: fd d2 21     	call !0x21d2 <_OUTLINED_FUNCTION_6>
    1bd7: ba 02        	movw [de+2], ax
    1bd9: ee 85 ff     	br $!0x1b61 <_strptime_l+0x32b>
    1bdc: a8 04        	movw ax, [sp+4]
    1bde: 16           	movw hl, ax
    1bdf: 8b           	mov a, [hl]
    1be0: 4c 0a        	cmp a, #10
    1be2: ee 93 01     	br $!0x1d78 <_strptime_l+0x542>
    1be5: a8 1e        	movw ax, [sp+30]
    1be7: 14           	movw de, ax
    1be8: 32 48 64     	movw bc, #25672
    1beb: ae f8        	movw ax, sp
    1bed: 04 04 00     	addw ax, #4
    1bf0: fd f1 1f     	call !0x1ff1 <_match_string>
    1bf3: 12           	movw bc, ax
    1bf4: 71 fc        	mov1 cy, a.7
    1bf6: 61 d8        	sknc
    1bf8: ee fb 02     	br $!0x1ef6 <_strptime_l+0x6c0>
    1bfb: a8 1c        	movw ax, [sp+28]
    1bfd: 14           	movw de, ax
    1bfe: aa 04        	movw ax, [de+4]
    1c00: 44 00 00     	cmpw ax, #0
    1c03: df 1b        	bnz $0x1c20 <_strptime_l+0x3ea>
    1c05: a8 18        	movw ax, [sp+24]
    1c07: 16           	movw hl, ax
    1c08: 13           	movw ax, bc
    1c09: 44 01 00     	cmpw ax, #1
    1c0c: c7           	push hl
    1c0d: c2           	pop bc
    1c0e: 61 e8        	skz
    1c10: ee c1 02     	br $!0x1ed4 <_strptime_l+0x69e>
    1c13: a8 1c        	movw ax, [sp+28]
    1c15: 14           	movw de, ax
    1c16: 30 0c 00     	movw ax, #12
    1c19: ba 04        	movw [de+4], ax
    1c1b: c7           	push hl
    1c1c: c2           	pop bc
    1c1d: ee b4 02     	br $!0x1ed4 <_strptime_l+0x69e>
    1c20: 04 0c 00     	addw ax, #12
    1c23: ba 04        	movw [de+4], ax
    1c25: ee fa fd     	br $!0x1a22 <_strptime_l+0x1ec>
    1c28: a8 04        	movw ax, [sp+4]
    1c2a: 16           	movw hl, ax
    1c2b: 37           	xchw ax, hl
    1c2c: b8 20        	movw [sp+32], ax
    1c2e: 37           	xchw ax, hl
    1c2f: fd 99 21     	call !0x2199 <_OUTLINED_FUNCTION_1>
    1c32: ae f8        	movw ax, sp
    1c34: 04 06 00     	addw ax, #6
    1c37: 12           	movw bc, ax
    1c38: 17           	movw ax, hl
    1c39: fd 06 32     	call !0x3206 <_strtol_l>
    1c3c: fd 04 22     	call !0x2204 <_OUTLINED_FUNCTION_12>
    1c3f: 61 f8        	sknz
    1c41: ee b2 02     	br $!0x1ef6 <_strptime_l+0x6c0>
    1c44: a8 1c        	movw ax, [sp+28]
    1c46: 14           	movw de, ax
    1c47: 13           	movw ax, bc
    1c48: 32 03 00     	movw bc, #3
    1c4b: ce fb 01     	mulhu
    1c4e: 04 fd ff     	addw ax, #65533
    1c51: ba 08        	movw [de+8], ax
    1c53: 17           	movw ax, hl
    1c54: ee 57 ff     	br $!0x1bae <_strptime_l+0x378>
    1c57: a8 04        	movw ax, [sp+4]
    1c59: 16           	movw hl, ax
    1c5a: db 68 64     	movw bc, !0xf6468               ; 0xf6468 <__frodata+0xefd0a>
    1c5d: a8 1e        	movw ax, [sp+30]
    1c5f: b8 00        	movw [sp+0], ax
    1c61: a8 1c        	movw ax, [sp+28]
    1c63: 14           	movw de, ax
    1c64: 17           	movw ax, hl
    1c65: fd 36 18     	call !0x1836 <_strptime_l>
    1c68: 44 00 00     	cmpw ax, #0
    1c6b: b8 06        	movw [sp+6], ax
    1c6d: 61 f8        	sknz
    1c6f: ee 84 02     	br $!0x1ef6 <_strptime_l+0x6c0>
    1c72: b8 04        	movw [sp+4], ax
    1c74: ee ab fd     	br $!0x1a22 <_strptime_l+0x1ec>
    1c77: a8 04        	movw ax, [sp+4]
    1c79: 16           	movw hl, ax
    1c7a: 32 5a 62     	movw bc, #25178
    1c7d: fd e5 21     	call !0x21e5 <_OUTLINED_FUNCTION_8>
    1c80: ef e2        	br $0x1c64 <_strptime_l+0x42e>
    1c82: fd 78 2f     	call !0x2f78 <___errno>
    1c85: 16           	movw hl, ax
    1c86: ab           	movw ax, [hl]
    1c87: b8 26        	movw [sp+38], ax
    1c89: fd 78 2f     	call !0x2f78 <___errno>
    1c8c: 16           	movw hl, ax
    1c8d: f6           	clrw ax
    1c8e: bb           	movw [hl], ax
    1c8f: a8 04        	movw ax, [sp+4]
    1c91: 12           	movw bc, ax
    1c92: 33           	xchw ax, bc
    1c93: b8 1a        	movw [sp+26], ax
    1c95: 33           	xchw ax, bc
    1c96: a8 1e        	movw ax, [sp+30]
    1c98: b8 02        	movw [sp+2], ax
    1c9a: 30 0a 00     	movw ax, #10
    1c9d: b8 00        	movw [sp+0], ax
    1c9f: ae f8        	movw ax, sp
    1ca1: 04 06 00     	addw ax, #6
    1ca4: 14           	movw de, ax
    1ca5: ae f8        	movw ax, sp
    1ca7: 04 10 00     	addw ax, #16
    1caa: fd 31 25     	call !0x2531 <_strtoll_l>
    1cad: a8 16        	movw ax, [sp+22]
    1caf: b8 20        	movw [sp+32], ax
    1cb1: b8 0e        	movw [sp+14], ax
    1cb3: a8 14        	movw ax, [sp+20]
    1cb5: b8 22        	movw [sp+34], ax
    1cb7: b8 0c        	movw [sp+12], ax
    1cb9: a8 12        	movw ax, [sp+18]
    1cbb: 12           	movw bc, ax
    1cbc: b8 0a        	movw [sp+10], ax
    1cbe: a8 10        	movw ax, [sp+16]
    1cc0: b8 08        	movw [sp+8], ax
    1cc2: 14           	movw de, ax
    1cc3: a8 06        	movw ax, [sp+6]
    1cc5: 37           	xchw ax, hl
    1cc6: a8 1a        	movw ax, [sp+26]
    1cc8: 37           	xchw ax, hl
    1cc9: 47           	cmpw ax, hl
    1cca: 61 f8        	sknz
    1ccc: ee 27 02     	br $!0x1ef6 <_strptime_l+0x6c0>
    1ccf: 13           	movw ax, bc
    1cd0: b8 1a        	movw [sp+26], ax
    1cd2: 15           	movw ax, de
    1cd3: b8 24        	movw [sp+36], ax
    1cd5: fd 78 2f     	call !0x2f78 <___errno>
    1cd8: 33           	xchw ax, bc
    1cd9: a8 24        	movw ax, [sp+36]
    1cdb: 33           	xchw ax, bc
    1cdc: 16           	movw hl, ax
    1cdd: ab           	movw ax, [hl]
    1cde: 37           	xchw ax, hl
    1cdf: a8 1a        	movw ax, [sp+26]
    1ce1: 37           	xchw ax, hl
    1ce2: 44 00 00     	cmpw ax, #0
    1ce5: 61 e8        	skz
    1ce7: ee 0c 02     	br $!0x1ef6 <_strptime_l+0x6c0>
    1cea: a8 08        	movw ax, [sp+8]
    1cec: 61 7b        	xor a, b
    1cee: 08           	xch a, x
    1cef: 61 7a        	xor a, c
    1cf1: 08           	xch a, x
    1cf2: 14           	movw de, ax
    1cf3: a8 0c        	movw ax, [sp+12]
    1cf5: 33           	xchw ax, bc
    1cf6: a8 22        	movw ax, [sp+34]
    1cf8: 33           	xchw ax, bc
    1cf9: 61 7b        	xor a, b
    1cfb: 08           	xch a, x
    1cfc: 61 7a        	xor a, c
    1cfe: fd f3 21     	call !0x21f3 <_OUTLINED_FUNCTION_10>
    1d01: 14           	movw de, ax
    1d02: a8 0a        	movw ax, [sp+10]
    1d04: 61 7f        	xor a, h
    1d06: 08           	xch a, x
    1d07: 61 7e        	xor a, l
    1d09: 08           	xch a, x
    1d0a: 16           	movw hl, ax
    1d0b: a8 0e        	movw ax, [sp+14]
    1d0d: 33           	xchw ax, bc
    1d0e: a8 20        	movw ax, [sp+32]
    1d10: 33           	xchw ax, bc
    1d11: 61 7b        	xor a, b
    1d13: 08           	xch a, x
    1d14: 61 7a        	xor a, c
    1d16: 08           	xch a, x
    1d17: 12           	movw bc, ax
    1d18: 17           	movw ax, hl
    1d19: 61 6b        	or a, b
    1d1b: 08           	xch a, x
    1d1c: 61 6a        	or a, c
    1d1e: fd f3 21     	call !0x21f3 <_OUTLINED_FUNCTION_10>
    1d21: 44 00 00     	cmpw ax, #0
    1d24: 61 e8        	skz
    1d26: ee cd 01     	br $!0x1ef6 <_strptime_l+0x6c0>
    1d29: a8 1c        	movw ax, [sp+28]
    1d2b: 12           	movw bc, ax
    1d2c: ae f8        	movw ax, sp
    1d2e: 04 08 00     	addw ax, #8
    1d31: fd e9 25     	call !0x25e9 <_localtime_r>
    1d34: 33           	xchw ax, bc
    1d35: a8 1c        	movw ax, [sp+28]
    1d37: 33           	xchw ax, bc
    1d38: 43           	cmpw ax, bc
    1d39: 61 e8        	skz
    1d3b: ee b8 01     	br $!0x1ef6 <_strptime_l+0x6c0>
    1d3e: fd 78 2f     	call !0x2f78 <___errno>
    1d41: 16           	movw hl, ax
    1d42: a8 26        	movw ax, [sp+38]
    1d44: bb           	movw [hl], ax
    1d45: a8 06        	movw ax, [sp+6]
    1d47: b8 04        	movw [sp+4], ax
    1d49: 30 1f 00     	movw ax, #31
    1d4c: ee d1 fc     	br $!0x1a20 <_strptime_l+0x1ea>
    1d4f: a8 04        	movw ax, [sp+4]
    1d51: 16           	movw hl, ax
    1d52: 37           	xchw ax, hl
    1d53: b8 20        	movw [sp+32], ax
    1d55: 37           	xchw ax, hl
    1d56: fd 99 21     	call !0x2199 <_OUTLINED_FUNCTION_1>
    1d59: ae f8        	movw ax, sp
    1d5b: 04 06 00     	addw ax, #6
    1d5e: 12           	movw bc, ax
    1d5f: 17           	movw ax, hl
    1d60: fd 06 32     	call !0x3206 <_strtol_l>
    1d63: fd 8f 21     	call !0x218f <_OUTLINED_FUNCTION_0>
    1d66: 61 f8        	sknz
    1d68: ee 8b 01     	br $!0x1ef6 <_strptime_l+0x6c0>
    1d6b: fd d2 21     	call !0x21d2 <_OUTLINED_FUNCTION_6>
    1d6e: b9           	movw [de], ax
    1d6f: ee ef fd     	br $!0x1b61 <_strptime_l+0x32b>
    1d72: a8 04        	movw ax, [sp+4]
    1d74: 16           	movw hl, ax
    1d75: 8b           	mov a, [hl]
    1d76: 4c 09        	cmp a, #9
    1d78: 61 e8        	skz
    1d7a: ee 79 01     	br $!0x1ef6 <_strptime_l+0x6c0>
    1d7d: a7           	incw hl
    1d7e: 17           	movw ax, hl
    1d7f: ee f0 fe     	br $!0x1c72 <_strptime_l+0x43c>
    1d82: a8 04        	movw ax, [sp+4]
    1d84: 16           	movw hl, ax
    1d85: 32 b1 63     	movw bc, #25521
    1d88: fd e5 21     	call !0x21e5 <_OUTLINED_FUNCTION_8>
    1d8b: ee d6 fe     	br $!0x1c64 <_strptime_l+0x42e>
    1d8e: a8 04        	movw ax, [sp+4]
    1d90: 16           	movw hl, ax
    1d91: 37           	xchw ax, hl
    1d92: b8 20        	movw [sp+32], ax
    1d94: 37           	xchw ax, hl
    1d95: fd 99 21     	call !0x2199 <_OUTLINED_FUNCTION_1>
    1d98: ae f8        	movw ax, sp
    1d9a: 04 06 00     	addw ax, #6
    1d9d: 12           	movw bc, ax
    1d9e: 17           	movw ax, hl
    1d9f: fd 06 32     	call !0x3206 <_strtol_l>
    1da2: fd 8f 21     	call !0x218f <_OUTLINED_FUNCTION_0>
    1da5: 61 f8        	sknz
    1da7: ee 4c 01     	br $!0x1ef6 <_strptime_l+0x6c0>
    1daa: b5           	decw de
    1dab: ef 1c        	br $0x1dc9 <_strptime_l+0x593>
    1dad: a8 04        	movw ax, [sp+4]
    1daf: 16           	movw hl, ax
    1db0: 37           	xchw ax, hl
    1db1: b8 20        	movw [sp+32], ax
    1db3: 37           	xchw ax, hl
    1db4: fd 99 21     	call !0x2199 <_OUTLINED_FUNCTION_1>
    1db7: ae f8        	movw ax, sp
    1db9: 04 06 00     	addw ax, #6
    1dbc: 12           	movw bc, ax
    1dbd: 17           	movw ax, hl
    1dbe: fd 06 32     	call !0x3206 <_strtol_l>
    1dc1: fd 8f 21     	call !0x218f <_OUTLINED_FUNCTION_0>
    1dc4: 61 f8        	sknz
    1dc6: ee 2d 01     	br $!0x1ef6 <_strptime_l+0x6c0>
    1dc9: fd d2 21     	call !0x21d2 <_OUTLINED_FUNCTION_6>
    1dcc: ba 0c        	movw [de+12], ax
    1dce: 13           	movw ax, bc
    1dcf: b8 04        	movw [sp+4], ax
    1dd1: ee 46 fc     	br $!0x1a1a <_strptime_l+0x1e4>
    1dd4: a8 04        	movw ax, [sp+4]
    1dd6: 16           	movw hl, ax
    1dd7: 37           	xchw ax, hl
    1dd8: b8 20        	movw [sp+32], ax
    1dda: 37           	xchw ax, hl
    1ddb: fd 99 21     	call !0x2199 <_OUTLINED_FUNCTION_1>
    1dde: ae f8        	movw ax, sp
    1de0: 04 06 00     	addw ax, #6
    1de3: 12           	movw bc, ax
    1de4: 17           	movw ax, hl
    1de5: fd 06 32     	call !0x3206 <_strtol_l>
    1de8: fd ab 21     	call !0x21ab <_OUTLINED_FUNCTION_3>
    1deb: 61 f8        	sknz
    1ded: ee 06 01     	br $!0x1ef6 <_strptime_l+0x6c0>
    1df0: fd fd 21     	call !0x21fd <_OUTLINED_FUNCTION_11>
    1df3: fd 53 20     	call !0x2053 <_set_week_number_sun>
    1df6: a8 20        	movw ax, [sp+32]
    1df8: fd ed 21     	call !0x21ed <_OUTLINED_FUNCTION_9>
    1dfb: 6c 10        	or a, #16
    1dfd: ee 1f fc     	br $!0x1a1f <_strptime_l+0x1e9>
    1e00: a8 04        	movw ax, [sp+4]
    1e02: 16           	movw hl, ax
    1e03: 37           	xchw ax, hl
    1e04: b8 20        	movw [sp+32], ax
    1e06: 37           	xchw ax, hl
    1e07: fd 99 21     	call !0x2199 <_OUTLINED_FUNCTION_1>
    1e0a: ae f8        	movw ax, sp
    1e0c: 04 06 00     	addw ax, #6
    1e0f: 12           	movw bc, ax
    1e10: 17           	movw ax, hl
    1e11: fd 06 32     	call !0x3206 <_strtol_l>
    1e14: fd ab 21     	call !0x21ab <_OUTLINED_FUNCTION_3>
    1e17: 61 f8        	sknz
    1e19: ee da 00     	br $!0x1ef6 <_strptime_l+0x6c0>
    1e1c: fd fd 21     	call !0x21fd <_OUTLINED_FUNCTION_11>
    1e1f: fd 7e 20     	call !0x207e <_set_week_number_mon4>
    1e22: ef d2        	br $0x1df6 <_strptime_l+0x5c0>
    1e24: a8 04        	movw ax, [sp+4]
    1e26: 16           	movw hl, ax
    1e27: 37           	xchw ax, hl
    1e28: b8 20        	movw [sp+32], ax
    1e2a: 37           	xchw ax, hl
    1e2b: fd 99 21     	call !0x2199 <_OUTLINED_FUNCTION_1>
    1e2e: ae f8        	movw ax, sp
    1e30: 04 06 00     	addw ax, #6
    1e33: 12           	movw bc, ax
    1e34: 17           	movw ax, hl
    1e35: fd 06 32     	call !0x3206 <_strtol_l>
    1e38: fd ab 21     	call !0x21ab <_OUTLINED_FUNCTION_3>
    1e3b: 61 f8        	sknz
    1e3d: ee b6 00     	br $!0x1ef6 <_strptime_l+0x6c0>
    1e40: fd fd 21     	call !0x21fd <_OUTLINED_FUNCTION_11>
    1e43: fd c7 20     	call !0x20c7 <_set_week_number_mon>
    1e46: ef ae        	br $0x1df6 <_strptime_l+0x5c0>
    1e48: a8 04        	movw ax, [sp+4]
    1e4a: 16           	movw hl, ax
    1e4b: db 44 64     	movw bc, !0xf6444               ; 0xf6444 <__frodata+0xefce6>
    1e4e: a8 1e        	movw ax, [sp+30]
    1e50: b8 00        	movw [sp+0], ax
    1e52: a8 1c        	movw ax, [sp+28]
    1e54: 14           	movw de, ax
    1e55: 17           	movw ax, hl
    1e56: fd 36 18     	call !0x1836 <_strptime_l>
    1e59: b8 06        	movw [sp+6], ax
    1e5b: ee 63 fc     	br $!0x1ac1 <_strptime_l+0x28b>
    1e5e: a8 04        	movw ax, [sp+4]
    1e60: 16           	movw hl, ax
    1e61: db 42 64     	movw bc, !0xf6442               ; 0xf6442 <__frodata+0xefce4>
    1e64: a8 1e        	movw ax, [sp+30]
    1e66: b8 00        	movw [sp+0], ax
    1e68: ee f6 fd     	br $!0x1c61 <_strptime_l+0x42b>
    1e6b: a8 04        	movw ax, [sp+4]
    1e6d: 16           	movw hl, ax
    1e6e: 37           	xchw ax, hl
    1e6f: b8 20        	movw [sp+32], ax
    1e71: 37           	xchw ax, hl
    1e72: fd 99 21     	call !0x2199 <_OUTLINED_FUNCTION_1>
    1e75: ae f8        	movw ax, sp
    1e77: 04 06 00     	addw ax, #6
    1e7a: 12           	movw bc, ax
    1e7b: 17           	movw ax, hl
    1e7c: fd 06 32     	call !0x3206 <_strtol_l>
    1e7f: fd 8f 21     	call !0x218f <_OUTLINED_FUNCTION_0>
    1e82: 61 f8        	sknz
    1e84: ee 6f 00     	br $!0x1ef6 <_strptime_l+0x6c0>
    1e87: 15           	movw ax, de
    1e88: 04 64 00     	addw ax, #100
    1e8b: 16           	movw hl, ax
    1e8c: 15           	movw ax, de
    1e8d: 44 46 00     	cmpw ax, #70
    1e90: 71 ff        	xor1 cy, a.7
    1e92: dc 02        	bc $0x1e96 <_strptime_l+0x660>
    1e94: c5           	push de
    1e95: c6           	pop hl
    1e96: 17           	movw ax, hl
    1e97: 35           	xchw ax, de
    1e98: a8 1c        	movw ax, [sp+28]
    1e9a: 35           	xchw ax, de
    1e9b: ba 0a        	movw [de+10], ax
    1e9d: 13           	movw ax, bc
    1e9e: fd ed 21     	call !0x21ed <_OUTLINED_FUNCTION_9>
    1ea1: 6c 04        	or a, #4
    1ea3: ee 79 fb     	br $!0x1a1f <_strptime_l+0x1e9>
    1ea6: a8 04        	movw ax, [sp+4]
    1ea8: 16           	movw hl, ax
    1ea9: 37           	xchw ax, hl
    1eaa: b8 20        	movw [sp+32], ax
    1eac: 37           	xchw ax, hl
    1ead: fd 99 21     	call !0x2199 <_OUTLINED_FUNCTION_1>
    1eb0: ae f8        	movw ax, sp
    1eb2: 04 06 00     	addw ax, #6
    1eb5: 12           	movw bc, ax
    1eb6: 17           	movw ax, hl
    1eb7: fd 06 32     	call !0x3206 <_strtol_l>
    1eba: fd 8f 21     	call !0x218f <_OUTLINED_FUNCTION_0>
    1ebd: dd 37        	bz $0x1ef6 <_strptime_l+0x6c0>
    1ebf: 15           	movw ax, de
    1ec0: 04 94 f8     	addw ax, #63636
    1ec3: ef d2        	br $0x1e97 <_strptime_l+0x661>
    1ec5: b7           	decw hl
    1ec6: c7           	push hl
    1ec7: c2           	pop bc
    1ec8: a8 04        	movw ax, [sp+4]
    1eca: 16           	movw hl, ax
    1ecb: 8b           	mov a, [hl]
    1ecc: 4c 25        	cmp a, #37
    1ece: df 26        	bnz $0x1ef6 <_strptime_l+0x6c0>
    1ed0: a7           	incw hl
    1ed1: 17           	movw ax, hl
    1ed2: b8 04        	movw [sp+4], ax
    1ed4: a3           	incw bc
    1ed5: ee 6d f9     	br $!0x1845 <_strptime_l+0xf>
    1ed8: a8 04        	movw ax, [sp+4]
    1eda: 16           	movw hl, ax
    1edb: 8b           	mov a, [hl]
    1edc: 4c 25        	cmp a, #37
    1ede: 61 f8        	sknz
    1ee0: ee 9a fe     	br $!0x1d7d <_strptime_l+0x547>
    1ee3: c7           	push hl
    1ee4: c2           	pop bc
    1ee5: a3           	incw bc
    1ee6: a8 20        	movw ax, [sp+32]
    1ee8: 4e 01        	cmp a, [hl+1]
    1eea: c3           	push bc
    1eeb: c6           	pop hl
    1eec: ee 89 fe     	br $!0x1d78 <_strptime_l+0x542>
    1eef: a8 04        	movw ax, [sp+4]
    1ef1: 16           	movw hl, ax
    1ef2: 64           	mov a, e
    1ef3: 4d           	cmp a, [hl]
    1ef4: dd da        	bz $0x1ed0 <_strptime_l+0x69a>
    1ef6: f6           	clrw ax
    1ef7: ee f4 00     	br $!0x1fee <_strptime_l+0x7b8>
    1efa: a8 1a        	movw ax, [sp+26]
    1efc: 16           	movw hl, ax
    1efd: 17           	movw ax, hl
    1efe: 08           	xch a, x
    1eff: 5c 07        	and a, #7
    1f01: 08           	xch a, x
    1f02: f1           	clrb a
    1f03: 44 07 00     	cmpw ax, #7
    1f06: df 42        	bnz $0x1f4a <_strptime_l+0x714>
    1f08: a8 1c        	movw ax, [sp+28]
    1f0a: 14           	movw de, ax
    1f0b: 66           	mov a, l
    1f0c: 71 cc        	mov1 cy, a.4
    1f0e: 61 d8        	sknc
    1f10: ee b6 00     	br $!0x1fc9 <_strptime_l+0x793>
    1f13: fd b5 21     	call !0x21b5 <_OUTLINED_FUNCTION_4>
    1f16: aa 06        	movw ax, [de+6]
    1f18: 61 09 00     	addw ax, [hl]
    1f1b: b8 1e        	movw [sp+30], ax
    1f1d: 35           	xchw ax, de
    1f1e: a8 1c        	movw ax, [sp+28]
    1f20: 35           	xchw ax, de
    1f21: ba 0e        	movw [de+14], ax
    1f23: a8 1c        	movw ax, [sp+28]
    1f25: 16           	movw hl, ax
    1f26: 30 6c 07     	movw ax, #1900
    1f29: 61 09 0a     	addw ax, [hl+10]
    1f2c: fd 1c 21     	call !0x211c <_is_leap_year>
    1f2f: fd d8 21     	call !0x21d8 <_OUTLINED_FUNCTION_7>
    1f32: 61 d3 06     	bnh $0x1f3b <_strptime_l+0x705>
    1f35: 13           	movw ax, bc
    1f36: 44 00 00     	cmpw ax, #0
    1f39: df 05        	bnz $0x1f40 <_strptime_l+0x70a>
    1f3b: a8 1e        	movw ax, [sp+30]
    1f3d: b1           	decw ax
    1f3e: ba 0e        	movw [de+14], ax
    1f40: a8 1a        	movw ax, [sp+26]
    1f42: 08           	xch a, x
    1f43: 6c 10        	or a, #16
    1f45: 08           	xch a, x
    1f46: 16           	movw hl, ax
    1f47: ee 7f 00     	br $!0x1fc9 <_strptime_l+0x793>
    1f4a: a8 1c        	movw ax, [sp+28]
    1f4c: 14           	movw de, ax
    1f4d: 17           	movw ax, hl
    1f4e: 08           	xch a, x
    1f4f: 5c 14        	and a, #20
    1f51: 08           	xch a, x
    1f52: f1           	clrb a
    1f53: 44 14 00     	cmpw ax, #20
    1f56: 61 e8        	skz
    1f58: ee 6e 00     	br $!0x1fc9 <_strptime_l+0x793>
    1f5b: 66           	mov a, l
    1f5c: 31 13 3f     	bt a.1, $0x1f9e <_strptime_l+0x768>
    1f5f: f7           	clrw bc
    1f60: aa 0e        	movw ax, [de+14]
    1f62: 44 1f 00     	cmpw ax, #31
    1f65: 71 ff        	xor1 cy, a.7
    1f67: dc 32        	bc $0x1f9b <_strptime_l+0x765>
    1f69: b8 18        	movw [sp+24], ax
    1f6b: c5           	push de
    1f6c: c6           	pop hl
    1f6d: fd c4 21     	call !0x21c4 <_OUTLINED_FUNCTION_5>
    1f70: 14           	movw de, ax
    1f71: 32 02 00     	movw bc, #2
    1f74: 13           	movw ax, bc
    1f75: 44 0c 00     	cmpw ax, #12
    1f78: dd 1d        	bz $0x1f97 <_strptime_l+0x761>
    1f7a: 36 de 63     	movw hl, #25566
    1f7d: 13           	movw ax, bc
    1f7e: 01           	addw ax, ax
    1f7f: 07           	addw ax, hl
    1f80: 16           	movw hl, ax
    1f81: 15           	movw ax, de
    1f82: 61 09 00     	addw ax, [hl]
    1f85: 16           	movw hl, ax
    1f86: a8 18        	movw ax, [sp+24]
    1f88: 47           	cmpw ax, hl
    1f89: 71 ff        	xor1 cy, a.7
    1f8b: 67           	mov a, h
    1f8c: 37           	xchw ax, hl
    1f8d: a8 1a        	movw ax, [sp+26]
    1f8f: 37           	xchw ax, hl
    1f90: 71 ff        	xor1 cy, a.7
    1f92: dc 03        	bc $0x1f97 <_strptime_l+0x761>
    1f94: a3           	incw bc
    1f95: ef dd        	br $0x1f74 <_strptime_l+0x73e>
    1f97: a8 1c        	movw ax, [sp+28]
    1f99: 14           	movw de, ax
    1f9a: b3           	decw bc
    1f9b: 13           	movw ax, bc
    1f9c: ba 08        	movw [de+8], ax
    1f9e: 66           	mov a, l
    1f9f: 31 03 27     	bt a.0, $0x1fc9 <_strptime_l+0x793>
    1fa2: fd b5 21     	call !0x21b5 <_OUTLINED_FUNCTION_4>
    1fa5: aa 0e        	movw ax, [de+14]
    1fa7: 61 29 00     	subw ax, [hl]
    1faa: b8 1e        	movw [sp+30], ax
    1fac: 35           	xchw ax, de
    1fad: a8 1c        	movw ax, [sp+28]
    1faf: 35           	xchw ax, de
    1fb0: ba 06        	movw [de+6], ax
    1fb2: a8 1c        	movw ax, [sp+28]
    1fb4: 16           	movw hl, ax
    1fb5: fd c4 21     	call !0x21c4 <_OUTLINED_FUNCTION_5>
    1fb8: fd d8 21     	call !0x21d8 <_OUTLINED_FUNCTION_7>
    1fbb: 61 d3 06     	bnh $0x1fc4 <_strptime_l+0x78e>
    1fbe: 13           	movw ax, bc
    1fbf: 44 00 00     	cmpw ax, #0
    1fc2: df 05        	bnz $0x1fc9 <_strptime_l+0x793>
    1fc4: a8 1e        	movw ax, [sp+30]
    1fc6: a1           	incw ax
    1fc7: ba 06        	movw [de+6], ax
    1fc9: 17           	movw ax, hl
    1fca: 08           	xch a, x
    1fcb: 5c 1c        	and a, #28
    1fcd: 08           	xch a, x
    1fce: f1           	clrb a
    1fcf: 44 14 00     	cmpw ax, #20
    1fd2: df 18        	bnz $0x1fec <_strptime_l+0x7b6>
    1fd4: c5           	push de
    1fd5: c6           	pop hl
    1fd6: fd a1 21     	call !0x21a1 <_OUTLINED_FUNCTION_2>
    1fd9: 37           	xchw ax, hl
    1fda: a8 1c        	movw ax, [sp+28]
    1fdc: 37           	xchw ax, hl
    1fdd: 61 09 0e     	addw ax, [hl+14]
    1fe0: 32 07 00     	movw bc, #7
    1fe3: fd 1f 0a     	call !0xa1f <___modhi3>
    1fe6: 35           	xchw ax, de
    1fe7: a8 1c        	movw ax, [sp+28]
    1fe9: 35           	xchw ax, de
    1fea: ba 0c        	movw [de+12], ax
    1fec: a8 04        	movw ax, [sp+4]
    1fee: 10 28        	addw sp, #40
    1ff0: d7           	ret

00001ff1 <_match_string>:
    1ff1: 20 0e        	subw sp, #14
    1ff3: 35           	xchw ax, de
    1ff4: b8 0c        	movw [sp+12], ax
    1ff6: 35           	xchw ax, de
    1ff7: 33           	xchw ax, bc
    1ff8: b8 08        	movw [sp+8], ax
    1ffa: 33           	xchw ax, bc
    1ffb: f7           	clrw bc
    1ffc: b8 0a        	movw [sp+10], ax
    1ffe: a8 08        	movw ax, [sp+8]
    2000: 14           	movw de, ax
    2001: 13           	movw ax, bc
    2002: 01           	addw ax, ax
    2003: 05           	addw ax, de
    2004: 16           	movw hl, ax
    2005: ab           	movw ax, [hl]
    2006: 44 00 00     	cmpw ax, #0
    2009: df 04        	bnz $0x200f <_match_string+0x1e>
    200b: f6           	clrw ax
    200c: b1           	decw ax
    200d: ef 3b        	br $0x204a <_match_string+0x59>
    200f: 33           	xchw ax, bc
    2010: b8 02        	movw [sp+2], ax
    2012: 33           	xchw ax, bc
    2013: 37           	xchw ax, hl
    2014: b8 06        	movw [sp+6], ax
    2016: 37           	xchw ax, hl
    2017: fd 16 06     	call !0x616 <_strlen>
    201a: 35           	xchw ax, de
    201b: a8 0a        	movw ax, [sp+10]
    201d: 35           	xchw ax, de
    201e: 12           	movw bc, ax
    201f: a9           	movw ax, [de]
    2020: b8 04        	movw [sp+4], ax
    2022: a8 06        	movw ax, [sp+6]
    2024: 16           	movw hl, ax
    2025: ab           	movw ax, [hl]
    2026: 16           	movw hl, ax
    2027: a8 0c        	movw ax, [sp+12]
    2029: b8 00        	movw [sp+0], ax
    202b: 33           	xchw ax, bc
    202c: b8 06        	movw [sp+6], ax
    202e: 33           	xchw ax, bc
    202f: c3           	push bc
    2030: c4           	pop de
    2031: c7           	push hl
    2032: c2           	pop bc
    2033: a8 04        	movw ax, [sp+4]
    2035: fd 7c 2f     	call !0x2f7c <_strncasecmp_l>
    2038: 44 00 00     	cmpw ax, #0
    203b: df 10        	bnz $0x204d <_match_string+0x5c>
    203d: a8 0a        	movw ax, [sp+10]
    203f: 14           	movw de, ax
    2040: c5           	push de
    2041: c6           	pop hl
    2042: a8 06        	movw ax, [sp+6]
    2044: 61 09 00     	addw ax, [hl]
    2047: b9           	movw [de], ax
    2048: a8 02        	movw ax, [sp+2]
    204a: 10 0e        	addw sp, #14
    204c: d7           	ret
    204d: a8 02        	movw ax, [sp+2]
    204f: 12           	movw bc, ax
    2050: a3           	incw bc
    2051: ef ab        	br $0x1ffe <_match_string+0xd>

00002053 <_set_week_number_sun>:
    2053: 20 04        	subw sp, #4
    2055: 33           	xchw ax, bc
    2056: b8 00        	movw [sp+0], ax
    2058: 33           	xchw ax, bc
    2059: b8 02        	movw [sp+2], ax
    205b: 16           	movw hl, ax
    205c: fd a1 21     	call !0x21a1 <_OUTLINED_FUNCTION_2>
    205f: 14           	movw de, ax
    2060: 32 07 00     	movw bc, #7
    2063: a8 00        	movw ax, [sp+0]
    2065: 37           	xchw ax, hl
    2066: a8 02        	movw ax, [sp+2]
    2068: 37           	xchw ax, hl
    2069: ce fb 01     	mulhu
    206c: 25           	subw ax, de
    206d: 61 09 0c     	addw ax, [hl+12]
    2070: bc 0e        	movw [hl+14], ax
    2072: 31 75 06     	bf a.7, $0x207b <_set_week_number_sun+0x28>
    2075: f6           	clrw ax
    2076: bc 0e        	movw [hl+14], ax
    2078: 15           	movw ax, de
    2079: bc 0c        	movw [hl+12], ax
    207b: 10 04        	addw sp, #4
    207d: d7           	ret

0000207e <_set_week_number_mon4>:
    207e: 20 04        	subw sp, #4
    2080: 33           	xchw ax, bc
    2081: b8 02        	movw [sp+2], ax
    2083: 33           	xchw ax, bc
    2084: b8 00        	movw [sp+0], ax
    2086: 16           	movw hl, ax
    2087: 30 6c 07     	movw ax, #1900
    208a: 61 09 0a     	addw ax, [hl+10]
    208d: fd 4f 21     	call !0x214f <_first_day>
    2090: 12           	movw bc, ax
    2091: 04 06 00     	addw ax, #6
    2094: 14           	movw de, ax
    2095: 44 07 00     	cmpw ax, #7
    2098: dc 03        	bc $0x209d <_set_week_number_mon4+0x1f>
    209a: b3           	decw bc
    209b: c3           	push bc
    209c: c4           	pop de
    209d: 32 07 00     	movw bc, #7
    20a0: a8 02        	movw ax, [sp+2]
    20a2: ce fb 01     	mulhu
    20a5: 12           	movw bc, ax
    20a6: 04 f9 ff     	addw ax, #65529
    20a9: 16           	movw hl, ax
    20aa: 15           	movw ax, de
    20ab: 44 04 00     	cmpw ax, #4
    20ae: dc 02        	bc $0x20b2 <_set_week_number_mon4+0x34>
    20b0: c7           	push hl
    20b1: c2           	pop bc
    20b2: a8 00        	movw ax, [sp+0]
    20b4: 16           	movw hl, ax
    20b5: ac 0c        	movw ax, [hl+12]
    20b7: 25           	subw ax, de
    20b8: 03           	addw ax, bc
    20b9: bc 0e        	movw [hl+14], ax
    20bb: 31 75 06     	bf a.7, $0x20c4 <_set_week_number_mon4+0x46>
    20be: f6           	clrw ax
    20bf: bc 0e        	movw [hl+14], ax
    20c1: 15           	movw ax, de
    20c2: bc 0c        	movw [hl+12], ax
    20c4: 10 04        	addw sp, #4
    20c6: d7           	ret

000020c7 <_set_week_number_mon>:
    20c7: 20 06        	subw sp, #6
    20c9: 33           	xchw ax, bc
    20ca: b8 04        	movw [sp+4], ax
    20cc: 33           	xchw ax, bc
    20cd: b8 00        	movw [sp+0], ax
    20cf: 16           	movw hl, ax
    20d0: fd a1 21     	call !0x21a1 <_OUTLINED_FUNCTION_2>
    20d3: b8 02        	movw [sp+2], ax
    20d5: 32 07 00     	movw bc, #7
    20d8: a8 04        	movw ax, [sp+4]
    20da: ce fb 01     	mulhu
    20dd: b8 04        	movw [sp+4], ax
    20df: a8 00        	movw ax, [sp+0]
    20e1: 16           	movw hl, ax
    20e2: 30 06 00     	movw ax, #6
    20e5: 61 09 0c     	addw ax, [hl+12]
    20e8: 32 07 00     	movw bc, #7
    20eb: fd 1f 0a     	call !0xa1f <___modhi3>
    20ee: 33           	xchw ax, bc
    20ef: a8 04        	movw ax, [sp+4]
    20f1: 33           	xchw ax, bc
    20f2: 34 07 00     	movw de, #7
    20f5: 03           	addw ax, bc
    20f6: 12           	movw bc, ax
    20f7: a8 02        	movw ax, [sp+2]
    20f9: 37           	xchw ax, hl
    20fa: a8 00        	movw ax, [sp+0]
    20fc: 37           	xchw ax, hl
    20fd: 04 06 00     	addw ax, #6
    2100: ce fb 03     	divhu
    2103: 00           	nop
    2104: 13           	movw ax, bc
    2105: 25           	subw ax, de
    2106: bc 0e        	movw [hl+14], ax
    2108: 31 75 0e     	bf a.7, $0x2119 <_set_week_number_mon+0x52>
    210b: a5           	incw de
    210c: f6           	clrw ax
    210d: bc 0e        	movw [hl+14], ax
    210f: 15           	movw ax, de
    2110: 44 07 00     	cmpw ax, #7
    2113: f6           	clrw ax
    2114: 61 e8        	skz
    2116: 15           	movw ax, de
    2117: bc 0c        	movw [hl+12], ax
    2119: 10 06        	addw sp, #6
    211b: d7           	ret

0000211c <_is_leap_year>:
    211c: c1           	push ax
    211d: 14           	movw de, ax
    211e: f7           	clrw bc
    211f: 08           	xch a, x
    2120: 5c 03        	and a, #3
    2122: 08           	xch a, x
    2123: f1           	clrb a
    2124: 44 00 00     	cmpw ax, #0
    2127: df 23        	bnz $0x214c <_is_leap_year+0x30>
    2129: 32 64 00     	movw bc, #100
    212c: 35           	xchw ax, de
    212d: b8 00        	movw [sp+0], ax
    212f: 35           	xchw ax, de
    2130: 15           	movw ax, de
    2131: fd 1f 0a     	call !0xa1f <___modhi3>
    2134: 35           	xchw ax, de
    2135: a8 00        	movw ax, [sp+0]
    2137: 35           	xchw ax, de
    2138: e7           	onew bc
    2139: 44 00 00     	cmpw ax, #0
    213c: df 0e        	bnz $0x214c <_is_leap_year+0x30>
    213e: 32 90 01     	movw bc, #400
    2141: 15           	movw ax, de
    2142: fd 1f 0a     	call !0xa1f <___modhi3>
    2145: 44 00 00     	cmpw ax, #0
    2148: e7           	onew bc
    2149: 61 e8        	skz
    214b: f7           	clrw bc
    214c: 13           	movw ax, bc
    214d: c6           	pop hl
    214e: d7           	ret

0000214f <_first_day>:
    214f: 20 04        	subw sp, #4
    2151: 12           	movw bc, ax
    2152: 34 04 00     	movw de, #4
    2155: 13           	movw ax, bc
    2156: 44 b3 07     	cmpw ax, #1971
    2159: 71 ff        	xor1 cy, a.7
    215b: dc 21        	bc $0x217e <_first_day+0x2f>
    215d: b3           	decw bc
    215e: 33           	xchw ax, bc
    215f: b8 00        	movw [sp+0], ax
    2161: 33           	xchw ax, bc
    2162: 15           	movw ax, de
    2163: b8 02        	movw [sp+2], ax
    2165: 13           	movw ax, bc
    2166: fd 1c 21     	call !0x211c <_is_leap_year>
    2169: 33           	xchw ax, bc
    216a: a8 00        	movw ax, [sp+0]
    216c: 33           	xchw ax, bc
    216d: 35           	xchw ax, de
    216e: a8 02        	movw ax, [sp+2]
    2170: 35           	xchw ax, de
    2171: 05           	addw ax, de
    2172: 34 07 00     	movw de, #7
    2175: 04 6d 01     	addw ax, #365
    2178: ce fb 03     	divhu
    217b: 00           	nop
    217c: ef d7        	br $0x2155 <_first_day+0x6>
    217e: 15           	movw ax, de
    217f: 10 04        	addw sp, #4
    2181: d7           	ret

00002182 <_strptime>:
    2182: c1           	push ax
    2183: 16           	movw hl, ax
    2184: 30 00 ef     	movw ax, #61184
    2187: b8 00        	movw [sp+0], ax
    2189: 17           	movw ax, hl
    218a: fd 36 18     	call !0x1836 <_strptime_l>
    218d: c6           	pop hl
    218e: d7           	ret

0000218f <_OUTLINED_FUNCTION_0>:
    218f: 14           	movw de, ax
    2190: a8 0a        	movw ax, [sp+10]
    2192: 37           	xchw ax, hl
    2193: a8 24        	movw ax, [sp+36]
    2195: 37           	xchw ax, hl
    2196: 12           	movw bc, ax
    2197: 47           	cmpw ax, hl
    2198: d7           	ret

00002199 <_OUTLINED_FUNCTION_1>:
    2199: 34 0a 00     	movw de, #10
    219c: a8 22        	movw ax, [sp+34]
    219e: b8 04        	movw [sp+4], ax
    21a0: d7           	ret

000021a1 <_OUTLINED_FUNCTION_2>:
    21a1: 30 6c 07     	movw ax, #1900
    21a4: 61 09 0a     	addw ax, [hl+10]
    21a7: fd 4f 21     	call !0x214f <_first_day>
    21aa: d7           	ret

000021ab <_OUTLINED_FUNCTION_3>:
    21ab: 12           	movw bc, ax
    21ac: a8 0a        	movw ax, [sp+10]
    21ae: 37           	xchw ax, hl
    21af: a8 24        	movw ax, [sp+36]
    21b1: 37           	xchw ax, hl
    21b2: 14           	movw de, ax
    21b3: 47           	cmpw ax, hl
    21b4: d7           	ret

000021b5 <_OUTLINED_FUNCTION_4>:
    21b5: 32 de 63     	movw bc, #25566
    21b8: aa 08        	movw ax, [de+8]
    21ba: b8 1c        	movw [sp+28], ax
    21bc: 35           	xchw ax, de
    21bd: a8 20        	movw ax, [sp+32]
    21bf: 35           	xchw ax, de
    21c0: 01           	addw ax, ax
    21c1: 03           	addw ax, bc
    21c2: 16           	movw hl, ax
    21c3: d7           	ret

000021c4 <_OUTLINED_FUNCTION_5>:
    21c4: 30 6c 07     	movw ax, #1900
    21c7: 61 09 0a     	addw ax, [hl+10]
    21ca: fd 1c 21     	call !0x211c <_is_leap_year>
    21cd: 37           	xchw ax, hl
    21ce: a8 1e        	movw ax, [sp+30]
    21d0: 37           	xchw ax, hl
    21d1: d7           	ret

000021d2 <_OUTLINED_FUNCTION_6>:
    21d2: 15           	movw ax, de
    21d3: 35           	xchw ax, de
    21d4: a8 20        	movw ax, [sp+32]
    21d6: 35           	xchw ax, de
    21d7: d7           	ret

000021d8 <_OUTLINED_FUNCTION_7>:
    21d8: 35           	xchw ax, de
    21d9: a8 20        	movw ax, [sp+32]
    21db: 35           	xchw ax, de
    21dc: 12           	movw bc, ax
    21dd: a8 1c        	movw ax, [sp+28]
    21df: 44 01 00     	cmpw ax, #1
    21e2: 71 ff        	xor1 cy, a.7
    21e4: d7           	ret

000021e5 <_OUTLINED_FUNCTION_8>:
    21e5: a8 22        	movw ax, [sp+34]
    21e7: b8 04        	movw [sp+4], ax
    21e9: a8 20        	movw ax, [sp+32]
    21eb: 14           	movw de, ax
    21ec: d7           	ret

000021ed <_OUTLINED_FUNCTION_9>:
    21ed: b8 08        	movw [sp+8], ax
    21ef: a8 1e        	movw ax, [sp+30]
    21f1: 08           	xch a, x
    21f2: d7           	ret

000021f3 <_OUTLINED_FUNCTION_10>:
    21f3: 08           	xch a, x
    21f4: 12           	movw bc, ax
    21f5: 15           	movw ax, de
    21f6: 61 6b        	or a, b
    21f8: 08           	xch a, x
    21f9: 61 6a        	or a, c
    21fb: 08           	xch a, x
    21fc: d7           	ret

000021fd <_OUTLINED_FUNCTION_11>:
    21fd: a8 20        	movw ax, [sp+32]
    21ff: 35           	xchw ax, de
    2200: b8 24        	movw [sp+36], ax
    2202: 35           	xchw ax, de
    2203: d7           	ret

00002204 <_OUTLINED_FUNCTION_12>:
    2204: 12           	movw bc, ax
    2205: a8 0a        	movw ax, [sp+10]
    2207: 35           	xchw ax, de
    2208: a8 24        	movw ax, [sp+36]
    220a: 35           	xchw ax, de
    220b: 16           	movw hl, ax
    220c: 45           	cmpw ax, de
    220d: d7           	ret

0000220e <__strtoll_r>:
    220e: 20 06        	subw sp, #6
    2210: 16           	movw hl, ax
    2211: 37           	xchw ax, hl
    2212: b8 04        	movw [sp+4], ax
    2214: 37           	xchw ax, hl
    2215: a8 0c        	movw ax, [sp+12]
    2217: b8 02        	movw [sp+2], ax
    2219: a8 0a        	movw ax, [sp+10]
    221b: b8 00        	movw [sp+0], ax
    221d: 17           	movw ax, hl
    221e: fd 26 22     	call !0x2226 <__strtoll_l>
    2221: a8 04        	movw ax, [sp+4]
    2223: 10 06        	addw sp, #6
    2225: d7           	ret

00002226 <__strtoll_l>:
    2226: 20 56        	subw sp, #86
    2228: 33           	xchw ax, bc
    2229: b8 52        	movw [sp+82], ax
    222b: 33           	xchw ax, bc
    222c: b8 4c        	movw [sp+76], ax
    222e: a8 5c        	movw ax, [sp+92]
    2230: b8 2a        	movw [sp+42], ax
    2232: a8 5a        	movw ax, [sp+90]
    2234: b8 48        	movw [sp+72], ax
    2236: 35           	xchw ax, de
    2237: b8 4e        	movw [sp+78], ax
    2239: 35           	xchw ax, de
    223a: 15           	movw ax, de
    223b: 14           	movw de, ax
    223c: 36 f5 65     	movw hl, #26101
    223f: a1           	incw ax
    2240: b8 28        	movw [sp+40], ax
    2242: 89           	mov a, [de]
    2243: 72           	mov c, a
    2244: f1           	clrb a
    2245: 73           	mov b, a
    2246: 13           	movw ax, bc
    2247: 07           	addw ax, hl
    2248: 16           	movw hl, ax
    2249: a8 28        	movw ax, [sp+40]
    224b: 31 b3 ed     	bt [hl].3, $0x223b <__strtoll_l+0x15>
    224e: 62           	mov a, c
    224f: 4c 2d        	cmp a, #45
    2251: dd 07        	bz $0x225a <__strtoll_l+0x34>
    2253: 62           	mov a, c
    2254: 4c 2b        	cmp a, #43
    2256: c3           	push bc
    2257: c6           	pop hl
    2258: df 0a        	bnz $0x2264 <__strtoll_l+0x3e>
    225a: 15           	movw ax, de
    225b: a1           	incw ax
    225c: a1           	incw ax
    225d: b8 28        	movw [sp+40], ax
    225f: 8a 01        	mov a, [de+1]
    2261: 76           	mov l, a
    2262: f1           	clrb a
    2263: 77           	mov h, a
    2264: a8 2a        	movw ax, [sp+42]
    2266: 08           	xch a, x
    2267: 6c 10        	or a, #16
    2269: 08           	xch a, x
    226a: 44 10 00     	cmpw ax, #16
    226d: df 2e        	bnz $0x229d <__strtoll_l+0x77>
    226f: 17           	movw ax, hl
    2270: 44 30 00     	cmpw ax, #48
    2273: df 28        	bnz $0x229d <__strtoll_l+0x77>
    2275: a8 28        	movw ax, [sp+40]
    2277: 14           	movw de, ax
    2278: c5           	push de
    2279: c6           	pop hl
    227a: 51 20        	mov a, #32
    227c: 6d           	or a, [hl]
    227d: 4c 78        	cmp a, #120
    227f: dd 0a        	bz $0x228b <__strtoll_l+0x65>
    2281: fd b2 25     	call !0x25b2 <_OUTLINED_FUNCTION_8>
    2284: dd 2a        	bz $0x22b0 <__strtoll_l+0x8a>
    2286: 34 00 00     	movw de, #0
    2289: ef 25        	br $0x22b0 <__strtoll_l+0x8a>
    228b: 30 10 00     	movw ax, #16
    228e: b8 2a        	movw [sp+42], ax
    2290: 15           	movw ax, de
    2291: a1           	incw ax
    2292: a1           	incw ax
    2293: 16           	movw hl, ax
    2294: 8a 01        	mov a, [de+1]
    2296: 37           	xchw ax, hl
    2297: b8 28        	movw [sp+40], ax
    2299: 37           	xchw ax, hl
    229a: 31 8e        	shrw ax, 8
    229c: 16           	movw hl, ax
    229d: fd b2 25     	call !0x25b2 <_OUTLINED_FUNCTION_8>
    22a0: 61 e8        	skz
    22a2: 34 00 00     	movw de, #0
    22a5: 30 0a 00     	movw ax, #10
    22a8: b8 44        	movw [sp+68], ax
    22aa: 17           	movw ax, hl
    22ab: 44 30 00     	cmpw ax, #48
    22ae: df 08        	bnz $0x22b8 <__strtoll_l+0x92>
    22b0: 36 30 00     	movw hl, #48
    22b3: 30 08 00     	movw ax, #8
    22b6: b8 44        	movw [sp+68], ax
    22b8: 64           	mov a, e
    22b9: 31 03 04     	bt a.0, $0x22c0 <__strtoll_l+0x9a>
    22bc: a8 2a        	movw ax, [sp+42]
    22be: b8 44        	movw [sp+68], ax
    22c0: 62           	mov a, c
    22c1: 4c 2d        	cmp a, #45
    22c3: 30 00 80     	movw ax, #32768
    22c6: 61 e8        	skz
    22c8: 30 ff 7f     	movw ax, #32767
    22cb: 37           	xchw ax, hl
    22cc: b8 30        	movw [sp+48], ax
    22ce: 37           	xchw ax, hl
    22cf: b8 54        	movw [sp+84], ax
    22d1: b8 06        	movw [sp+6], ax
    22d3: 08           	xch a, x
    22d4: 62           	mov a, c
    22d5: 08           	xch a, x
    22d6: b8 50        	movw [sp+80], ax
    22d8: 62           	mov a, c
    22d9: 4c 2d        	cmp a, #45
    22db: f6           	clrw ax
    22dc: dd 02        	bz $0x22e0 <__strtoll_l+0xba>
    22de: f6           	clrw ax
    22df: b1           	decw ax
    22e0: b8 4a        	movw [sp+74], ax
    22e2: b8 04        	movw [sp+4], ax
    22e4: b8 02        	movw [sp+2], ax
    22e6: fd a9 25     	call !0x25a9 <_OUTLINED_FUNCTION_7>
    22e9: b8 2a        	movw [sp+42], ax
    22eb: fd 9b 25     	call !0x259b <_OUTLINED_FUNCTION_5>
    22ee: ae f8        	movw ax, sp
    22f0: 04 10 00     	addw ax, #16
    22f3: fd 14 07     	call !0x714 <___udivdi3>
    22f6: a8 2a        	movw ax, [sp+42]
    22f8: fd 9b 25     	call !0x259b <_OUTLINED_FUNCTION_5>
    22fb: a8 44        	movw ax, [sp+68]
    22fd: b8 08        	movw [sp+8], ax
    22ff: a8 16        	movw ax, [sp+22]
    2301: b8 38        	movw [sp+56], ax
    2303: b8 06        	movw [sp+6], ax
    2305: a8 14        	movw ax, [sp+20]
    2307: b8 3c        	movw [sp+60], ax
    2309: b8 04        	movw [sp+4], ax
    230b: a8 12        	movw ax, [sp+18]
    230d: b8 3e        	movw [sp+62], ax
    230f: b8 02        	movw [sp+2], ax
    2311: a8 10        	movw ax, [sp+16]
    2313: b8 40        	movw [sp+64], ax
    2315: b8 00        	movw [sp+0], ax
    2317: ae f8        	movw ax, sp
    2319: 04 18 00     	addw ax, #24
    231c: fd 86 09     	call !0x986 <___muldi3>
    231f: 34 00 00     	movw de, #0
    2322: f6           	clrw ax
    2323: b8 32        	movw [sp+50], ax
    2325: a8 18        	movw ax, [sp+24]
    2327: 12           	movw bc, ax
    2328: a8 4a        	movw ax, [sp+74]
    232a: 23           	subw ax, bc
    232b: b8 46        	movw [sp+70], ax
    232d: f6           	clrw ax
    232e: b8 2e        	movw [sp+46], ax
    2330: b8 2c        	movw [sp+44], ax
    2332: b8 2a        	movw [sp+42], ax
    2334: a8 30        	movw ax, [sp+48]
    2336: 12           	movw bc, ax
    2337: 13           	movw ax, bc
    2338: 04 d0 ff     	addw ax, #65488
    233b: 44 0a 00     	cmpw ax, #10
    233e: dc 20        	bc $0x2360 <__strtoll_l+0x13a>
    2340: 13           	movw ax, bc
    2341: 04 bf ff     	addw ax, #65471
    2344: 44 19 00     	cmpw ax, #25
    2347: 61 c3 06     	bh $0x2350 <__strtoll_l+0x12a>
    234a: 13           	movw ax, bc
    234b: 04 c9 ff     	addw ax, #65481
    234e: ef 10        	br $0x2360 <__strtoll_l+0x13a>
    2350: 13           	movw ax, bc
    2351: 04 9f ff     	addw ax, #65439
    2354: 44 19 00     	cmpw ax, #25
    2357: 61 f3        	sknh
    2359: ee 62 01     	br $!0x24be <__strtoll_l+0x298>
    235c: 13           	movw ax, bc
    235d: 04 a9 ff     	addw ax, #65449
    2360: b8 42        	movw [sp+66], ax
    2362: 35           	xchw ax, de
    2363: b8 30        	movw [sp+48], ax
    2365: a8 44        	movw ax, [sp+68]
    2367: fd 8f 25     	call !0x258f <_OUTLINED_FUNCTION_4>
    236a: 61 c8        	skc
    236c: ee 4f 01     	br $!0x24be <__strtoll_l+0x298>
    236f: f6           	clrw ax
    2370: b1           	decw ax
    2371: b8 3a        	movw [sp+58], ax
    2373: a8 32        	movw ax, [sp+50]
    2375: fd 70 25     	call !0x2570 <_OUTLINED_FUNCTION_2>
    2378: 71 fc        	mov1 cy, a.7
    237a: 61 d8        	sknc
    237c: ee 19 01     	br $!0x2498 <__strtoll_l+0x272>
    237f: a8 40        	movw ax, [sp+64]
    2381: 12           	movw bc, ax
    2382: 15           	movw ax, de
    2383: 43           	cmpw ax, bc
    2384: e6           	onew ax
    2385: 61 e3        	skh
    2387: f6           	clrw ax
    2388: b8 32        	movw [sp+50], ax
    238a: a8 2e        	movw ax, [sp+46]
    238c: 33           	xchw ax, bc
    238d: a8 3e        	movw ax, [sp+62]
    238f: 33           	xchw ax, bc
    2390: 43           	cmpw ax, bc
    2391: e7           	onew bc
    2392: 61 e3        	skh
    2394: f7           	clrw bc
    2395: a8 2e        	movw ax, [sp+46]
    2397: 35           	xchw ax, de
    2398: a8 3e        	movw ax, [sp+62]
    239a: 35           	xchw ax, de
    239b: 45           	cmpw ax, de
    239c: dd 03        	bz $0x23a1 <__strtoll_l+0x17b>
    239e: 13           	movw ax, bc
    239f: b8 32        	movw [sp+50], ax
    23a1: 36 01 00     	movw hl, #1
    23a4: a8 2c        	movw ax, [sp+44]
    23a6: 33           	xchw ax, bc
    23a7: a8 3c        	movw ax, [sp+60]
    23a9: 33           	xchw ax, bc
    23aa: 43           	cmpw ax, bc
    23ab: 61 e3        	skh
    23ad: 36 00 00     	movw hl, #0
    23b0: a8 2a        	movw ax, [sp+42]
    23b2: 33           	xchw ax, bc
    23b3: a8 38        	movw ax, [sp+56]
    23b5: 33           	xchw ax, bc
    23b6: 43           	cmpw ax, bc
    23b7: e7           	onew bc
    23b8: 61 e3        	skh
    23ba: f7           	clrw bc
    23bb: a8 2a        	movw ax, [sp+42]
    23bd: 35           	xchw ax, de
    23be: a8 38        	movw ax, [sp+56]
    23c0: 35           	xchw ax, de
    23c1: 45           	cmpw ax, de
    23c2: dd 02        	bz $0x23c6 <__strtoll_l+0x1a0>
    23c4: c3           	push bc
    23c5: c6           	pop hl
    23c6: a8 2c        	movw ax, [sp+44]
    23c8: 33           	xchw ax, bc
    23c9: a8 3c        	movw ax, [sp+60]
    23cb: fd 59 25     	call !0x2559 <_OUTLINED_FUNCTION_1>
    23ce: fd a2 25     	call !0x25a2 <_OUTLINED_FUNCTION_6>
    23d1: 44 00 00     	cmpw ax, #0
    23d4: a8 32        	movw ax, [sp+50]
    23d6: 61 e8        	skz
    23d8: 17           	movw ax, hl
    23d9: 35           	xchw ax, de
    23da: a8 30        	movw ax, [sp+48]
    23dc: 35           	xchw ax, de
    23dd: 60           	mov a, x
    23de: fd 70 25     	call !0x2570 <_OUTLINED_FUNCTION_2>
    23e1: 71 8c        	mov1 cy, a.0
    23e3: 61 d8        	sknc
    23e5: ee b0 00     	br $!0x2498 <__strtoll_l+0x272>
    23e8: a8 40        	movw ax, [sp+64]
    23ea: 12           	movw bc, ax
    23eb: 15           	movw ax, de
    23ec: 61 7b        	xor a, b
    23ee: 08           	xch a, x
    23ef: 61 7a        	xor a, c
    23f1: 08           	xch a, x
    23f2: 14           	movw de, ax
    23f3: a8 2c        	movw ax, [sp+44]
    23f5: 33           	xchw ax, bc
    23f6: a8 3c        	movw ax, [sp+60]
    23f8: 33           	xchw ax, bc
    23f9: 61 7b        	xor a, b
    23fb: 08           	xch a, x
    23fc: 61 7a        	xor a, c
    23fe: 08           	xch a, x
    23ff: 12           	movw bc, ax
    2400: 15           	movw ax, de
    2401: fd a2 25     	call !0x25a2 <_OUTLINED_FUNCTION_6>
    2404: 16           	movw hl, ax
    2405: a8 2e        	movw ax, [sp+46]
    2407: 33           	xchw ax, bc
    2408: a8 3e        	movw ax, [sp+62]
    240a: fd 59 25     	call !0x2559 <_OUTLINED_FUNCTION_1>
    240d: 35           	xchw ax, de
    240e: a8 30        	movw ax, [sp+48]
    2410: 35           	xchw ax, de
    2411: fd a2 25     	call !0x25a2 <_OUTLINED_FUNCTION_6>
    2414: 12           	movw bc, ax
    2415: 17           	movw ax, hl
    2416: 61 6b        	or a, b
    2418: 08           	xch a, x
    2419: 61 6a        	or a, c
    241b: 33           	xchw ax, bc
    241c: a8 28        	movw ax, [sp+40]
    241e: 33           	xchw ax, bc
    241f: 08           	xch a, x
    2420: 44 00 00     	cmpw ax, #0
    2423: df 1e        	bnz $0x2443 <__strtoll_l+0x21d>
    2425: f6           	clrw ax
    2426: b1           	decw ax
    2427: b8 3a        	movw [sp+58], ax
    2429: a8 42        	movw ax, [sp+66]
    242b: 35           	xchw ax, de
    242c: a8 46        	movw ax, [sp+70]
    242e: fd 8f 25     	call !0x258f <_OUTLINED_FUNCTION_4>
    2431: a8 40        	movw ax, [sp+64]
    2433: b8 32        	movw [sp+50], ax
    2435: a8 3e        	movw ax, [sp+62]
    2437: b8 34        	movw [sp+52], ax
    2439: a8 3c        	movw ax, [sp+60]
    243b: b8 36        	movw [sp+54], ax
    243d: a8 38        	movw ax, [sp+56]
    243f: 16           	movw hl, ax
    2440: 61 c3 55     	bh $0x2498 <__strtoll_l+0x272>
    2443: 15           	movw ax, de
    2444: fd a9 25     	call !0x25a9 <_OUTLINED_FUNCTION_7>
    2447: fd 9b 25     	call !0x259b <_OUTLINED_FUNCTION_5>
    244a: a8 2e        	movw ax, [sp+46]
    244c: b8 02        	movw [sp+2], ax
    244e: a8 2c        	movw ax, [sp+44]
    2450: b8 04        	movw [sp+4], ax
    2452: a8 2a        	movw ax, [sp+42]
    2454: b8 06        	movw [sp+6], ax
    2456: ae f8        	movw ax, sp
    2458: 04 20 00     	addw ax, #32
    245b: fd 86 09     	call !0x986 <___muldi3>
    245e: a8 20        	movw ax, [sp+32]
    2460: 14           	movw de, ax
    2461: a8 22        	movw ax, [sp+34]
    2463: 16           	movw hl, ax
    2464: a8 24        	movw ax, [sp+36]
    2466: b8 2c        	movw [sp+44], ax
    2468: a8 26        	movw ax, [sp+38]
    246a: b8 2a        	movw [sp+42], ax
    246c: a8 42        	movw ax, [sp+66]
    246e: 12           	movw bc, ax
    246f: 15           	movw ax, de
    2470: 03           	addw ax, bc
    2471: b8 32        	movw [sp+50], ax
    2473: 17           	movw ax, hl
    2474: 08           	xch a, x
    2475: 1c 00        	addc a, #0
    2477: 08           	xch a, x
    2478: 1c 00        	addc a, #0
    247a: b8 34        	movw [sp+52], ax
    247c: a8 2c        	movw ax, [sp+44]
    247e: 08           	xch a, x
    247f: 1c 00        	addc a, #0
    2481: 08           	xch a, x
    2482: 1c 00        	addc a, #0
    2484: 14           	movw de, ax
    2485: de 05        	bnc $0x248c <__strtoll_l+0x266>
    2487: a8 2a        	movw ax, [sp+42]
    2489: a1           	incw ax
    248a: b8 2a        	movw [sp+42], ax
    248c: e6           	onew ax
    248d: b8 3a        	movw [sp+58], ax
    248f: a8 28        	movw ax, [sp+40]
    2491: 12           	movw bc, ax
    2492: a8 2a        	movw ax, [sp+42]
    2494: 16           	movw hl, ax
    2495: 15           	movw ax, de
    2496: b8 36        	movw [sp+54], ax
    2498: c3           	push bc
    2499: c4           	pop de
    249a: a3           	incw bc
    249b: 89           	mov a, [de]
    249c: 33           	xchw ax, bc
    249d: b8 28        	movw [sp+40], ax
    249f: 33           	xchw ax, bc
    24a0: 35           	xchw ax, de
    24a1: a8 32        	movw ax, [sp+50]
    24a3: 35           	xchw ax, de
    24a4: 33           	xchw ax, bc
    24a5: a8 34        	movw ax, [sp+52]
    24a7: 33           	xchw ax, bc
    24a8: 31 8e        	shrw ax, 8
    24aa: 33           	xchw ax, bc
    24ab: b8 2e        	movw [sp+46], ax
    24ad: a8 36        	movw ax, [sp+54]
    24af: b8 2c        	movw [sp+44], ax
    24b1: 33           	xchw ax, bc
    24b2: 37           	xchw ax, hl
    24b3: b8 2a        	movw [sp+42], ax
    24b5: 37           	xchw ax, hl
    24b6: 12           	movw bc, ax
    24b7: a8 3a        	movw ax, [sp+58]
    24b9: b8 32        	movw [sp+50], ax
    24bb: ee 79 fe     	br $!0x2337 <__strtoll_l+0x111>
    24be: a8 32        	movw ax, [sp+50]
    24c0: 31 75 17     	bf a.7, $0x24da <__strtoll_l+0x2b4>
    24c3: a8 52        	movw ax, [sp+82]
    24c5: 16           	movw hl, ax
    24c6: 30 22 00     	movw ax, #34
    24c9: bb           	movw [hl], ax
    24ca: a8 4a        	movw ax, [sp+74]
    24cc: b8 2e        	movw [sp+46], ax
    24ce: b8 2c        	movw [sp+44], ax
    24d0: 14           	movw de, ax
    24d1: a8 54        	movw ax, [sp+84]
    24d3: b8 2a        	movw [sp+42], ax
    24d5: a8 28        	movw ax, [sp+40]
    24d7: 12           	movw bc, ax
    24d8: ef 29        	br $0x2503 <__strtoll_l+0x2dd>
    24da: a8 50        	movw ax, [sp+80]
    24dc: 33           	xchw ax, bc
    24dd: a8 28        	movw ax, [sp+40]
    24df: 33           	xchw ax, bc
    24e0: 60           	mov a, x
    24e1: 4c 2d        	cmp a, #45
    24e3: df 1e        	bnz $0x2503 <__strtoll_l+0x2dd>
    24e5: f6           	clrw ax
    24e6: 25           	subw ax, de
    24e7: 35           	xchw ax, de
    24e8: a8 2e        	movw ax, [sp+46]
    24ea: 35           	xchw ax, de
    24eb: 16           	movw hl, ax
    24ec: fd 87 25     	call !0x2587 <_OUTLINED_FUNCTION_3>
    24ef: b8 2e        	movw [sp+46], ax
    24f1: a8 2c        	movw ax, [sp+44]
    24f3: 14           	movw de, ax
    24f4: fd 87 25     	call !0x2587 <_OUTLINED_FUNCTION_3>
    24f7: b8 2c        	movw [sp+44], ax
    24f9: a8 2a        	movw ax, [sp+42]
    24fb: 14           	movw de, ax
    24fc: fd 87 25     	call !0x2587 <_OUTLINED_FUNCTION_3>
    24ff: c7           	push hl
    2500: c4           	pop de
    2501: b8 2a        	movw [sp+42], ax
    2503: a8 48        	movw ax, [sp+72]
    2505: 44 00 00     	cmpw ax, #0
    2508: dd 12        	bz $0x251c <__strtoll_l+0x2f6>
    250a: a8 32        	movw ax, [sp+50]
    250c: 44 00 00     	cmpw ax, #0
    250f: dd 04        	bz $0x2515 <__strtoll_l+0x2ef>
    2511: b3           	decw bc
    2512: 13           	movw ax, bc
    2513: b8 4e        	movw [sp+78], ax
    2515: a8 4e        	movw ax, [sp+78]
    2517: 37           	xchw ax, hl
    2518: a8 48        	movw ax, [sp+72]
    251a: 37           	xchw ax, hl
    251b: bb           	movw [hl], ax
    251c: a8 4c        	movw ax, [sp+76]
    251e: 16           	movw hl, ax
    251f: 15           	movw ax, de
    2520: bb           	movw [hl], ax
    2521: a8 2e        	movw ax, [sp+46]
    2523: bc 02        	movw [hl+2], ax
    2525: a8 2c        	movw ax, [sp+44]
    2527: bc 04        	movw [hl+4], ax
    2529: a8 2a        	movw ax, [sp+42]
    252b: bc 06        	movw [hl+6], ax
    252d: 17           	movw ax, hl
    252e: 10 56        	addw sp, #86
    2530: d7           	ret

00002531 <_strtoll_l>:
    2531: 20 08        	subw sp, #8
    2533: fd 39 25     	call !0x2539 <_OUTLINED_FUNCTION_0>
    2536: 10 08        	addw sp, #8
    2538: d7           	ret

00002539 <_OUTLINED_FUNCTION_0>:
    2539: 20 04        	subw sp, #4
    253b: 16           	movw hl, ax
    253c: 13           	movw ax, bc
    253d: b8 0c        	movw [sp+12], ax
    253f: 37           	xchw ax, hl
    2540: b8 0e        	movw [sp+14], ax
    2542: 37           	xchw ax, hl
    2543: db 64 f3     	movw bc, !0xff364               ; 0xff364 <__impure_ptr>
    2546: a8 14        	movw ax, [sp+20]
    2548: b8 02        	movw [sp+2], ax
    254a: 15           	movw ax, de
    254b: b8 00        	movw [sp+0], ax
    254d: a8 0c        	movw ax, [sp+12]
    254f: 14           	movw de, ax
    2550: 17           	movw ax, hl
    2551: fd 26 22     	call !0x2226 <__strtoll_l>
    2554: a8 0e        	movw ax, [sp+14]
    2556: 10 04        	addw sp, #4
    2558: d7           	ret

00002559 <_OUTLINED_FUNCTION_1>:
    2559: 33           	xchw ax, bc
    255a: 61 7b        	xor a, b
    255c: 08           	xch a, x
    255d: 61 7a        	xor a, c
    255f: 08           	xch a, x
    2560: 14           	movw de, ax
    2561: a8 2e        	movw ax, [sp+46]
    2563: 33           	xchw ax, bc
    2564: a8 3c        	movw ax, [sp+60]
    2566: 33           	xchw ax, bc
    2567: 61 7b        	xor a, b
    2569: 08           	xch a, x
    256a: 61 7a        	xor a, c
    256c: 08           	xch a, x
    256d: 12           	movw bc, ax
    256e: 15           	movw ax, de
    256f: d7           	ret

00002570 <_OUTLINED_FUNCTION_2>:
    2570: 35           	xchw ax, de
    2571: b8 36        	movw [sp+54], ax
    2573: 35           	xchw ax, de
    2574: 33           	xchw ax, bc
    2575: a8 32        	movw ax, [sp+50]
    2577: b8 38        	movw [sp+56], ax
    2579: a8 30        	movw ax, [sp+48]
    257b: b8 3a        	movw [sp+58], ax
    257d: 33           	xchw ax, bc
    257e: 37           	xchw ax, hl
    257f: a8 2e        	movw ax, [sp+46]
    2581: 37           	xchw ax, hl
    2582: 33           	xchw ax, bc
    2583: a8 2c        	movw ax, [sp+44]
    2585: 33           	xchw ax, bc
    2586: d7           	ret

00002587 <_OUTLINED_FUNCTION_3>:
    2587: f6           	clrw ax
    2588: 08           	xch a, x
    2589: 61 3c        	subc a, e
    258b: 08           	xch a, x
    258c: 61 3d        	subc a, d
    258e: d7           	ret

0000258f <_OUTLINED_FUNCTION_4>:
    258f: 35           	xchw ax, de
    2590: 45           	cmpw ax, de
    2591: 71 ff        	xor1 cy, a.7
    2593: 65           	mov a, d
    2594: 35           	xchw ax, de
    2595: a8 34        	movw ax, [sp+52]
    2597: 35           	xchw ax, de
    2598: 71 ff        	xor1 cy, a.7
    259a: d7           	ret

0000259b <_OUTLINED_FUNCTION_5>:
    259b: b8 12        	movw [sp+18], ax
    259d: b8 10        	movw [sp+16], ax
    259f: b8 0e        	movw [sp+14], ax
    25a1: d7           	ret

000025a2 <_OUTLINED_FUNCTION_6>:
    25a2: 61 6b        	or a, b
    25a4: 08           	xch a, x
    25a5: 61 6a        	or a, c
    25a7: 08           	xch a, x
    25a8: d7           	ret

000025a9 <_OUTLINED_FUNCTION_7>:
    25a9: b8 04        	movw [sp+4], ax
    25ab: a8 48        	movw ax, [sp+72]
    25ad: b8 0c        	movw [sp+12], ax
    25af: 31 ff        	sarw ax, 15
    25b1: d7           	ret

000025b2 <_OUTLINED_FUNCTION_8>:
    25b2: 34 01 00     	movw de, #1
    25b5: a8 2e        	movw ax, [sp+46]
    25b7: 44 00 00     	cmpw ax, #0
    25ba: d7           	ret

000025bb <___locale_mb_cur_max>:
    25bb: 8f 0a f0     	mov a, !0xff00a                 ; 0xff00a <__datastart+0x10a>
    25be: 31 8f        	sarw ax, 8
    25c0: d7           	ret

000025c1 <___ascii_mbtowc>:
    25c1: c5           	push de
    25c2: c6           	pop hl
    25c3: a8 04        	movw ax, [sp+4]
    25c5: 14           	movw de, ax
    25c6: 17           	movw ax, hl
    25c7: 44 00 00     	cmpw ax, #0
    25ca: dd 1b        	bz $0x25e7 <___ascii_mbtowc+0x26>
    25cc: 15           	movw ax, de
    25cd: 44 00 00     	cmpw ax, #0
    25d0: df 04        	bnz $0x25d6 <___ascii_mbtowc+0x15>
    25d2: 30 fe ff     	movw ax, #65534
    25d5: d7           	ret
    25d6: 13           	movw ax, bc
    25d7: 44 00 00     	cmpw ax, #0
    25da: dd 06        	bz $0x25e2 <___ascii_mbtowc+0x21>
    25dc: 8b           	mov a, [hl]
    25dd: 31 8e        	shrw ax, 8
    25df: c3           	push bc
    25e0: c4           	pop de
    25e1: b9           	movw [de], ax
    25e2: 8b           	mov a, [hl]
    25e3: d1           	cmp0 a
    25e4: e6           	onew ax
    25e5: 61 f8        	sknz
    25e7: f6           	clrw ax
    25e8: d7           	ret

000025e9 <_localtime_r>:
    25e9: 20 16        	subw sp, #22
    25eb: 33           	xchw ax, bc
    25ec: b8 04        	movw [sp+4], ax
    25ee: 33           	xchw ax, bc
    25ef: b8 08        	movw [sp+8], ax
    25f1: fd 2a 2a     	call !0x2a2a <___gettzinfo>
    25f4: b8 06        	movw [sp+6], ax
    25f6: a8 04        	movw ax, [sp+4]
    25f8: 12           	movw bc, ax
    25f9: a8 08        	movw ax, [sp+8]
    25fb: fd 2e 2a     	call !0x2a2e <_gmtime_r>
    25fe: b8 04        	movw [sp+4], ax
    2600: 14           	movw de, ax
    2601: aa 0a        	movw ax, [de+10]
    2603: 12           	movw bc, ax
    2604: 04 6c 07     	addw ax, #1900
    2607: b8 0a        	movw [sp+10], ax
    2609: 13           	movw ax, bc
    260a: fd 1a 2a     	call !0x2a1a <_OUTLINED_FUNCTION_8>
    260d: df 0e        	bnz $0x261d <_localtime_r+0x34>
    260f: 32 64 00     	movw bc, #100
    2612: a8 0a        	movw ax, [sp+10]
    2614: fd 1f 0a     	call !0xa1f <___modhi3>
    2617: e7           	onew bc
    2618: 44 00 00     	cmpw ax, #0
    261b: df 0c        	bnz $0x2629 <_localtime_r+0x40>
    261d: 32 90 01     	movw bc, #400
    2620: a8 0a        	movw ax, [sp+10]
    2622: fd 23 2a     	call !0x2a23 <_OUTLINED_FUNCTION_9>
    2625: e7           	onew bc
    2626: 61 e8        	skz
    2628: f7           	clrw bc
    2629: 13           	movw ax, bc
    262a: b8 0c        	movw [sp+12], ax
    262c: fd 44 32     	call !0x3244 <___tz_lock>
    262f: fd ca 2c     	call !0x2cca <__tzset_unlocked>
    2632: af 80 f4     	movw ax, !0xff480               ; 0xff480 <__daylight>
    2635: 44 00 00     	cmpw ax, #0
    2638: df 0e        	bnz $0x2648 <_localtime_r+0x5f>
    263a: f6           	clrw ax
    263b: fd 02 2a     	call !0x2a02 <_OUTLINED_FUNCTION_5>
    263e: bc 10        	movw [hl+16], ax
    2640: a8 06        	movw ax, [sp+6]
    2642: 04 16 00     	addw ax, #22
    2645: ee 7c 01     	br $!0x27c4 <_localtime_r+0x1db>
    2648: a8 06        	movw ax, [sp+6]
    264a: 16           	movw hl, ax
    264b: a8 0a        	movw ax, [sp+10]
    264d: 61 49 02     	cmpw ax, [hl+2]
    2650: dd 0c        	bz $0x265e <_localtime_r+0x75>
    2652: fd d0 2c     	call !0x2cd0 <___tzcalc_limits>
    2655: 44 00 00     	cmpw ax, #0
    2658: df 04        	bnz $0x265e <_localtime_r+0x75>
    265a: f6           	clrw ax
    265b: b1           	decw ax
    265c: ef dd        	br $0x263b <_localtime_r+0x52>
    265e: a8 06        	movw ax, [sp+6]
    2660: 14           	movw de, ax
    2661: a9           	movw ax, [de]
    2662: 44 00 00     	cmpw ax, #0
    2665: 61 f8        	sknz
    2667: ee 93 00     	br $!0x26fd <_localtime_r+0x114>
    266a: fd f2 29     	call !0x29f2 <_OUTLINED_FUNCTION_4>
    266d: 61 d8        	sknc
    266f: 34 00 00     	movw de, #0
    2672: fd da 29     	call !0x29da <_OUTLINED_FUNCTION_2>
    2675: 61 d8        	sknc
    2677: 36 00 00     	movw hl, #0
    267a: a8 0e        	movw ax, [sp+14]
    267c: 43           	cmpw ax, bc
    267d: dd 02        	bz $0x2681 <_localtime_r+0x98>
    267f: c5           	push de
    2680: c6           	pop hl
    2681: fd 9b 29     	call !0x299b <_OUTLINED_FUNCTION_0>
    2684: 61 d8        	sknc
    2686: 36 00 00     	movw hl, #0
    2689: a8 0a        	movw ax, [sp+10]
    268b: 43           	cmpw ax, bc
    268c: e6           	onew ax
    268d: 61 d8        	sknc
    268f: f6           	clrw ax
    2690: b8 12        	movw [sp+18], ax
    2692: a8 08        	movw ax, [sp+8]
    2694: 45           	cmpw ax, de
    2695: dd 03        	bz $0x269a <_localtime_r+0xb1>
    2697: 17           	movw ax, hl
    2698: b8 12        	movw [sp+18], ax
    269a: fd bd 29     	call !0x29bd <_OUTLINED_FUNCTION_1>
    269d: 61 e8        	skz
    269f: a8 12        	movw ax, [sp+18]
    26a1: 37           	xchw ax, hl
    26a2: a8 04        	movw ax, [sp+4]
    26a4: 37           	xchw ax, hl
    26a5: 60           	mov a, x
    26a6: 31 03 04     	bt a.0, $0x26ad <_localtime_r+0xc4>
    26a9: f6           	clrw ax
    26aa: ee 91 ff     	br $!0x263e <_localtime_r+0x55>
    26ad: a8 06        	movw ax, [sp+6]
    26af: 16           	movw hl, ax
    26b0: fd 11 2a     	call !0x2a11 <_OUTLINED_FUNCTION_7>
    26b3: dc 03        	bc $0x26b8 <_localtime_r+0xcf>
    26b5: f6           	clrw ax
    26b6: b8 10        	movw [sp+16], ax
    26b8: a8 06        	movw ax, [sp+6]
    26ba: 14           	movw de, ax
    26bb: fd 07 2a     	call !0x2a07 <_OUTLINED_FUNCTION_6>
    26be: 61 c8        	skc
    26c0: 36 00 00     	movw hl, #0
    26c3: a8 0e        	movw ax, [sp+14]
    26c5: 43           	cmpw ax, bc
    26c6: dd 03        	bz $0x26cb <_localtime_r+0xe2>
    26c8: 17           	movw ax, hl
    26c9: b8 10        	movw [sp+16], ax
    26cb: aa 28        	movw ax, [de+40]
    26cd: 12           	movw bc, ax
    26ce: a8 0a        	movw ax, [sp+10]
    26d0: 43           	cmpw ax, bc
    26d1: e6           	onew ax
    26d2: 61 c8        	skc
    26d4: f6           	clrw ax
    26d5: b8 0e        	movw [sp+14], ax
    26d7: 36 01 00     	movw hl, #1
    26da: aa 2a        	movw ax, [de+42]
    26dc: 14           	movw de, ax
    26dd: a8 08        	movw ax, [sp+8]
    26df: fd eb 29     	call !0x29eb <_OUTLINED_FUNCTION_3>
    26e2: 61 c8        	skc
    26e4: 36 00 00     	movw hl, #0
    26e7: a8 08        	movw ax, [sp+8]
    26e9: 45           	cmpw ax, de
    26ea: dd 03        	bz $0x26ef <_localtime_r+0x106>
    26ec: 17           	movw ax, hl
    26ed: b8 0e        	movw [sp+14], ax
    26ef: a8 0a        	movw ax, [sp+10]
    26f1: 61 7b        	xor a, b
    26f3: 08           	xch a, x
    26f4: 61 7a        	xor a, c
    26f6: 08           	xch a, x
    26f7: 16           	movw hl, ax
    26f8: a8 08        	movw ax, [sp+8]
    26fa: ee 92 00     	br $!0x278f <_localtime_r+0x1a6>
    26fd: fd f2 29     	call !0x29f2 <_OUTLINED_FUNCTION_4>
    2700: 61 c8        	skc
    2702: 34 00 00     	movw de, #0
    2705: fd da 29     	call !0x29da <_OUTLINED_FUNCTION_2>
    2708: 61 c8        	skc
    270a: 36 00 00     	movw hl, #0
    270d: a8 0e        	movw ax, [sp+14]
    270f: 43           	cmpw ax, bc
    2710: dd 02        	bz $0x2714 <_localtime_r+0x12b>
    2712: c5           	push de
    2713: c6           	pop hl
    2714: fd 9b 29     	call !0x299b <_OUTLINED_FUNCTION_0>
    2717: 61 c8        	skc
    2719: 36 00 00     	movw hl, #0
    271c: a8 0a        	movw ax, [sp+10]
    271e: 43           	cmpw ax, bc
    271f: e6           	onew ax
    2720: 61 c8        	skc
    2722: f6           	clrw ax
    2723: b8 12        	movw [sp+18], ax
    2725: a8 08        	movw ax, [sp+8]
    2727: 45           	cmpw ax, de
    2728: dd 03        	bz $0x272d <_localtime_r+0x144>
    272a: 17           	movw ax, hl
    272b: b8 12        	movw [sp+18], ax
    272d: fd bd 29     	call !0x29bd <_OUTLINED_FUNCTION_1>
    2730: 61 e8        	skz
    2732: a8 12        	movw ax, [sp+18]
    2734: 37           	xchw ax, hl
    2735: a8 04        	movw ax, [sp+4]
    2737: 37           	xchw ax, hl
    2738: 60           	mov a, x
    2739: 31 03 09     	bt a.0, $0x2745 <_localtime_r+0x15c>
    273c: e6           	onew ax
    273d: bc 10        	movw [hl+16], ax
    273f: a8 06        	movw ax, [sp+6]
    2741: 12           	movw bc, ax
    2742: ee 7b 00     	br $!0x27c0 <_localtime_r+0x1d7>
    2745: a8 06        	movw ax, [sp+6]
    2747: 14           	movw de, ax
    2748: c5           	push de
    2749: c6           	pop hl
    274a: fd 11 2a     	call !0x2a11 <_OUTLINED_FUNCTION_7>
    274d: dc 03        	bc $0x2752 <_localtime_r+0x169>
    274f: f6           	clrw ax
    2750: b8 10        	movw [sp+16], ax
    2752: fd 07 2a     	call !0x2a07 <_OUTLINED_FUNCTION_6>
    2755: 61 c8        	skc
    2757: 36 00 00     	movw hl, #0
    275a: 43           	cmpw ax, bc
    275b: dd 03        	bz $0x2760 <_localtime_r+0x177>
    275d: 17           	movw ax, hl
    275e: b8 10        	movw [sp+16], ax
    2760: aa 28        	movw ax, [de+40]
    2762: 16           	movw hl, ax
    2763: a8 0a        	movw ax, [sp+10]
    2765: 47           	cmpw ax, hl
    2766: e6           	onew ax
    2767: 61 c8        	skc
    2769: f6           	clrw ax
    276a: b8 0e        	movw [sp+14], ax
    276c: aa 2a        	movw ax, [de+42]
    276e: 33           	xchw ax, bc
    276f: a8 08        	movw ax, [sp+8]
    2771: 33           	xchw ax, bc
    2772: 14           	movw de, ax
    2773: 13           	movw ax, bc
    2774: fd eb 29     	call !0x29eb <_OUTLINED_FUNCTION_3>
    2777: e6           	onew ax
    2778: 61 c8        	skc
    277a: f6           	clrw ax
    277b: b8 12        	movw [sp+18], ax
    277d: 13           	movw ax, bc
    277e: 45           	cmpw ax, de
    277f: dd 04        	bz $0x2785 <_localtime_r+0x19c>
    2781: a8 12        	movw ax, [sp+18]
    2783: b8 0e        	movw [sp+14], ax
    2785: a8 0a        	movw ax, [sp+10]
    2787: 61 7f        	xor a, h
    2789: 08           	xch a, x
    278a: 61 7e        	xor a, l
    278c: 08           	xch a, x
    278d: 16           	movw hl, ax
    278e: 13           	movw ax, bc
    278f: 61 7d        	xor a, d
    2791: 08           	xch a, x
    2792: 61 7c        	xor a, e
    2794: 08           	xch a, x
    2795: 12           	movw bc, ax
    2796: 17           	movw ax, hl
    2797: 61 6b        	or a, b
    2799: 08           	xch a, x
    279a: 61 6a        	or a, c
    279c: 08           	xch a, x
    279d: 44 00 00     	cmpw ax, #0
    27a0: dd 04        	bz $0x27a6 <_localtime_r+0x1bd>
    27a2: a8 0e        	movw ax, [sp+14]
    27a4: b8 10        	movw [sp+16], ax
    27a6: a8 10        	movw ax, [sp+16]
    27a8: fd 02 2a     	call !0x2a02 <_OUTLINED_FUNCTION_5>
    27ab: 08           	xch a, x
    27ac: 5c 01        	and a, #1
    27ae: 08           	xch a, x
    27af: f1           	clrb a
    27b0: bc 10        	movw [hl+16], ax
    27b2: a8 06        	movw ax, [sp+6]
    27b4: 12           	movw bc, ax
    27b5: 13           	movw ax, bc
    27b6: 04 16 00     	addw ax, #22
    27b9: 14           	movw de, ax
    27ba: a8 10        	movw ax, [sp+16]
    27bc: 60           	mov a, x
    27bd: 31 05 05     	bf a.0, $0x27c5 <_localtime_r+0x1dc>
    27c0: 13           	movw ax, bc
    27c1: 04 2c 00     	addw ax, #44
    27c4: 14           	movw de, ax
    27c5: f6           	clrw ax
    27c6: b1           	decw ax
    27c7: b8 02        	movw [sp+2], ax
    27c9: 30 f0 f1     	movw ax, #61936
    27cc: b8 00        	movw [sp+0], ax
    27ce: aa 02        	movw ax, [de+2]
    27d0: 12           	movw bc, ax
    27d1: 33           	xchw ax, bc
    27d2: b8 08        	movw [sp+8], ax
    27d4: 33           	xchw ax, bc
    27d5: a9           	movw ax, [de]
    27d6: b8 0a        	movw [sp+10], ax
    27d8: fd 5d 0a     	call !0xa5d <___divsi3>
    27db: b8 06        	movw [sp+6], ax
    27dd: f6           	clrw ax
    27de: b8 02        	movw [sp+2], ax
    27e0: 30 10 0e     	movw ax, #3600
    27e3: b8 00        	movw [sp+0], ax
    27e5: a8 08        	movw ax, [sp+8]
    27e7: 12           	movw bc, ax
    27e8: a8 0a        	movw ax, [sp+10]
    27ea: fd 40 09     	call !0x940 <___modsi3>
    27ed: b8 08        	movw [sp+8], ax
    27ef: 32 3c 00     	movw bc, #60
    27f2: fd 1f 0a     	call !0xa1f <___modhi3>
    27f5: fd 02 2a     	call !0x2a02 <_OUTLINED_FUNCTION_5>
    27f8: 12           	movw bc, ax
    27f9: ab           	movw ax, [hl]
    27fa: 23           	subw ax, bc
    27fb: 12           	movw bc, ax
    27fc: 33           	xchw ax, bc
    27fd: b8 0a        	movw [sp+10], ax
    27ff: 33           	xchw ax, bc
    2800: a8 06        	movw ax, [sp+6]
    2802: 61 09 04     	addw ax, [hl+4]
    2805: b8 06        	movw [sp+6], ax
    2807: bc 04        	movw [hl+4], ax
    2809: 13           	movw ax, bc
    280a: bb           	movw [hl], ax
    280b: 32 c4 ff     	movw bc, #65476
    280e: 30 c4 ff     	movw ax, #65476
    2811: b8 0e        	movw [sp+14], ax
    2813: a8 08        	movw ax, [sp+8]
    2815: fd a8 0a     	call !0xaa8 <___divhi3>
    2818: fd 02 2a     	call !0x2a02 <_OUTLINED_FUNCTION_5>
    281b: 61 09 02     	addw ax, [hl+2]
    281e: 12           	movw bc, ax
    281f: c7           	push hl
    2820: c4           	pop de
    2821: bc 02        	movw [hl+2], ax
    2823: e6           	onew ax
    2824: b8 08        	movw [sp+8], ax
    2826: a8 0a        	movw ax, [sp+10]
    2828: 44 3b 00     	cmpw ax, #59
    282b: 71 ff        	xor1 cy, a.7
    282d: 16           	movw hl, ax
    282e: 61 c3 14     	bh $0x2845 <_localtime_r+0x25c>
    2831: 17           	movw ax, hl
    2832: c5           	push de
    2833: c6           	pop hl
    2834: 14           	movw de, ax
    2835: 31 75 1f     	bf a.7, $0x2857 <_localtime_r+0x26e>
    2838: 30 3c 00     	movw ax, #60
    283b: b8 0e        	movw [sp+14], ax
    283d: 17           	movw ax, hl
    283e: c5           	push de
    283f: c6           	pop hl
    2840: 14           	movw de, ax
    2841: f6           	clrw ax
    2842: b1           	decw ax
    2843: b8 08        	movw [sp+8], ax
    2845: 17           	movw ax, hl
    2846: c5           	push de
    2847: c6           	pop hl
    2848: 35           	xchw ax, de
    2849: a8 0e        	movw ax, [sp+14]
    284b: 35           	xchw ax, de
    284c: 05           	addw ax, de
    284d: bb           	movw [hl], ax
    284e: 13           	movw ax, bc
    284f: 33           	xchw ax, bc
    2850: a8 08        	movw ax, [sp+8]
    2852: 33           	xchw ax, bc
    2853: 03           	addw ax, bc
    2854: 12           	movw bc, ax
    2855: bc 02        	movw [hl+2], ax
    2857: 13           	movw ax, bc
    2858: 44 3b 00     	cmpw ax, #59
    285b: 71 ff        	xor1 cy, a.7
    285d: 61 d3 08     	bnh $0x2868 <_localtime_r+0x27f>
    2860: 36 c4 ff     	movw hl, #65476
    2863: 34 01 00     	movw de, #1
    2866: ef 0d        	br $0x2875 <_localtime_r+0x28c>
    2868: a8 06        	movw ax, [sp+6]
    286a: 14           	movw de, ax
    286b: 63           	mov a, b
    286c: 31 75 13     	bf a.7, $0x2882 <_localtime_r+0x299>
    286f: 36 3c 00     	movw hl, #60
    2872: 34 ff ff     	movw de, #65535
    2875: 13           	movw ax, bc
    2876: 07           	addw ax, hl
    2877: fd 02 2a     	call !0x2a02 <_OUTLINED_FUNCTION_5>
    287a: bc 02        	movw [hl+2], ax
    287c: a8 06        	movw ax, [sp+6]
    287e: 05           	addw ax, de
    287f: 14           	movw de, ax
    2880: bc 04        	movw [hl+4], ax
    2882: 32 18 00     	movw bc, #24
    2885: a8 0c        	movw ax, [sp+12]
    2887: ce fb 01     	mulhu
    288a: 32 f6 66     	movw bc, #26358
    288d: 03           	addw ax, bc
    288e: 12           	movw bc, ax
    288f: 15           	movw ax, de
    2890: 44 18 00     	cmpw ax, #24
    2893: 71 ff        	xor1 cy, a.7
    2895: c3           	push bc
    2896: c4           	pop de
    2897: dc 58        	bc $0x28f1 <_localtime_r+0x308>
    2899: f7           	clrw bc
    289a: 04 e8 ff     	addw ax, #65512
    289d: bc 04        	movw [hl+4], ax
    289f: ac 0c        	movw ax, [hl+12]
    28a1: 44 05 00     	cmpw ax, #5
    28a4: 71 ff        	xor1 cy, a.7
    28a6: 61 c3 02     	bh $0x28ab <_localtime_r+0x2c2>
    28a9: a1           	incw ax
    28aa: 12           	movw bc, ax
    28ab: 13           	movw ax, bc
    28ac: bc 0c        	movw [hl+12], ax
    28ae: ac 06        	movw ax, [hl+6]
    28b0: 12           	movw bc, ax
    28b1: 33           	xchw ax, bc
    28b2: b8 06        	movw [sp+6], ax
    28b4: 33           	xchw ax, bc
    28b5: a3           	incw bc
    28b6: 61 79 0e     	incw [hl+14]
    28b9: 13           	movw ax, bc
    28ba: bc 06        	movw [hl+6], ax
    28bc: ac 08        	movw ax, [hl+8]
    28be: b8 08        	movw [sp+8], ax
    28c0: 01           	addw ax, ax
    28c1: 05           	addw ax, de
    28c2: 14           	movw de, ax
    28c3: a9           	movw ax, [de]
    28c4: 14           	movw de, ax
    28c5: a8 06        	movw ax, [sp+6]
    28c7: fd eb 29     	call !0x29eb <_OUTLINED_FUNCTION_3>
    28ca: 61 d8        	sknc
    28cc: ee c4 00     	br $!0x2993 <_localtime_r+0x3aa>
    28cf: a8 04        	movw ax, [sp+4]
    28d1: 16           	movw hl, ax
    28d2: 13           	movw ax, bc
    28d3: 25           	subw ax, de
    28d4: bc 06        	movw [hl+6], ax
    28d6: a8 08        	movw ax, [sp+8]
    28d8: a1           	incw ax
    28d9: 44 0c 00     	cmpw ax, #12
    28dc: bc 08        	movw [hl+8], ax
    28de: 61 e8        	skz
    28e0: ee b0 00     	br $!0x2993 <_localtime_r+0x3aa>
    28e3: a8 04        	movw ax, [sp+4]
    28e5: 16           	movw hl, ax
    28e6: f6           	clrw ax
    28e7: 61 79 0a     	incw [hl+10]
    28ea: bc 08        	movw [hl+8], ax
    28ec: bc 0e        	movw [hl+14], ax
    28ee: ee a2 00     	br $!0x2993 <_localtime_r+0x3aa>
    28f1: 71 fc        	mov1 cy, a.7
    28f3: 61 c8        	skc
    28f5: ee 9b 00     	br $!0x2993 <_localtime_r+0x3aa>
    28f8: fd 02 2a     	call !0x2a02 <_OUTLINED_FUNCTION_5>
    28fb: 32 06 00     	movw bc, #6
    28fe: 04 18 00     	addw ax, #24
    2901: bc 04        	movw [hl+4], ax
    2903: ac 0c        	movw ax, [hl+12]
    2905: 44 01 00     	cmpw ax, #1
    2908: 71 ff        	xor1 cy, a.7
    290a: dc 02        	bc $0x290e <_localtime_r+0x325>
    290c: b1           	decw ax
    290d: 12           	movw bc, ax
    290e: 61 89 0e     	decw [hl+14]
    2911: 13           	movw ax, bc
    2912: bc 0c        	movw [hl+12], ax
    2914: f6           	clrw ax
    2915: b1           	decw ax
    2916: 61 09 06     	addw ax, [hl+6]
    2919: bc 06        	movw [hl+6], ax
    291b: 61 e8        	skz
    291d: ee 73 00     	br $!0x2993 <_localtime_r+0x3aa>
    2920: a8 04        	movw ax, [sp+4]
    2922: 16           	movw hl, ax
    2923: ac 08        	movw ax, [hl+8]
    2925: 35           	xchw ax, de
    2926: b8 06        	movw [sp+6], ax
    2928: 35           	xchw ax, de
    2929: 14           	movw de, ax
    292a: c5           	push de
    292b: c2           	pop bc
    292c: b3           	decw bc
    292d: 13           	movw ax, bc
    292e: bc 08        	movw [hl+8], ax
    2930: 15           	movw ax, de
    2931: 44 00 00     	cmpw ax, #0
    2934: 35           	xchw ax, de
    2935: a8 06        	movw ax, [sp+6]
    2937: 35           	xchw ax, de
    2938: 71 ff        	xor1 cy, a.7
    293a: 61 c3 4c     	bh $0x2989 <_localtime_r+0x3a0>
    293d: a8 04        	movw ax, [sp+4]
    293f: 16           	movw hl, ax
    2940: 30 0b 00     	movw ax, #11
    2943: bc 08        	movw [hl+8], ax
    2945: ac 0a        	movw ax, [hl+10]
    2947: 12           	movw bc, ax
    2948: b1           	decw ax
    2949: bc 0a        	movw [hl+10], ax
    294b: 13           	movw ax, bc
    294c: 04 6b 07     	addw ax, #1899
    294f: b8 08        	movw [sp+8], ax
    2951: fd 1a 2a     	call !0x2a1a <_OUTLINED_FUNCTION_8>
    2954: df 17        	bnz $0x296d <_localtime_r+0x384>
    2956: 32 64 00     	movw bc, #100
    2959: a8 08        	movw ax, [sp+8]
    295b: fd 1f 0a     	call !0xa1f <___modhi3>
    295e: 35           	xchw ax, de
    295f: a8 06        	movw ax, [sp+6]
    2961: 35           	xchw ax, de
    2962: fd 02 2a     	call !0x2a02 <_OUTLINED_FUNCTION_5>
    2965: 32 6d 01     	movw bc, #365
    2968: 44 00 00     	cmpw ax, #0
    296b: df 16        	bnz $0x2983 <_localtime_r+0x39a>
    296d: 32 90 01     	movw bc, #400
    2970: a8 08        	movw ax, [sp+8]
    2972: fd 23 2a     	call !0x2a23 <_OUTLINED_FUNCTION_9>
    2975: 32 6d 01     	movw bc, #365
    2978: 61 e8        	skz
    297a: 32 6c 01     	movw bc, #364
    297d: a8 04        	movw ax, [sp+4]
    297f: 16           	movw hl, ax
    2980: a8 06        	movw ax, [sp+6]
    2982: 14           	movw de, ax
    2983: 13           	movw ax, bc
    2984: 32 0b 00     	movw bc, #11
    2987: bc 0e        	movw [hl+14], ax
    2989: 13           	movw ax, bc
    298a: 01           	addw ax, ax
    298b: 05           	addw ax, de
    298c: 14           	movw de, ax
    298d: a9           	movw ax, [de]
    298e: fd 02 2a     	call !0x2a02 <_OUTLINED_FUNCTION_5>
    2991: bc 06        	movw [hl+6], ax
    2993: fd 45 32     	call !0x3245 <___tz_unlock>
    2996: a8 04        	movw ax, [sp+4]
    2998: 10 16        	addw sp, #22
    299a: d7           	ret

0000299b <_OUTLINED_FUNCTION_0>:
    299b: 17           	movw ax, hl
    299c: b8 14        	movw [sp+20], ax
    299e: a8 0a        	movw ax, [sp+10]
    29a0: 14           	movw de, ax
    29a1: aa 12        	movw ax, [de+18]
    29a3: 12           	movw bc, ax
    29a4: aa 14        	movw ax, [de+20]
    29a6: 37           	xchw ax, hl
    29a7: a8 0c        	movw ax, [sp+12]
    29a9: 37           	xchw ax, hl
    29aa: 14           	movw de, ax
    29ab: ac 04        	movw ax, [hl+4]
    29ad: b8 0e        	movw [sp+14], ax
    29af: ac 06        	movw ax, [hl+6]
    29b1: 36 01 00     	movw hl, #1
    29b4: b8 0c        	movw [sp+12], ax
    29b6: 45           	cmpw ax, de
    29b7: 71 ff        	xor1 cy, a.7
    29b9: 65           	mov a, d
    29ba: 71 ff        	xor1 cy, a.7
    29bc: d7           	ret

000029bd <_OUTLINED_FUNCTION_1>:
    29bd: a8 0c        	movw ax, [sp+12]
    29bf: 61 7d        	xor a, d
    29c1: 08           	xch a, x
    29c2: 61 7c        	xor a, e
    29c4: 08           	xch a, x
    29c5: 14           	movw de, ax
    29c6: a8 0e        	movw ax, [sp+14]
    29c8: 61 7b        	xor a, b
    29ca: 08           	xch a, x
    29cb: 61 7a        	xor a, c
    29cd: 08           	xch a, x
    29ce: 61 6d        	or a, d
    29d0: 08           	xch a, x
    29d1: 61 6c        	or a, e
    29d3: 08           	xch a, x
    29d4: 44 00 00     	cmpw ax, #0
    29d7: a8 14        	movw ax, [sp+20]
    29d9: d7           	ret

000029da <_OUTLINED_FUNCTION_2>:
    29da: a8 0c        	movw ax, [sp+12]
    29dc: 16           	movw hl, ax
    29dd: ab           	movw ax, [hl]
    29de: 37           	xchw ax, hl
    29df: a8 0a        	movw ax, [sp+10]
    29e1: 37           	xchw ax, hl
    29e2: b8 18        	movw [sp+24], ax
    29e4: 61 49 0e     	cmpw ax, [hl+14]
    29e7: 36 01 00     	movw hl, #1
    29ea: d7           	ret

000029eb <_OUTLINED_FUNCTION_3>:
    29eb: 45           	cmpw ax, de
    29ec: 71 ff        	xor1 cy, a.7
    29ee: 65           	mov a, d
    29ef: 71 ff        	xor1 cy, a.7
    29f1: d7           	ret

000029f2 <_OUTLINED_FUNCTION_4>:
    29f2: aa 10        	movw ax, [de+16]
    29f4: 37           	xchw ax, hl
    29f5: a8 0c        	movw ax, [sp+12]
    29f7: 37           	xchw ax, hl
    29f8: 34 01 00     	movw de, #1
    29fb: 12           	movw bc, ax
    29fc: ac 02        	movw ax, [hl+2]
    29fe: 43           	cmpw ax, bc
    29ff: b8 12        	movw [sp+18], ax
    2a01: d7           	ret

00002a02 <_OUTLINED_FUNCTION_5>:
    2a02: 37           	xchw ax, hl
    2a03: a8 08        	movw ax, [sp+8]
    2a05: 37           	xchw ax, hl
    2a06: d7           	ret

00002a07 <_OUTLINED_FUNCTION_6>:
    2a07: 36 01 00     	movw hl, #1
    2a0a: aa 26        	movw ax, [de+38]
    2a0c: 12           	movw bc, ax
    2a0d: a8 12        	movw ax, [sp+18]
    2a0f: 43           	cmpw ax, bc
    2a10: d7           	ret

00002a11 <_OUTLINED_FUNCTION_7>:
    2a11: a8 18        	movw ax, [sp+24]
    2a13: 61 49 24     	cmpw ax, [hl+36]
    2a16: e6           	onew ax
    2a17: b8 14        	movw [sp+20], ax
    2a19: d7           	ret

00002a1a <_OUTLINED_FUNCTION_8>:
    2a1a: 08           	xch a, x
    2a1b: 5c 03        	and a, #3
    2a1d: 08           	xch a, x
    2a1e: f1           	clrb a
    2a1f: 44 00 00     	cmpw ax, #0
    2a22: d7           	ret

00002a23 <_OUTLINED_FUNCTION_9>:
    2a23: fd 1f 0a     	call !0xa1f <___modhi3>
    2a26: 44 00 00     	cmpw ax, #0
    2a29: d7           	ret

00002a2a <___gettzinfo>:
    2a2a: 30 4c f0     	movw ax, #61516
    2a2d: d7           	ret

00002a2e <_gmtime_r>:
    2a2e: 20 34        	subw sp, #52
    2a30: 33           	xchw ax, bc
    2a31: b8 24        	movw [sp+36], ax
    2a33: 33           	xchw ax, bc
    2a34: 16           	movw hl, ax
    2a35: ac 06        	movw ax, [hl+6]
    2a37: b8 06        	movw [sp+6], ax
    2a39: ac 04        	movw ax, [hl+4]
    2a3b: fd c2 2c     	call !0x2cc2 <_OUTLINED_FUNCTION_3>
    2a3e: fd b0 2c     	call !0x2cb0 <_OUTLINED_FUNCTION_1>
    2a41: ac 02        	movw ax, [hl+2]
    2a43: b8 22        	movw [sp+34], ax
    2a45: b8 02        	movw [sp+2], ax
    2a47: ab           	movw ax, [hl]
    2a48: b8 20        	movw [sp+32], ax
    2a4a: b8 00        	movw [sp+0], ax
    2a4c: ae f8        	movw ax, sp
    2a4e: 04 10 00     	addw ax, #16
    2a51: fd 89 06     	call !0x689 <___divdi3>
    2a54: fd b0 2c     	call !0x2cb0 <_OUTLINED_FUNCTION_1>
    2a57: a8 16        	movw ax, [sp+22]
    2a59: b8 06        	movw [sp+6], ax
    2a5b: a8 14        	movw ax, [sp+20]
    2a5d: fd c2 2c     	call !0x2cc2 <_OUTLINED_FUNCTION_3>
    2a60: a8 12        	movw ax, [sp+18]
    2a62: b8 26        	movw [sp+38], ax
    2a64: b8 02        	movw [sp+2], ax
    2a66: a8 10        	movw ax, [sp+16]
    2a68: b8 28        	movw [sp+40], ax
    2a6a: b8 00        	movw [sp+0], ax
    2a6c: ae f8        	movw ax, sp
    2a6e: 04 18 00     	addw ax, #24
    2a71: fd 86 09     	call !0x986 <___muldi3>
    2a74: a8 18        	movw ax, [sp+24]
    2a76: 14           	movw de, ax
    2a77: a8 1a        	movw ax, [sp+26]
    2a79: 12           	movw bc, ax
    2a7a: a8 20        	movw ax, [sp+32]
    2a7c: 25           	subw ax, de
    2a7d: b8 20        	movw [sp+32], ax
    2a7f: a8 22        	movw ax, [sp+34]
    2a81: 08           	xch a, x
    2a82: 61 3a        	subc a, c
    2a84: 08           	xch a, x
    2a85: 61 3b        	subc a, b
    2a87: 32 6b fa     	movw bc, #64107
    2a8a: b8 22        	movw [sp+34], ax
    2a8c: 31 73 03     	bt a.7, $0x2a92 <_gmtime_r+0x64>
    2a8f: 32 6c fa     	movw bc, #64108
    2a92: 13           	movw ax, bc
    2a93: 33           	xchw ax, bc
    2a94: a8 28        	movw ax, [sp+40]
    2a96: 33           	xchw ax, bc
    2a97: 03           	addw ax, bc
    2a98: 12           	movw bc, ax
    2a99: a8 26        	movw ax, [sp+38]
    2a9b: 33           	xchw ax, bc
    2a9c: b8 26        	movw [sp+38], ax
    2a9e: 33           	xchw ax, bc
    2a9f: 08           	xch a, x
    2aa0: 1c 0a        	addc a, #10
    2aa2: 08           	xch a, x
    2aa3: 1c 00        	addc a, #0
    2aa5: 16           	movw hl, ax
    2aa6: 13           	movw ax, bc
    2aa7: 04 50 c5     	addw ax, #50512
    2aaa: 14           	movw de, ax
    2aab: 17           	movw ax, hl
    2aac: 08           	xch a, x
    2aad: 1c fd        	addc a, #253
    2aaf: 08           	xch a, x
    2ab0: 1c ff        	addc a, #255
    2ab2: 12           	movw bc, ax
    2ab3: 67           	mov a, h
    2ab4: 31 73 02     	bt a.7, $0x2ab9 <_gmtime_r+0x8b>
    2ab7: c7           	push hl
    2ab8: c2           	pop bc
    2ab9: 37           	xchw ax, hl
    2aba: b8 28        	movw [sp+40], ax
    2abc: 37           	xchw ax, hl
    2abd: 67           	mov a, h
    2abe: 31 73 03     	bt a.7, $0x2ac4 <_gmtime_r+0x96>
    2ac1: a8 26        	movw ax, [sp+38]
    2ac3: 14           	movw de, ax
    2ac4: 30 b1 3a     	movw ax, #15025
    2ac7: b8 00        	movw [sp+0], ax
    2ac9: 30 02 00     	movw ax, #2
    2acc: b8 02        	movw [sp+2], ax
    2ace: 15           	movw ax, de
    2acf: fd 5d 0a     	call !0xa5d <___divsi3>
    2ad2: 14           	movw de, ax
    2ad3: 30 fd ff     	movw ax, #65533
    2ad6: b8 02        	movw [sp+2], ax
    2ad8: 30 4f c5     	movw ax, #50511
    2adb: b8 00        	movw [sp+0], ax
    2add: 35           	xchw ax, de
    2ade: b8 30        	movw [sp+48], ax
    2ae0: 35           	xchw ax, de
    2ae1: 15           	movw ax, de
    2ae2: fd 3e 0a     	call !0xa3e <___mulsi3>
    2ae5: 33           	xchw ax, bc
    2ae6: b8 2c        	movw [sp+44], ax
    2ae8: 33           	xchw ax, bc
    2ae9: 14           	movw de, ax
    2aea: a8 20        	movw ax, [sp+32]
    2aec: 04 80 51     	addw ax, #20864
    2aef: b8 2a        	movw [sp+42], ax
    2af1: a8 22        	movw ax, [sp+34]
    2af3: 12           	movw bc, ax
    2af4: 13           	movw ax, bc
    2af5: 08           	xch a, x
    2af6: 1c 01        	addc a, #1
    2af8: 08           	xch a, x
    2af9: 1c 00        	addc a, #0
    2afb: 16           	movw hl, ax
    2afc: 63           	mov a, b
    2afd: 31 75 05     	bf a.7, $0x2b05 <_gmtime_r+0xd7>
    2b00: 17           	movw ax, hl
    2b01: b8 32        	movw [sp+50], ax
    2b03: ef 04        	br $0x2b09 <_gmtime_r+0xdb>
    2b05: 33           	xchw ax, bc
    2b06: b8 32        	movw [sp+50], ax
    2b08: 33           	xchw ax, bc
    2b09: a8 28        	movw ax, [sp+40]
    2b0b: 16           	movw hl, ax
    2b0c: 63           	mov a, b
    2b0d: 31 73 04     	bt a.7, $0x2b14 <_gmtime_r+0xe6>
    2b10: a8 20        	movw ax, [sp+32]
    2b12: b8 2a        	movw [sp+42], ax
    2b14: a8 26        	movw ax, [sp+38]
    2b16: 12           	movw bc, ax
    2b17: 15           	movw ax, de
    2b18: 03           	addw ax, bc
    2b19: 12           	movw bc, ax
    2b1a: 33           	xchw ax, bc
    2b1b: b8 20        	movw [sp+32], ax
    2b1d: 33           	xchw ax, bc
    2b1e: a8 2c        	movw ax, [sp+44]
    2b20: 08           	xch a, x
    2b21: 61 1e        	addc a, l
    2b23: 08           	xch a, x
    2b24: 61 1f        	addc a, h
    2b26: 14           	movw de, ax
    2b27: 35           	xchw ax, de
    2b28: b8 22        	movw [sp+34], ax
    2b2a: 35           	xchw ax, de
    2b2b: 13           	movw ax, bc
    2b2c: c5           	push de
    2b2d: c2           	pop bc
    2b2e: 34 b0 3a     	movw de, #15024
    2b31: 36 02 00     	movw hl, #2
    2b34: ce fb 0b     	divwu
    2b37: 00           	nop
    2b38: b8 2c        	movw [sp+44], ax
    2b3a: 13           	movw ax, bc
    2b3b: b8 2e        	movw [sp+46], ax
    2b3d: 34 b4 05     	movw de, #1460
    2b40: 36 00 00     	movw hl, #0
    2b43: fd a4 2c     	call !0x2ca4 <_OUTLINED_FUNCTION_0>
    2b46: a8 2c        	movw ax, [sp+44]
    2b48: 35           	xchw ax, de
    2b49: 36 00 00     	movw hl, #0
    2b4c: 05           	addw ax, de
    2b4d: b8 2c        	movw [sp+44], ax
    2b4f: 34 ac 8e     	movw de, #36524
    2b52: a8 2e        	movw ax, [sp+46]
    2b54: 08           	xch a, x
    2b55: 61 1a        	addc a, c
    2b57: 08           	xch a, x
    2b58: 61 1b        	addc a, b
    2b5a: b8 2e        	movw [sp+46], ax
    2b5c: fd a4 2c     	call !0x2ca4 <_OUTLINED_FUNCTION_0>
    2b5f: a8 20        	movw ax, [sp+32]
    2b61: 35           	xchw ax, de
    2b62: 36 00 00     	movw hl, #0
    2b65: 05           	addw ax, de
    2b66: 14           	movw de, ax
    2b67: 13           	movw ax, bc
    2b68: 33           	xchw ax, bc
    2b69: a8 22        	movw ax, [sp+34]
    2b6b: 33           	xchw ax, bc
    2b6c: 08           	xch a, x
    2b6d: 61 1a        	addc a, c
    2b6f: 08           	xch a, x
    2b70: 61 1b        	addc a, b
    2b72: 12           	movw bc, ax
    2b73: 15           	movw ax, de
    2b74: 35           	xchw ax, de
    2b75: a8 2c        	movw ax, [sp+44]
    2b77: 35           	xchw ax, de
    2b78: 25           	subw ax, de
    2b79: b8 22        	movw [sp+34], ax
    2b7b: 34 10 0e     	movw de, #3600
    2b7e: 13           	movw ax, bc
    2b7f: 33           	xchw ax, bc
    2b80: a8 2e        	movw ax, [sp+46]
    2b82: 33           	xchw ax, bc
    2b83: 08           	xch a, x
    2b84: 61 3a        	subc a, c
    2b86: 08           	xch a, x
    2b87: 61 3b        	subc a, b
    2b89: b8 2c        	movw [sp+44], ax
    2b8b: a8 2a        	movw ax, [sp+42]
    2b8d: 33           	xchw ax, bc
    2b8e: a8 32        	movw ax, [sp+50]
    2b90: 33           	xchw ax, bc
    2b91: ce fb 0b     	divwu
    2b94: 00           	nop
    2b95: 37           	xchw ax, hl
    2b96: a8 24        	movw ax, [sp+36]
    2b98: 37           	xchw ax, hl
    2b99: bc 04        	movw [hl+4], ax
    2b9b: 15           	movw ax, de
    2b9c: 34 3c 00     	movw de, #60
    2b9f: ce fb 03     	divhu
    2ba2: 00           	nop
    2ba3: bc 02        	movw [hl+2], ax
    2ba5: 15           	movw ax, de
    2ba6: bb           	movw [hl], ax
    2ba7: 34 6d 01     	movw de, #365
    2baa: 36 00 00     	movw hl, #0
    2bad: a8 22        	movw ax, [sp+34]
    2baf: 33           	xchw ax, bc
    2bb0: a8 2c        	movw ax, [sp+44]
    2bb2: 33           	xchw ax, bc
    2bb3: ce fb 0b     	divwu
    2bb6: 00           	nop
    2bb7: 33           	xchw ax, bc
    2bb8: a8 28        	movw ax, [sp+40]
    2bba: 33           	xchw ax, bc
    2bbb: b8 22        	movw [sp+34], ax
    2bbd: f6           	clrw ax
    2bbe: b8 02        	movw [sp+2], ax
    2bc0: 30 07 00     	movw ax, #7
    2bc3: b8 00        	movw [sp+0], ax
    2bc5: a8 26        	movw ax, [sp+38]
    2bc7: 04 03 00     	addw ax, #3
    2bca: 61 d8        	sknc
    2bcc: a3           	incw bc
    2bcd: fd 40 09     	call !0x940 <___modsi3>
    2bd0: 14           	movw de, ax
    2bd1: 04 07 00     	addw ax, #7
    2bd4: 12           	movw bc, ax
    2bd5: 65           	mov a, d
    2bd6: 31 73 02     	bt a.7, $0x2bdb <_gmtime_r+0x1ad>
    2bd9: c5           	push de
    2bda: c2           	pop bc
    2bdb: a8 24        	movw ax, [sp+36]
    2bdd: 16           	movw hl, ax
    2bde: a8 20        	movw ax, [sp+32]
    2be0: 14           	movw de, ax
    2be1: 13           	movw ax, bc
    2be2: bc 0c        	movw [hl+12], ax
    2be4: a8 22        	movw ax, [sp+34]
    2be6: 16           	movw hl, ax
    2be7: 17           	movw ax, hl
    2be8: 31 2e        	shrw ax, 2
    2bea: 12           	movw bc, ax
    2beb: 15           	movw ax, de
    2bec: 23           	subw ax, bc
    2bed: 14           	movw de, ax
    2bee: 32 93 fe     	movw bc, #65171
    2bf1: 17           	movw ax, hl
    2bf2: ce fb 01     	mulhu
    2bf5: 05           	addw ax, de
    2bf6: 12           	movw bc, ax
    2bf7: fd b9 2c     	call !0x2cb9 <_OUTLINED_FUNCTION_2>
    2bfa: 03           	addw ax, bc
    2bfb: 14           	movw de, ax
    2bfc: 44 32 01     	cmpw ax, #306
    2bff: 35           	xchw ax, de
    2c00: b8 20        	movw [sp+32], ax
    2c02: 35           	xchw ax, de
    2c03: dc 06        	bc $0x2c0b <_gmtime_r+0x1dd>
    2c05: 15           	movw ax, de
    2c06: 04 ce fe     	addw ax, #65230
    2c09: ef 2d        	br $0x2c38 <_gmtime_r+0x20a>
    2c0b: fd b9 2c     	call !0x2cb9 <_OUTLINED_FUNCTION_2>
    2c0e: 17           	movw ax, hl
    2c0f: 08           	xch a, x
    2c10: 5c 03        	and a, #3
    2c12: 08           	xch a, x
    2c13: f1           	clrb a
    2c14: 44 00 00     	cmpw ax, #0
    2c17: df 07        	bnz $0x2c20 <_gmtime_r+0x1f2>
    2c19: e7           	onew bc
    2c1a: 15           	movw ax, de
    2c1b: 44 00 00     	cmpw ax, #0
    2c1e: df 10        	bnz $0x2c30 <_gmtime_r+0x202>
    2c20: 34 90 01     	movw de, #400
    2c23: e7           	onew bc
    2c24: 17           	movw ax, hl
    2c25: ce fb 03     	divhu
    2c28: 00           	nop
    2c29: 15           	movw ax, de
    2c2a: 44 00 00     	cmpw ax, #0
    2c2d: 61 e8        	skz
    2c2f: f7           	clrw bc
    2c30: a8 20        	movw ax, [sp+32]
    2c32: 14           	movw de, ax
    2c33: 15           	movw ax, de
    2c34: 03           	addw ax, bc
    2c35: 04 3b 00     	addw ax, #59
    2c38: 37           	xchw ax, hl
    2c39: a8 24        	movw ax, [sp+36]
    2c3b: 37           	xchw ax, hl
    2c3c: 33           	xchw ax, bc
    2c3d: a8 30        	movw ax, [sp+48]
    2c3f: 33           	xchw ax, bc
    2c40: bc 0e        	movw [hl+14], ax
    2c42: f6           	clrw ax
    2c43: bc 10        	movw [hl+16], ax
    2c45: 13           	movw ax, bc
    2c46: 32 90 01     	movw bc, #400
    2c49: ce fb 01     	mulhu
    2c4c: 33           	xchw ax, bc
    2c4d: a8 22        	movw ax, [sp+34]
    2c4f: 33           	xchw ax, bc
    2c50: 03           	addw ax, bc
    2c51: b8 22        	movw [sp+34], ax
    2c53: 32 05 00     	movw bc, #5
    2c56: 15           	movw ax, de
    2c57: 34 99 00     	movw de, #153
    2c5a: ce fb 01     	mulhu
    2c5d: a1           	incw ax
    2c5e: a1           	incw ax
    2c5f: 12           	movw bc, ax
    2c60: ce fb 03     	divhu
    2c63: 00           	nop
    2c64: 14           	movw de, ax
    2c65: 13           	movw ax, bc
    2c66: 44 fa 05     	cmpw ax, #1530
    2c69: 30 02 00     	movw ax, #2
    2c6c: 61 c8        	skc
    2c6e: 30 f6 ff     	movw ax, #65526
    2c71: 05           	addw ax, de
    2c72: bc 08        	movw [hl+8], ax
    2c74: 44 02 00     	cmpw ax, #2
    2c77: c5           	push de
    2c78: c2           	pop bc
    2c79: 34 01 00     	movw de, #1
    2c7c: 61 c8        	skc
    2c7e: 34 00 00     	movw de, #0
    2c81: a8 22        	movw ax, [sp+34]
    2c83: 05           	addw ax, de
    2c84: 34 05 00     	movw de, #5
    2c87: 04 94 f8     	addw ax, #63636
    2c8a: bc 0a        	movw [hl+10], ax
    2c8c: 13           	movw ax, bc
    2c8d: 32 99 00     	movw bc, #153
    2c90: ce fb 01     	mulhu
    2c93: a1           	incw ax
    2c94: a1           	incw ax
    2c95: ce fb 03     	divhu
    2c98: 00           	nop
    2c99: 12           	movw bc, ax
    2c9a: a8 20        	movw ax, [sp+32]
    2c9c: 23           	subw ax, bc
    2c9d: a1           	incw ax
    2c9e: bc 06        	movw [hl+6], ax
    2ca0: 17           	movw ax, hl
    2ca1: 10 34        	addw sp, #52
    2ca3: d7           	ret

00002ca4 <_OUTLINED_FUNCTION_0>:
    2ca4: a8 24        	movw ax, [sp+36]
    2ca6: 33           	xchw ax, bc
    2ca7: a8 26        	movw ax, [sp+38]
    2ca9: 33           	xchw ax, bc
    2caa: ce fb 0b     	divwu
    2cad: 00           	nop
    2cae: 35           	xchw ax, de
    2caf: d7           	ret

00002cb0 <_OUTLINED_FUNCTION_1>:
    2cb0: e6           	onew ax
    2cb1: b8 0e        	movw [sp+14], ax
    2cb3: 30 80 51     	movw ax, #20864
    2cb6: b8 0c        	movw [sp+12], ax
    2cb8: d7           	ret

00002cb9 <_OUTLINED_FUNCTION_2>:
    2cb9: 34 64 00     	movw de, #100
    2cbc: 17           	movw ax, hl
    2cbd: ce fb 03     	divhu
    2cc0: 00           	nop
    2cc1: d7           	ret

00002cc2 <_OUTLINED_FUNCTION_3>:
    2cc2: b8 08        	movw [sp+8], ax
    2cc4: f6           	clrw ax
    2cc5: b8 12        	movw [sp+18], ax
    2cc7: b8 10        	movw [sp+16], ax
    2cc9: d7           	ret

00002cca <__tzset_unlocked>:
    2cca: af 64 f3     	movw ax, !0xff364               ; 0xff364 <__impure_ptr>
    2ccd: ed 5e 32     	br !0x325e <__tzset_unlocked_r>

00002cd0 <___tzcalc_limits>:
    2cd0: 20 28        	subw sp, #40
    2cd2: b8 24        	movw [sp+36], ax
    2cd4: fd 2a 2a     	call !0x2a2a <___gettzinfo>
    2cd7: 16           	movw hl, ax
    2cd8: f7           	clrw bc
    2cd9: a8 24        	movw ax, [sp+36]
    2cdb: 44 b2 07     	cmpw ax, #1970
    2cde: 71 ff        	xor1 cy, a.7
    2ce0: 14           	movw de, ax
    2ce1: 61 d8        	sknc
    2ce3: ee 45 02     	br $!0x2f2b <___tzcalc_limits+0x25b>
    2ce6: c5           	push de
    2ce7: c2           	pop bc
    2ce8: 37           	xchw ax, hl
    2ce9: b8 1e        	movw [sp+30], ax
    2ceb: 37           	xchw ax, hl
    2cec: 34 64 00     	movw de, #100
    2cef: 13           	movw ax, bc
    2cf0: bc 02        	movw [hl+2], ax
    2cf2: 04 93 f8     	addw ax, #63635
    2cf5: ce fb 03     	divhu
    2cf8: 00           	nop
    2cf9: 14           	movw de, ax
    2cfa: 13           	movw ax, bc
    2cfb: c3           	push bc
    2cfc: c6           	pop hl
    2cfd: 32 6d 01     	movw bc, #365
    2d00: ce fb 01     	mulhu
    2d03: 12           	movw bc, ax
    2d04: 17           	movw ax, hl
    2d05: 04 4f f8     	addw ax, #63567
    2d08: 31 2e        	shrw ax, 2
    2d0a: 03           	addw ax, bc
    2d0b: 25           	subw ax, de
    2d0c: 12           	movw bc, ax
    2d0d: 34 90 01     	movw de, #400
    2d10: 17           	movw ax, hl
    2d11: 04 bf f9     	addw ax, #63935
    2d14: ce fb 03     	divhu
    2d17: 00           	nop
    2d18: 03           	addw ax, bc
    2d19: f7           	clrw bc
    2d1a: 04 36 07     	addw ax, #1846
    2d1d: b8 26        	movw [sp+38], ax
    2d1f: 13           	movw ax, bc
    2d20: 44 02 00     	cmpw ax, #2
    2d23: 61 f8        	sknz
    2d25: ee 8d 01     	br $!0x2eb5 <___tzcalc_limits+0x1e5>
    2d28: 33           	xchw ax, bc
    2d29: b8 1c        	movw [sp+28], ax
    2d2b: 33           	xchw ax, bc
    2d2c: 13           	movw ax, bc
    2d2d: 32 16 00     	movw bc, #22
    2d30: ce fb 01     	mulhu
    2d33: 33           	xchw ax, bc
    2d34: a8 1e        	movw ax, [sp+30]
    2d36: 33           	xchw ax, bc
    2d37: 03           	addw ax, bc
    2d38: 14           	movw de, ax
    2d39: 8a 04        	mov a, [de+4]
    2d3b: 4c 44        	cmp a, #68
    2d3d: dd 45        	bz $0x2d84 <___tzcalc_limits+0xb4>
    2d3f: 4c 4a        	cmp a, #74
    2d41: df 4c        	bnz $0x2d8f <___tzcalc_limits+0xbf>
    2d43: fd 53 2f     	call !0x2f53 <_OUTLINED_FUNCTION_2>
    2d46: 12           	movw bc, ax
    2d47: fd 6e 2f     	call !0x2f6e <_OUTLINED_FUNCTION_4>
    2d4a: df 08        	bnz $0x2d54 <___tzcalc_limits+0x84>
    2d4c: 34 64 00     	movw de, #100
    2d4f: fd 64 2f     	call !0x2f64 <_OUTLINED_FUNCTION_3>
    2d52: df 10        	bnz $0x2d64 <___tzcalc_limits+0x94>
    2d54: 34 90 01     	movw de, #400
    2d57: 17           	movw ax, hl
    2d58: ce fb 03     	divhu
    2d5b: 00           	nop
    2d5c: 15           	movw ax, de
    2d5d: 54 00        	mov e, #0
    2d5f: 44 00 00     	cmpw ax, #0
    2d62: df 0e        	bnz $0x2d72 <___tzcalc_limits+0xa2>
    2d64: 34 01 00     	movw de, #1
    2d67: 13           	movw ax, bc
    2d68: 44 3b 00     	cmpw ax, #59
    2d6b: 71 ff        	xor1 cy, a.7
    2d6d: 61 e3        	skh
    2d6f: 34 00 00     	movw de, #0
    2d72: a8 26        	movw ax, [sp+38]
    2d74: 03           	addw ax, bc
    2d75: 12           	movw bc, ax
    2d76: f1           	clrb a
    2d77: 75           	mov d, a
    2d78: 15           	movw ax, de
    2d79: 08           	xch a, x
    2d7a: 5c 01        	and a, #1
    2d7c: 08           	xch a, x
    2d7d: f1           	clrb a
    2d7e: 03           	addw ax, bc
    2d7f: 12           	movw bc, ax
    2d80: b3           	decw bc
    2d81: ee af 00     	br $!0x2e33 <___tzcalc_limits+0x163>
    2d84: fd 2f 2f     	call !0x2f2f <_OUTLINED_FUNCTION_0>
    2d87: a8 26        	movw ax, [sp+38]
    2d89: 61 09 0a     	addw ax, [hl+10]
    2d8c: ee a3 00     	br $!0x2e32 <___tzcalc_limits+0x162>
    2d8f: fd 6e 2f     	call !0x2f6e <_OUTLINED_FUNCTION_4>
    2d92: df 09        	bnz $0x2d9d <___tzcalc_limits+0xcd>
    2d94: 34 64 00     	movw de, #100
    2d97: e2           	oneb c
    2d98: fd 64 2f     	call !0x2f64 <_OUTLINED_FUNCTION_3>
    2d9b: df 0a        	bnz $0x2da7 <___tzcalc_limits+0xd7>
    2d9d: 34 90 01     	movw de, #400
    2da0: e7           	onew bc
    2da1: fd 64 2f     	call !0x2f64 <_OUTLINED_FUNCTION_3>
    2da4: 61 e8        	skz
    2da6: f7           	clrw bc
    2da7: 34 01 00     	movw de, #1
    2daa: f1           	clrb a
    2dab: 73           	mov b, a
    2dac: 13           	movw ax, bc
    2dad: 32 18 00     	movw bc, #24
    2db0: 08           	xch a, x
    2db1: 5c 01        	and a, #1
    2db3: 08           	xch a, x
    2db4: f1           	clrb a
    2db5: ce fb 01     	mulhu
    2db8: 32 f6 66     	movw bc, #26358
    2dbb: 03           	addw ax, bc
    2dbc: b8 1a        	movw [sp+26], ax
    2dbe: a8 26        	movw ax, [sp+38]
    2dc0: b8 18        	movw [sp+24], ax
    2dc2: fd 2f 2f     	call !0x2f2f <_OUTLINED_FUNCTION_0>
    2dc5: 15           	movw ax, de
    2dc6: 61 49 06     	cmpw ax, [hl+6]
    2dc9: 71 ff        	xor1 cy, a.7
    2dcb: ac 06        	movw ax, [hl+6]
    2dcd: 71 ff        	xor1 cy, a.7
    2dcf: de 13        	bnc $0x2de4 <___tzcalc_limits+0x114>
    2dd1: a8 1a        	movw ax, [sp+26]
    2dd3: 12           	movw bc, ax
    2dd4: 15           	movw ax, de
    2dd5: a5           	incw de
    2dd6: 01           	addw ax, ax
    2dd7: 03           	addw ax, bc
    2dd8: b1           	decw ax
    2dd9: b1           	decw ax
    2dda: 16           	movw hl, ax
    2ddb: a8 18        	movw ax, [sp+24]
    2ddd: 61 09 00     	addw ax, [hl]
    2de0: b8 18        	movw [sp+24], ax
    2de2: ef de        	br $0x2dc2 <___tzcalc_limits+0xf2>
    2de4: 15           	movw ax, de
    2de5: b8 20        	movw [sp+32], ax
    2de7: 32 07 00     	movw bc, #7
    2dea: a8 18        	movw ax, [sp+24]
    2dec: 04 04 00     	addw ax, #4
    2def: fd 1f 0a     	call !0xa1f <___modhi3>
    2df2: 16           	movw hl, ax
    2df3: fd 53 2f     	call !0x2f53 <_OUTLINED_FUNCTION_2>
    2df6: 27           	subw ax, hl
    2df7: 12           	movw bc, ax
    2df8: 04 07 00     	addw ax, #7
    2dfb: 16           	movw hl, ax
    2dfc: 63           	mov a, b
    2dfd: 31 73 02     	bt a.7, $0x2e02 <___tzcalc_limits+0x132>
    2e00: c3           	push bc
    2e01: c6           	pop hl
    2e02: 32 07 00     	movw bc, #7
    2e05: aa 08        	movw ax, [de+8]
    2e07: ce fb 01     	mulhu
    2e0a: 07           	addw ax, hl
    2e0b: 04 f9 ff     	addw ax, #65529
    2e0e: 14           	movw de, ax
    2e0f: c5           	push de
    2e10: c2           	pop bc
    2e11: a8 20        	movw ax, [sp+32]
    2e13: 35           	xchw ax, de
    2e14: a8 1a        	movw ax, [sp+26]
    2e16: 35           	xchw ax, de
    2e17: 01           	addw ax, ax
    2e18: 05           	addw ax, de
    2e19: 16           	movw hl, ax
    2e1a: 13           	movw ax, bc
    2e1b: 04 f9 ff     	addw ax, #65529
    2e1e: 14           	movw de, ax
    2e1f: b7           	decw hl
    2e20: b7           	decw hl
    2e21: 13           	movw ax, bc
    2e22: 61 49 00     	cmpw ax, [hl]
    2e25: 71 ff        	xor1 cy, a.7
    2e27: ab           	movw ax, [hl]
    2e28: 71 ff        	xor1 cy, a.7
    2e2a: de e3        	bnc $0x2e0f <___tzcalc_limits+0x13f>
    2e2c: 13           	movw ax, bc
    2e2d: 33           	xchw ax, bc
    2e2e: a8 18        	movw ax, [sp+24]
    2e30: 33           	xchw ax, bc
    2e31: 03           	addw ax, bc
    2e32: 12           	movw bc, ax
    2e33: f6           	clrw ax
    2e34: b8 0e        	movw [sp+14], ax
    2e36: b8 0c        	movw [sp+12], ax
    2e38: e6           	onew ax
    2e39: b8 0a        	movw [sp+10], ax
    2e3b: 30 80 51     	movw ax, #20864
    2e3e: b8 08        	movw [sp+8], ax
    2e40: 13           	movw ax, bc
    2e41: b8 00        	movw [sp+0], ax
    2e43: 31 ff        	sarw ax, 15
    2e45: b8 06        	movw [sp+6], ax
    2e47: b8 04        	movw [sp+4], ax
    2e49: b8 02        	movw [sp+2], ax
    2e4b: ae f8        	movw ax, sp
    2e4d: 04 10 00     	addw ax, #16
    2e50: fd 86 09     	call !0x986 <___muldi3>
    2e53: fd 2f 2f     	call !0x2f2f <_OUTLINED_FUNCTION_0>
    2e56: c7           	push hl
    2e57: c4           	pop de
    2e58: aa 0c        	movw ax, [de+12]
    2e5a: 14           	movw de, ax
    2e5b: 31 ff        	sarw ax, 15
    2e5d: 12           	movw bc, ax
    2e5e: a8 10        	movw ax, [sp+16]
    2e60: b8 18        	movw [sp+24], ax
    2e62: a8 12        	movw ax, [sp+18]
    2e64: b8 1a        	movw [sp+26], ax
    2e66: a8 14        	movw ax, [sp+20]
    2e68: b8 20        	movw [sp+32], ax
    2e6a: a8 16        	movw ax, [sp+22]
    2e6c: b8 22        	movw [sp+34], ax
    2e6e: a8 18        	movw ax, [sp+24]
    2e70: 05           	addw ax, de
    2e71: b8 18        	movw [sp+24], ax
    2e73: a8 1a        	movw ax, [sp+26]
    2e75: 08           	xch a, x
    2e76: 61 1a        	addc a, c
    2e78: 08           	xch a, x
    2e79: 61 1b        	addc a, b
    2e7b: fd 3e 2f     	call !0x2f3e <_OUTLINED_FUNCTION_1>
    2e7e: b8 22        	movw [sp+34], ax
    2e80: c7           	push hl
    2e81: c4           	pop de
    2e82: aa 18        	movw ax, [de+24]
    2e84: 14           	movw de, ax
    2e85: 31 ff        	sarw ax, 15
    2e87: 12           	movw bc, ax
    2e88: a8 18        	movw ax, [sp+24]
    2e8a: 61 09 16     	addw ax, [hl+22]
    2e8d: b8 18        	movw [sp+24], ax
    2e8f: a8 1a        	movw ax, [sp+26]
    2e91: 08           	xch a, x
    2e92: 61 1c        	addc a, e
    2e94: 08           	xch a, x
    2e95: 61 1d        	addc a, d
    2e97: fd 3e 2f     	call !0x2f3e <_OUTLINED_FUNCTION_1>
    2e9a: 33           	xchw ax, bc
    2e9b: a8 1c        	movw ax, [sp+28]
    2e9d: 33           	xchw ax, bc
    2e9e: c7           	push hl
    2e9f: c4           	pop de
    2ea0: ba 14        	movw [de+20], ax
    2ea2: a3           	incw bc
    2ea3: a8 20        	movw ax, [sp+32]
    2ea5: ba 12        	movw [de+18], ax
    2ea7: a8 1a        	movw ax, [sp+26]
    2ea9: ba 10        	movw [de+16], ax
    2eab: a8 18        	movw ax, [sp+24]
    2ead: ba 0e        	movw [de+14], ax
    2eaf: a8 24        	movw ax, [sp+36]
    2eb1: 16           	movw hl, ax
    2eb2: ee 6a fe     	br $!0x2d1f <___tzcalc_limits+0x4f>
    2eb5: a8 1e        	movw ax, [sp+30]
    2eb7: 16           	movw hl, ax
    2eb8: ac 0e        	movw ax, [hl+14]
    2eba: 61 49 24     	cmpw ax, [hl+36]
    2ebd: e6           	onew ax
    2ebe: 61 c8        	skc
    2ec0: f6           	clrw ax
    2ec1: b8 1a        	movw [sp+26], ax
    2ec3: 34 01 00     	movw de, #1
    2ec6: ac 26        	movw ax, [hl+38]
    2ec8: 12           	movw bc, ax
    2ec9: ac 10        	movw ax, [hl+16]
    2ecb: 43           	cmpw ax, bc
    2ecc: 61 c8        	skc
    2ece: 34 00 00     	movw de, #0
    2ed1: 43           	cmpw ax, bc
    2ed2: dd 03        	bz $0x2ed7 <___tzcalc_limits+0x207>
    2ed4: 15           	movw ax, de
    2ed5: b8 1a        	movw [sp+26], ax
    2ed7: a8 1e        	movw ax, [sp+30]
    2ed9: 16           	movw hl, ax
    2eda: ac 2a        	movw ax, [hl+42]
    2edc: 14           	movw de, ax
    2edd: ac 14        	movw ax, [hl+20]
    2edf: b8 18        	movw [sp+24], ax
    2ee1: 45           	cmpw ax, de
    2ee2: 71 ff        	xor1 cy, a.7
    2ee4: 65           	mov a, d
    2ee5: 71 ff        	xor1 cy, a.7
    2ee7: e6           	onew ax
    2ee8: 61 c8        	skc
    2eea: f6           	clrw ax
    2eeb: b8 20        	movw [sp+32], ax
    2eed: a8 1e        	movw ax, [sp+30]
    2eef: 16           	movw hl, ax
    2ef0: ac 28        	movw ax, [hl+40]
    2ef2: 12           	movw bc, ax
    2ef3: ac 12        	movw ax, [hl+18]
    2ef5: 16           	movw hl, ax
    2ef6: 43           	cmpw ax, bc
    2ef7: e6           	onew ax
    2ef8: 61 c8        	skc
    2efa: f6           	clrw ax
    2efb: b8 1c        	movw [sp+28], ax
    2efd: a8 18        	movw ax, [sp+24]
    2eff: 45           	cmpw ax, de
    2f00: dd 04        	bz $0x2f06 <___tzcalc_limits+0x236>
    2f02: a8 20        	movw ax, [sp+32]
    2f04: b8 1c        	movw [sp+28], ax
    2f06: a8 18        	movw ax, [sp+24]
    2f08: 61 7d        	xor a, d
    2f0a: 08           	xch a, x
    2f0b: 61 7c        	xor a, e
    2f0d: 08           	xch a, x
    2f0e: 14           	movw de, ax
    2f0f: 17           	movw ax, hl
    2f10: 61 7b        	xor a, b
    2f12: 08           	xch a, x
    2f13: 61 7a        	xor a, c
    2f15: 08           	xch a, x
    2f16: 61 6d        	or a, d
    2f18: 08           	xch a, x
    2f19: 61 6c        	or a, e
    2f1b: 08           	xch a, x
    2f1c: 44 00 00     	cmpw ax, #0
    2f1f: a8 1a        	movw ax, [sp+26]
    2f21: 61 e8        	skz
    2f23: a8 1c        	movw ax, [sp+28]
    2f25: 37           	xchw ax, hl
    2f26: a8 1e        	movw ax, [sp+30]
    2f28: 37           	xchw ax, hl
    2f29: e7           	onew bc
    2f2a: bb           	movw [hl], ax
    2f2b: 13           	movw ax, bc
    2f2c: 10 28        	addw sp, #40
    2f2e: d7           	ret

00002f2f <_OUTLINED_FUNCTION_0>:
    2f2f: 32 16 00     	movw bc, #22
    2f32: a8 20        	movw ax, [sp+32]
    2f34: ce fb 01     	mulhu
    2f37: 33           	xchw ax, bc
    2f38: a8 22        	movw ax, [sp+34]
    2f3a: 33           	xchw ax, bc
    2f3b: 03           	addw ax, bc
    2f3c: 16           	movw hl, ax
    2f3d: d7           	ret

00002f3e <_OUTLINED_FUNCTION_1>:
    2f3e: b8 1e        	movw [sp+30], ax
    2f40: a8 24        	movw ax, [sp+36]
    2f42: 08           	xch a, x
    2f43: 61 1a        	addc a, c
    2f45: 08           	xch a, x
    2f46: 61 1b        	addc a, b
    2f48: b8 24        	movw [sp+36], ax
    2f4a: a8 26        	movw ax, [sp+38]
    2f4c: 08           	xch a, x
    2f4d: 61 1a        	addc a, c
    2f4f: 08           	xch a, x
    2f50: 61 1b        	addc a, b
    2f52: d7           	ret

00002f53 <_OUTLINED_FUNCTION_2>:
    2f53: 32 16 00     	movw bc, #22
    2f56: a8 20        	movw ax, [sp+32]
    2f58: ce fb 01     	mulhu
    2f5b: 33           	xchw ax, bc
    2f5c: a8 22        	movw ax, [sp+34]
    2f5e: 33           	xchw ax, bc
    2f5f: 03           	addw ax, bc
    2f60: 14           	movw de, ax
    2f61: aa 0a        	movw ax, [de+10]
    2f63: d7           	ret

00002f64 <_OUTLINED_FUNCTION_3>:
    2f64: 17           	movw ax, hl
    2f65: ce fb 03     	divhu
    2f68: 00           	nop
    2f69: 15           	movw ax, de
    2f6a: 44 00 00     	cmpw ax, #0
    2f6d: d7           	ret

00002f6e <_OUTLINED_FUNCTION_4>:
    2f6e: 17           	movw ax, hl
    2f6f: 08           	xch a, x
    2f70: 5c 03        	and a, #3
    2f72: 08           	xch a, x
    2f73: f1           	clrb a
    2f74: 44 00 00     	cmpw ax, #0
    2f77: d7           	ret

00002f78 <___errno>:
    2f78: af 64 f3     	movw ax, !0xff364               ; 0xff364 <__impure_ptr>
    2f7b: d7           	ret

00002f7c <_strncasecmp_l>:
    2f7c: 20 0a        	subw sp, #10
    2f7e: 33           	xchw ax, bc
    2f7f: b8 00        	movw [sp+0], ax
    2f81: 33           	xchw ax, bc
    2f82: 12           	movw bc, ax
    2f83: a8 0e        	movw ax, [sp+14]
    2f85: b8 02        	movw [sp+2], ax
    2f87: 15           	movw ax, de
    2f88: 44 00 00     	cmpw ax, #0
    2f8b: df 05        	bnz $0x2f92 <_strncasecmp_l+0x16>
    2f8d: f7           	clrw bc
    2f8e: 13           	movw ax, bc
    2f8f: 10 0a        	addw sp, #10
    2f91: d7           	ret
    2f92: 15           	movw ax, de
    2f93: b8 06        	movw [sp+6], ax
    2f95: 33           	xchw ax, bc
    2f96: b8 08        	movw [sp+8], ax
    2f98: 33           	xchw ax, bc
    2f99: c3           	push bc
    2f9a: c6           	pop hl
    2f9b: 8b           	mov a, [hl]
    2f9c: 33           	xchw ax, bc
    2f9d: a8 02        	movw ax, [sp+2]
    2f9f: 33           	xchw ax, bc
    2fa0: 31 8f        	sarw ax, 8
    2fa2: fd 46 32     	call !0x3246 <_tolower_l>
    2fa5: b8 04        	movw [sp+4], ax
    2fa7: 35           	xchw ax, de
    2fa8: a8 00        	movw ax, [sp+0]
    2faa: 35           	xchw ax, de
    2fab: 89           	mov a, [de]
    2fac: 33           	xchw ax, bc
    2fad: a8 02        	movw ax, [sp+2]
    2faf: 33           	xchw ax, bc
    2fb0: 31 8f        	sarw ax, 8
    2fb2: fd 46 32     	call !0x3246 <_tolower_l>
    2fb5: 14           	movw de, ax
    2fb6: a8 04        	movw ax, [sp+4]
    2fb8: 25           	subw ax, de
    2fb9: 12           	movw bc, ax
    2fba: 15           	movw ax, de
    2fbb: 44 00 00     	cmpw ax, #0
    2fbe: dd ce        	bz $0x2f8e <_strncasecmp_l+0x12>
    2fc0: 13           	movw ax, bc
    2fc1: 44 00 00     	cmpw ax, #0
    2fc4: df c8        	bnz $0x2f8e <_strncasecmp_l+0x12>
    2fc6: a8 06        	movw ax, [sp+6]
    2fc8: 14           	movw de, ax
    2fc9: a8 08        	movw ax, [sp+8]
    2fcb: 12           	movw bc, ax
    2fcc: a8 00        	movw ax, [sp+0]
    2fce: b5           	decw de
    2fcf: a3           	incw bc
    2fd0: a1           	incw ax
    2fd1: b8 00        	movw [sp+0], ax
    2fd3: ef b2        	br $0x2f87 <_strncasecmp_l+0xb>

00002fd5 <__strtol_r>:
    2fd5: c1           	push ax
    2fd6: 16           	movw hl, ax
    2fd7: a8 06        	movw ax, [sp+6]
    2fd9: b8 00        	movw [sp+0], ax
    2fdb: 17           	movw ax, hl
    2fdc: fd e1 2f     	call !0x2fe1 <__strtol_l>
    2fdf: c6           	pop hl
    2fe0: d7           	ret

00002fe1 <__strtol_l>:
    2fe1: 20 22        	subw sp, #34
    2fe3: 35           	xchw ax, de
    2fe4: b8 18        	movw [sp+24], ax
    2fe6: 35           	xchw ax, de
    2fe7: 33           	xchw ax, bc
    2fe8: b8 16        	movw [sp+22], ax
    2fea: 33           	xchw ax, bc
    2feb: b8 1c        	movw [sp+28], ax
    2fed: a8 26        	movw ax, [sp+38]
    2fef: 44 24 00     	cmpw ax, #36
    2ff2: b8 12        	movw [sp+18], ax
    2ff4: 61 c3 0b     	bh $0x3002 <__strtol_l+0x21>
    2ff7: a8 12        	movw ax, [sp+18]
    2ff9: 35           	xchw ax, de
    2ffa: a8 16        	movw ax, [sp+22]
    2ffc: 35           	xchw ax, de
    2ffd: 44 01 00     	cmpw ax, #1
    3000: df 0f        	bnz $0x3011 <__strtol_l+0x30>
    3002: fd 78 2f     	call !0x2f78 <___errno>
    3005: 16           	movw hl, ax
    3006: f7           	clrw bc
    3007: 30 16 00     	movw ax, #22
    300a: bb           	movw [hl], ax
    300b: 36 00 00     	movw hl, #0
    300e: ee ef 01     	br $!0x3200 <__strtol_l+0x21f>
    3011: c5           	push de
    3012: c6           	pop hl
    3013: 37           	xchw ax, hl
    3014: b8 04        	movw [sp+4], ax
    3016: 37           	xchw ax, hl
    3017: a5           	incw de
    3018: 8b           	mov a, [hl]
    3019: 72           	mov c, a
    301a: f1           	clrb a
    301b: 73           	mov b, a
    301c: c5           	push de
    301d: c6           	pop hl
    301e: 34 f5 65     	movw de, #26101
    3021: 13           	movw ax, bc
    3022: 05           	addw ax, de
    3023: c7           	push hl
    3024: c4           	pop de
    3025: 16           	movw hl, ax
    3026: 31 b3 e8     	bt [hl].3, $0x3011 <__strtol_l+0x30>
    3029: 15           	movw ax, de
    302a: b8 08        	movw [sp+8], ax
    302c: a8 04        	movw ax, [sp+4]
    302e: 14           	movw de, ax
    302f: 62           	mov a, c
    3030: 4c 2d        	cmp a, #45
    3032: c3           	push bc
    3033: c6           	pop hl
    3034: 37           	xchw ax, hl
    3035: b8 1a        	movw [sp+26], ax
    3037: 37           	xchw ax, hl
    3038: dd 07        	bz $0x3041 <__strtol_l+0x60>
    303a: 66           	mov a, l
    303b: 4c 2b        	cmp a, #43
    303d: c7           	push hl
    303e: c2           	pop bc
    303f: df 10        	bnz $0x3051 <__strtol_l+0x70>
    3041: c5           	push de
    3042: c6           	pop hl
    3043: 17           	movw ax, hl
    3044: a1           	incw ax
    3045: a1           	incw ax
    3046: b8 08        	movw [sp+8], ax
    3048: 8c 01        	mov a, [hl+1]
    304a: 37           	xchw ax, hl
    304b: a8 1a        	movw ax, [sp+26]
    304d: 37           	xchw ax, hl
    304e: 72           	mov c, a
    304f: f1           	clrb a
    3050: 73           	mov b, a
    3051: a8 12        	movw ax, [sp+18]
    3053: 08           	xch a, x
    3054: 6c 10        	or a, #16
    3056: 08           	xch a, x
    3057: 44 10 00     	cmpw ax, #16
    305a: df 3f        	bnz $0x309b <__strtol_l+0xba>
    305c: 13           	movw ax, bc
    305d: 44 30 00     	cmpw ax, #48
    3060: df 39        	bnz $0x309b <__strtol_l+0xba>
    3062: a8 08        	movw ax, [sp+8]
    3064: 14           	movw de, ax
    3065: c5           	push de
    3066: c6           	pop hl
    3067: 51 20        	mov a, #32
    3069: 6d           	or a, [hl]
    306a: 4c 78        	cmp a, #120
    306c: dd 15        	bz $0x3083 <__strtol_l+0xa2>
    306e: 30 30 00     	movw ax, #48
    3071: b8 06        	movw [sp+6], ax
    3073: a8 12        	movw ax, [sp+18]
    3075: 37           	xchw ax, hl
    3076: a8 1a        	movw ax, [sp+26]
    3078: 37           	xchw ax, hl
    3079: 44 00 00     	cmpw ax, #0
    307c: df 3b        	bnz $0x30b9 <__strtol_l+0xd8>
    307e: 32 08 00     	movw bc, #8
    3081: ef 33        	br $0x30b6 <__strtol_l+0xd5>
    3083: 30 10 00     	movw ax, #16
    3086: b8 12        	movw [sp+18], ax
    3088: 15           	movw ax, de
    3089: a1           	incw ax
    308a: a1           	incw ax
    308b: 12           	movw bc, ax
    308c: c5           	push de
    308d: c6           	pop hl
    308e: 8c 01        	mov a, [hl+1]
    3090: 31 8e        	shrw ax, 8
    3092: b8 06        	movw [sp+6], ax
    3094: c3           	push bc
    3095: c4           	pop de
    3096: a8 1a        	movw ax, [sp+26]
    3098: 16           	movw hl, ax
    3099: ef 1e        	br $0x30b9 <__strtol_l+0xd8>
    309b: 33           	xchw ax, bc
    309c: b8 06        	movw [sp+6], ax
    309e: 33           	xchw ax, bc
    309f: 13           	movw ax, bc
    30a0: 44 30 00     	cmpw ax, #48
    30a3: 32 08 00     	movw bc, #8
    30a6: 61 e8        	skz
    30a8: 32 0a 00     	movw bc, #10
    30ab: a8 12        	movw ax, [sp+18]
    30ad: 35           	xchw ax, de
    30ae: a8 08        	movw ax, [sp+8]
    30b0: 35           	xchw ax, de
    30b1: 44 00 00     	cmpw ax, #0
    30b4: df 03        	bnz $0x30b9 <__strtol_l+0xd8>
    30b6: 13           	movw ax, bc
    30b7: b8 12        	movw [sp+18], ax
    30b9: 32 00 80     	movw bc, #32768
    30bc: 66           	mov a, l
    30bd: 4c 2d        	cmp a, #45
    30bf: 61 e8        	skz
    30c1: 32 ff 7f     	movw bc, #32767
    30c4: 15           	movw ax, de
    30c5: b8 08        	movw [sp+8], ax
    30c7: 66           	mov a, l
    30c8: 4c 2d        	cmp a, #45
    30ca: f6           	clrw ax
    30cb: dd 02        	bz $0x30cf <__strtol_l+0xee>
    30cd: f6           	clrw ax
    30ce: b1           	decw ax
    30cf: 34 00 00     	movw de, #0
    30d2: 35           	xchw ax, de
    30d3: b8 04        	movw [sp+4], ax
    30d5: 35           	xchw ax, de
    30d6: b8 20        	movw [sp+32], ax
    30d8: 33           	xchw ax, bc
    30d9: b8 1e        	movw [sp+30], ax
    30db: 33           	xchw ax, bc
    30dc: 35           	xchw ax, de
    30dd: a8 12        	movw ax, [sp+18]
    30df: 35           	xchw ax, de
    30e0: 36 00 00     	movw hl, #0
    30e3: ce fb 0b     	divwu
    30e6: 00           	nop
    30e7: b8 0c        	movw [sp+12], ax
    30e9: 13           	movw ax, bc
    30ea: b8 0e        	movw [sp+14], ax
    30ec: 15           	movw ax, de
    30ed: b8 14        	movw [sp+20], ax
    30ef: 36 00 00     	movw hl, #0
    30f2: f6           	clrw ax
    30f3: b8 0a        	movw [sp+10], ax
    30f5: a8 08        	movw ax, [sp+8]
    30f7: 14           	movw de, ax
    30f8: a8 06        	movw ax, [sp+6]
    30fa: 12           	movw bc, ax
    30fb: 15           	movw ax, de
    30fc: b8 08        	movw [sp+8], ax
    30fe: 13           	movw ax, bc
    30ff: 04 d0 ff     	addw ax, #65488
    3102: 44 0a 00     	cmpw ax, #10
    3105: 14           	movw de, ax
    3106: dc 21        	bc $0x3129 <__strtol_l+0x148>
    3108: 13           	movw ax, bc
    3109: 04 bf ff     	addw ax, #65471
    310c: 44 19 00     	cmpw ax, #25
    310f: 61 c3 06     	bh $0x3118 <__strtol_l+0x137>
    3112: 13           	movw ax, bc
    3113: 04 c9 ff     	addw ax, #65481
    3116: ef 10        	br $0x3128 <__strtol_l+0x147>
    3118: 13           	movw ax, bc
    3119: 04 9f ff     	addw ax, #65439
    311c: 44 19 00     	cmpw ax, #25
    311f: 61 f3        	sknh
    3121: ee 92 00     	br $!0x31b6 <__strtol_l+0x1d5>
    3124: 13           	movw ax, bc
    3125: 04 a9 ff     	addw ax, #65449
    3128: 14           	movw de, ax
    3129: a8 12        	movw ax, [sp+18]
    312b: 12           	movw bc, ax
    312c: 15           	movw ax, de
    312d: 43           	cmpw ax, bc
    312e: 71 ff        	xor1 cy, a.7
    3130: 63           	mov a, b
    3131: 71 ff        	xor1 cy, a.7
    3133: 61 c8        	skc
    3135: ee 7e 00     	br $!0x31b6 <__strtol_l+0x1d5>
    3138: 15           	movw ax, de
    3139: b8 10        	movw [sp+16], ax
    313b: f6           	clrw ax
    313c: b1           	decw ax
    313d: b8 06        	movw [sp+6], ax
    313f: a8 04        	movw ax, [sp+4]
    3141: 35           	xchw ax, de
    3142: a8 0a        	movw ax, [sp+10]
    3144: b8 04        	movw [sp+4], ax
    3146: 35           	xchw ax, de
    3147: c7           	push hl
    3148: c2           	pop bc
    3149: 31 73 4f     	bt a.7, $0x319b <__strtol_l+0x1ba>
    314c: fd 1d 32     	call !0x321d <_OUTLINED_FUNCTION_0>
    314f: 35           	xchw ax, de
    3150: b8 04        	movw [sp+4], ax
    3152: 35           	xchw ax, de
    3153: 15           	movw ax, de
    3154: 61 f8        	sknz
    3156: 43           	cmpw ax, bc
    3157: c7           	push hl
    3158: c2           	pop bc
    3159: 61 c3 3f     	bh $0x319b <__strtol_l+0x1ba>
    315c: fd 1d 32     	call !0x321d <_OUTLINED_FUNCTION_0>
    315f: 15           	movw ax, de
    3160: 61 f8        	sknz
    3162: 43           	cmpw ax, bc
    3163: df 1a        	bnz $0x317f <__strtol_l+0x19e>
    3165: f6           	clrw ax
    3166: b1           	decw ax
    3167: b8 06        	movw [sp+6], ax
    3169: a8 10        	movw ax, [sp+16]
    316b: 33           	xchw ax, bc
    316c: a8 14        	movw ax, [sp+20]
    316e: 33           	xchw ax, bc
    316f: 43           	cmpw ax, bc
    3170: 71 ff        	xor1 cy, a.7
    3172: 63           	mov a, b
    3173: 71 ff        	xor1 cy, a.7
    3175: a8 0c        	movw ax, [sp+12]
    3177: b8 04        	movw [sp+4], ax
    3179: a8 0e        	movw ax, [sp+14]
    317b: 12           	movw bc, ax
    317c: 61 c3 1c     	bh $0x319b <__strtol_l+0x1ba>
    317f: f6           	clrw ax
    3180: b8 02        	movw [sp+2], ax
    3182: a8 12        	movw ax, [sp+18]
    3184: b8 00        	movw [sp+0], ax
    3186: c7           	push hl
    3187: c2           	pop bc
    3188: 15           	movw ax, de
    3189: fd 3e 0a     	call !0xa3e <___mulsi3>
    318c: 35           	xchw ax, de
    318d: a8 10        	movw ax, [sp+16]
    318f: 35           	xchw ax, de
    3190: 05           	addw ax, de
    3191: 14           	movw de, ax
    3192: 61 d8        	sknc
    3194: a3           	incw bc
    3195: e6           	onew ax
    3196: b8 06        	movw [sp+6], ax
    3198: 15           	movw ax, de
    3199: b8 04        	movw [sp+4], ax
    319b: a8 08        	movw ax, [sp+8]
    319d: 16           	movw hl, ax
    319e: c7           	push hl
    319f: c4           	pop de
    31a0: a5           	incw de
    31a1: 8b           	mov a, [hl]
    31a2: 37           	xchw ax, hl
    31a3: a8 04        	movw ax, [sp+4]
    31a5: 37           	xchw ax, hl
    31a6: 70           	mov x, a
    31a7: 37           	xchw ax, hl
    31a8: b8 0a        	movw [sp+10], ax
    31aa: 37           	xchw ax, hl
    31ab: f1           	clrb a
    31ac: c3           	push bc
    31ad: c6           	pop hl
    31ae: 12           	movw bc, ax
    31af: a8 06        	movw ax, [sp+6]
    31b1: b8 04        	movw [sp+4], ax
    31b3: ee 45 ff     	br $!0x30fb <__strtol_l+0x11a>
    31b6: a8 04        	movw ax, [sp+4]
    31b8: 31 75 12     	bf a.7, $0x31cd <__strtol_l+0x1ec>
    31bb: a8 1c        	movw ax, [sp+28]
    31bd: 14           	movw de, ax
    31be: 30 22 00     	movw ax, #34
    31c1: b9           	movw [de], ax
    31c2: a8 08        	movw ax, [sp+8]
    31c4: 14           	movw de, ax
    31c5: a8 20        	movw ax, [sp+32]
    31c7: 12           	movw bc, ax
    31c8: a8 1e        	movw ax, [sp+30]
    31ca: 16           	movw hl, ax
    31cb: ef 1a        	br $0x31e7 <__strtol_l+0x206>
    31cd: a8 1a        	movw ax, [sp+26]
    31cf: 33           	xchw ax, bc
    31d0: a8 0a        	movw ax, [sp+10]
    31d2: 33           	xchw ax, bc
    31d3: 35           	xchw ax, de
    31d4: a8 08        	movw ax, [sp+8]
    31d6: 35           	xchw ax, de
    31d7: 60           	mov a, x
    31d8: 4c 2d        	cmp a, #45
    31da: df 0b        	bnz $0x31e7 <__strtol_l+0x206>
    31dc: f6           	clrw ax
    31dd: 23           	subw ax, bc
    31de: 12           	movw bc, ax
    31df: f6           	clrw ax
    31e0: 08           	xch a, x
    31e1: 61 3e        	subc a, l
    31e3: 08           	xch a, x
    31e4: 61 3f        	subc a, h
    31e6: 16           	movw hl, ax
    31e7: a8 18        	movw ax, [sp+24]
    31e9: 44 00 00     	cmpw ax, #0
    31ec: dd 12        	bz $0x3200 <__strtol_l+0x21f>
    31ee: a8 04        	movw ax, [sp+4]
    31f0: 44 00 00     	cmpw ax, #0
    31f3: dd 04        	bz $0x31f9 <__strtol_l+0x218>
    31f5: b5           	decw de
    31f6: 15           	movw ax, de
    31f7: b8 16        	movw [sp+22], ax
    31f9: a8 16        	movw ax, [sp+22]
    31fb: 35           	xchw ax, de
    31fc: a8 18        	movw ax, [sp+24]
    31fe: 35           	xchw ax, de
    31ff: b9           	movw [de], ax
    3200: 13           	movw ax, bc
    3201: c7           	push hl
    3202: c2           	pop bc
    3203: 10 22        	addw sp, #34
    3205: d7           	ret

00003206 <_strtol_l>:
    3206: 20 04        	subw sp, #4
    3208: 33           	xchw ax, bc
    3209: b8 02        	movw [sp+2], ax
    320b: 33           	xchw ax, bc
    320c: fb 64 f3     	movw hl, !0xff364               ; 0xff364 <__impure_ptr>
    320f: 12           	movw bc, ax
    3210: 15           	movw ax, de
    3211: b8 00        	movw [sp+0], ax
    3213: a8 02        	movw ax, [sp+2]
    3215: 14           	movw de, ax
    3216: 17           	movw ax, hl
    3217: fd e1 2f     	call !0x2fe1 <__strtol_l>
    321a: 10 04        	addw sp, #4
    321c: d7           	ret

0000321d <_OUTLINED_FUNCTION_0>:
    321d: a8 12        	movw ax, [sp+18]
    321f: 12           	movw bc, ax
    3220: 17           	movw ax, hl
    3221: 43           	cmpw ax, bc
    3222: a8 10        	movw ax, [sp+16]
    3224: 12           	movw bc, ax
    3225: d7           	ret

00003226 <___ascii_wctomb>:
    3226: 16           	movw hl, ax
    3227: 13           	movw ax, bc
    3228: 44 00 00     	cmpw ax, #0
    322b: df 02        	bnz $0x322f <___ascii_wctomb+0x9>
    322d: f6           	clrw ax
    322e: d7           	ret
    322f: 15           	movw ax, de
    3230: 44 00 01     	cmpw ax, #256
    3233: dc 09        	bc $0x323e <___ascii_wctomb+0x18>
    3235: 30 8a 00     	movw ax, #138
    3238: c7           	push hl
    3239: c4           	pop de
    323a: b9           	movw [de], ax
    323b: f6           	clrw ax
    323c: b1           	decw ax
    323d: d7           	ret
    323e: 64           	mov a, e
    323f: c3           	push bc
    3240: c6           	pop hl
    3241: 9b           	mov [hl], a
    3242: e6           	onew ax
    3243: d7           	ret

00003244 <___tz_lock>:
    3244: d7           	ret

00003245 <___tz_unlock>:
    3245: d7           	ret

00003246 <_tolower_l>:
    3246: 34 f5 65     	movw de, #26101
    3249: 12           	movw bc, ax
    324a: 05           	addw ax, de
    324b: 16           	movw hl, ax
    324c: 51 03        	mov a, #3
    324e: 5d           	and a, [hl]
    324f: 76           	mov l, a
    3250: 13           	movw ax, bc
    3251: 04 20 00     	addw ax, #32
    3254: 14           	movw de, ax
    3255: 66           	mov a, l
    3256: 4c 01        	cmp a, #1
    3258: dd 02        	bz $0x325c <_tolower_l+0x16>
    325a: c3           	push bc
    325b: c4           	pop de
    325c: 15           	movw ax, de
    325d: d7           	ret

0000325e <__tzset_unlocked_r>:
    325e: 20 30        	subw sp, #48
    3260: b8 1e        	movw [sp+30], ax
    3262: fd 2a 2a     	call !0x2a2a <___gettzinfo>
    3265: b8 1c        	movw [sp+28], ax
    3267: 32 d5 61     	movw bc, #25045
    326a: a8 1e        	movw ax, [sp+30]
    326c: fd 85 37     	call !0x3785 <__getenv_r>
    326f: 14           	movw de, ax
    3270: 44 00 00     	cmpw ax, #0
    3273: df 1c        	bnz $0x3291 <__tzset_unlocked_r+0x33>
    3275: 30 c4 62     	movw ax, #25284
    3278: fd d3 36     	call !0x36d3 <_OUTLINED_FUNCTION_10>
    327b: fd c8 36     	call !0x36c8 <_OUTLINED_FUNCTION_9>
    327e: fd bc 36     	call !0x36bc <_OUTLINED_FUNCTION_8>
    3281: fd 7d 36     	call !0x367d <_OUTLINED_FUNCTION_3>
    3284: fd 55 06     	call !0x655 <_memcpy>
    3287: fd f9 36     	call !0x36f9 <_OUTLINED_FUNCTION_15>
    328a: f6           	clrw ax
    328b: bf 86 f4     	movw !0xff486, ax               ; 0xff486 <_prev_tzenv>
    328e: ee b5 03     	br $!0x3646 <__tzset_unlocked_r+0x3e8>
    3291: af 86 f4     	movw ax, !0xff486               ; 0xff486 <_prev_tzenv>
    3294: 35           	xchw ax, de
    3295: b8 20        	movw [sp+32], ax
    3297: 35           	xchw ax, de
    3298: 44 00 00     	cmpw ax, #0
    329b: dd 11        	bz $0x32ae <__tzset_unlocked_r+0x50>
    329d: 12           	movw bc, ax
    329e: 15           	movw ax, de
    329f: fd 21 06     	call !0x621 <_strcmp>
    32a2: 35           	xchw ax, de
    32a3: a8 20        	movw ax, [sp+32]
    32a5: 35           	xchw ax, de
    32a6: 44 00 00     	cmpw ax, #0
    32a9: 61 f8        	sknz
    32ab: ee 98 03     	br $!0x3646 <__tzset_unlocked_r+0x3e8>
    32ae: fd f9 36     	call !0x36f9 <_OUTLINED_FUNCTION_15>
    32b1: a8 20        	movw ax, [sp+32]
    32b3: fd 16 06     	call !0x616 <_strlen>
    32b6: a1           	incw ax
    32b7: 12           	movw bc, ax
    32b8: a8 1e        	movw ax, [sp+30]
    32ba: fd 92 37     	call !0x3792 <__malloc_r>
    32bd: 44 00 00     	cmpw ax, #0
    32c0: bf 86 f4     	movw !0xff486, ax               ; 0xff486 <_prev_tzenv>
    32c3: dd 07        	bz $0x32cc <__tzset_unlocked_r+0x6e>
    32c5: 33           	xchw ax, bc
    32c6: a8 20        	movw ax, [sp+32]
    32c8: 33           	xchw ax, bc
    32c9: fd 32 06     	call !0x632 <_strcpy>
    32cc: fd c8 36     	call !0x36c8 <_OUTLINED_FUNCTION_9>
    32cf: 30 24 62     	movw ax, #25124
    32d2: fd d3 36     	call !0x36d3 <_OUTLINED_FUNCTION_10>
    32d5: fd bc 36     	call !0x36bc <_OUTLINED_FUNCTION_8>
    32d8: b8 22        	movw [sp+34], ax
    32da: fd 7d 36     	call !0x367d <_OUTLINED_FUNCTION_3>
    32dd: b8 24        	movw [sp+36], ax
    32df: fd 55 06     	call !0x655 <_memcpy>
    32e2: a8 20        	movw ax, [sp+32]
    32e4: 14           	movw de, ax
    32e5: e7           	onew bc
    32e6: 89           	mov a, [de]
    32e7: 4c 3a        	cmp a, #58
    32e9: 15           	movw ax, de
    32ea: 61 e8        	skz
    32ec: f7           	clrw bc
    32ed: fd da 36     	call !0x36da <_OUTLINED_FUNCTION_11>
    32f0: ae f8        	movw ax, sp
    32f2: df 2e        	bnz $0x3322 <__tzset_unlocked_r+0xc4>
    32f4: 32 27 62     	movw bc, #25127
    32f7: fd a4 36     	call !0x36a4 <_OUTLINED_FUNCTION_6>
    32fa: a1           	incw ax
    32fb: b8 20        	movw [sp+32], ax
    32fd: fd 4f 41     	call !0x414f <_siscanf>
    3300: 01           	addw ax, ax
    3301: 61 e3        	skh
    3303: ee 40 03     	br $!0x3646 <__tzset_unlocked_r+0x3e8>
    3306: fd 69 36     	call !0x3669 <_OUTLINED_FUNCTION_1>
    3309: 61 d8        	sknc
    330b: ee 38 03     	br $!0x3646 <__tzset_unlocked_r+0x3e8>
    330e: a8 20        	movw ax, [sp+32]
    3310: 03           	addw ax, bc
    3311: 16           	movw hl, ax
    3312: 8b           	mov a, [hl]
    3313: 4c 3e        	cmp a, #62
    3315: 61 e8        	skz
    3317: ee 2c 03     	br $!0x3646 <__tzset_unlocked_r+0x3e8>
    331a: a8 1e        	movw ax, [sp+30]
    331c: a1           	incw ax
    331d: a1           	incw ax
    331e: b8 1e        	movw [sp+30], ax
    3320: ef 17        	br $0x3339 <__tzset_unlocked_r+0xdb>
    3322: 32 3a 62     	movw bc, #25146
    3325: fd a4 36     	call !0x36a4 <_OUTLINED_FUNCTION_6>
    3328: fd 4f 41     	call !0x414f <_siscanf>
    332b: 01           	addw ax, ax
    332c: 61 e3        	skh
    332e: ee 15 03     	br $!0x3646 <__tzset_unlocked_r+0x3e8>
    3331: fd 69 36     	call !0x3669 <_OUTLINED_FUNCTION_1>
    3334: 61 d8        	sknc
    3336: ee 0d 03     	br $!0x3646 <__tzset_unlocked_r+0x3e8>
    3339: fd e4 36     	call !0x36e4 <_OUTLINED_FUNCTION_12>
    333c: dd 06        	bz $0x3344 <__tzset_unlocked_r+0xe6>
    333e: 4c 2d        	cmp a, #45
    3340: df 03        	bnz $0x3345 <__tzset_unlocked_r+0xe7>
    3342: f7           	clrw bc
    3343: b3           	decw bc
    3344: a5           	incw de
    3345: 35           	xchw ax, de
    3346: b8 20        	movw [sp+32], ax
    3348: 35           	xchw ax, de
    3349: 13           	movw ax, bc
    334a: b8 1e        	movw [sp+30], ax
    334c: f6           	clrw ax
    334d: b8 10        	movw [sp+16], ax
    334f: b8 0e        	movw [sp+14], ax
    3351: 32 f9 61     	movw bc, #25081
    3354: ae f8        	movw ax, sp
    3356: fd f3 36     	call !0x36f3 <_OUTLINED_FUNCTION_14>
    3359: ae f8        	movw ax, sp
    335b: fd ed 36     	call !0x36ed <_OUTLINED_FUNCTION_13>
    335e: ae f8        	movw ax, sp
    3360: fd 73 36     	call !0x3673 <_OUTLINED_FUNCTION_2>
    3363: ae f8        	movw ax, sp
    3365: fd 00 37     	call !0x3700 <_OUTLINED_FUNCTION_16>
    3368: 15           	movw ax, de
    3369: fd 4f 41     	call !0x414f <_siscanf>
    336c: 01           	addw ax, ax
    336d: 61 e3        	skh
    336f: ee d4 02     	br $!0x3646 <__tzset_unlocked_r+0x3e8>
    3372: fd 49 36     	call !0x3649 <_OUTLINED_FUNCTION_0>
    3375: a8 1e        	movw ax, [sp+30]
    3377: fd 8c 36     	call !0x368c <_OUTLINED_FUNCTION_4>
    337a: fd 3e 0a     	call !0xa3e <___mulsi3>
    337d: b8 2a        	movw [sp+42], ax
    337f: 13           	movw ax, bc
    3380: b8 28        	movw [sp+40], ax
    3382: a8 18        	movw ax, [sp+24]
    3384: 33           	xchw ax, bc
    3385: a8 20        	movw ax, [sp+32]
    3387: 33           	xchw ax, bc
    3388: fd da 36     	call !0x36da <_OUTLINED_FUNCTION_11>
    338b: ae f8        	movw ax, sp
    338d: df 56        	bnz $0x33e5 <__tzset_unlocked_r+0x187>
    338f: 32 27 62     	movw bc, #25127
    3392: fd b0 36     	call !0x36b0 <_OUTLINED_FUNCTION_7>
    3395: a1           	incw ax
    3396: b8 20        	movw [sp+32], ax
    3398: fd 4f 41     	call !0x414f <_siscanf>
    339b: 35           	xchw ax, de
    339c: a8 20        	movw ax, [sp+32]
    339e: 35           	xchw ax, de
    339f: 01           	addw ax, ax
    33a0: 61 c3 27     	bh $0x33ca <__tzset_unlocked_r+0x16c>
    33a3: c5           	push de
    33a4: c6           	pop hl
    33a5: 8b           	mov a, [hl]
    33a6: 4c 3e        	cmp a, #62
    33a8: df 20        	bnz $0x33ca <__tzset_unlocked_r+0x16c>
    33aa: a8 2a        	movw ax, [sp+42]
    33ac: 14           	movw de, ax
    33ad: a8 1c        	movw ax, [sp+28]
    33af: 16           	movw hl, ax
    33b0: 15           	movw ax, de
    33b1: bc 16        	movw [hl+22], ax
    33b3: a8 28        	movw ax, [sp+40]
    33b5: 12           	movw bc, ax
    33b6: 13           	movw ax, bc
    33b7: bc 18        	movw [hl+24], ax
    33b9: 15           	movw ax, de
    33ba: bf 82 f4     	movw !0xff482, ax               ; 0xff482 <__timezone>
    33bd: 30 88 f4     	movw ax, #62600
    33c0: fd d3 36     	call !0x36d3 <_OUTLINED_FUNCTION_10>
    33c3: 13           	movw ax, bc
    33c4: bf 84 f4     	movw !0xff484, ax               ; 0xff484 <__timezone+0x2>
    33c7: ee 7c 02     	br $!0x3646 <__tzset_unlocked_r+0x3e8>
    33ca: fd 69 36     	call !0x3669 <_OUTLINED_FUNCTION_1>
    33cd: 61 d8        	sknc
    33cf: ee 74 02     	br $!0x3646 <__tzset_unlocked_r+0x3e8>
    33d2: 15           	movw ax, de
    33d3: 03           	addw ax, bc
    33d4: 16           	movw hl, ax
    33d5: 8b           	mov a, [hl]
    33d6: 4c 3e        	cmp a, #62
    33d8: 61 e8        	skz
    33da: ee 69 02     	br $!0x3646 <__tzset_unlocked_r+0x3e8>
    33dd: a8 1e        	movw ax, [sp+30]
    33df: a1           	incw ax
    33e0: a1           	incw ax
    33e1: b8 1e        	movw [sp+30], ax
    33e3: ef 15        	br $0x33fa <__tzset_unlocked_r+0x19c>
    33e5: 32 3a 62     	movw bc, #25146
    33e8: fd b0 36     	call !0x36b0 <_OUTLINED_FUNCTION_7>
    33eb: fd 4f 41     	call !0x414f <_siscanf>
    33ee: 01           	addw ax, ax
    33ef: 61 d3 b8     	bnh $0x33aa <__tzset_unlocked_r+0x14c>
    33f2: fd 69 36     	call !0x3669 <_OUTLINED_FUNCTION_1>
    33f5: 61 d8        	sknc
    33f7: ee 4c 02     	br $!0x3646 <__tzset_unlocked_r+0x3e8>
    33fa: fd e4 36     	call !0x36e4 <_OUTLINED_FUNCTION_12>
    33fd: dd 06        	bz $0x3405 <__tzset_unlocked_r+0x1a7>
    33ff: 4c 2d        	cmp a, #45
    3401: df 03        	bnz $0x3406 <__tzset_unlocked_r+0x1a8>
    3403: f7           	clrw bc
    3404: b3           	decw bc
    3405: a5           	incw de
    3406: 13           	movw ax, bc
    3407: b8 20        	movw [sp+32], ax
    3409: f6           	clrw ax
    340a: b8 0e        	movw [sp+14], ax
    340c: b8 0c        	movw [sp+12], ax
    340e: b8 10        	movw [sp+16], ax
    3410: b8 18        	movw [sp+24], ax
    3412: 32 f9 61     	movw bc, #25081
    3415: ae f8        	movw ax, sp
    3417: fd f3 36     	call !0x36f3 <_OUTLINED_FUNCTION_14>
    341a: ae f8        	movw ax, sp
    341c: fd ed 36     	call !0x36ed <_OUTLINED_FUNCTION_13>
    341f: ae f8        	movw ax, sp
    3421: fd 73 36     	call !0x3673 <_OUTLINED_FUNCTION_2>
    3424: ae f8        	movw ax, sp
    3426: fd 00 37     	call !0x3700 <_OUTLINED_FUNCTION_16>
    3429: 35           	xchw ax, de
    342a: b8 1e        	movw [sp+30], ax
    342c: 35           	xchw ax, de
    342d: 15           	movw ax, de
    342e: fd 4f 41     	call !0x414f <_siscanf>
    3431: 01           	addw ax, ax
    3432: 61 c3 12     	bh $0x3447 <__tzset_unlocked_r+0x1e9>
    3435: a8 2a        	movw ax, [sp+42]
    3437: 04 f0 f1     	addw ax, #61936
    343a: b8 2e        	movw [sp+46], ax
    343c: a8 28        	movw ax, [sp+40]
    343e: dc 03        	bc $0x3443 <__tzset_unlocked_r+0x1e5>
    3440: a8 28        	movw ax, [sp+40]
    3442: b1           	decw ax
    3443: b8 2c        	movw [sp+44], ax
    3445: ef 10        	br $0x3457 <__tzset_unlocked_r+0x1f9>
    3447: fd 49 36     	call !0x3649 <_OUTLINED_FUNCTION_0>
    344a: a8 20        	movw ax, [sp+32]
    344c: fd 8c 36     	call !0x368c <_OUTLINED_FUNCTION_4>
    344f: fd 3e 0a     	call !0xa3e <___mulsi3>
    3452: b8 2e        	movw [sp+46], ax
    3454: 13           	movw ax, bc
    3455: b8 2c        	movw [sp+44], ax
    3457: a8 1e        	movw ax, [sp+30]
    3459: 12           	movw bc, ax
    345a: a8 18        	movw ax, [sp+24]
    345c: 03           	addw ax, bc
    345d: 14           	movw de, ax
    345e: f7           	clrw bc
    345f: 13           	movw ax, bc
    3460: 44 02 00     	cmpw ax, #2
    3463: 61 f8        	sknz
    3465: ee 87 01     	br $!0x35ef <__tzset_unlocked_r+0x391>
    3468: 13           	movw ax, bc
    3469: b8 20        	movw [sp+32], ax
    346b: e7           	onew bc
    346c: 89           	mov a, [de]
    346d: 4c 2c        	cmp a, #44
    346f: 61 e8        	skz
    3471: f7           	clrw bc
    3472: 15           	movw ax, de
    3473: 03           	addw ax, bc
    3474: 14           	movw de, ax
    3475: 89           	mov a, [de]
    3476: 4c 4d        	cmp a, #77
    3478: 61 e8        	skz
    347a: ee 7b 00     	br $!0x34f8 <__tzset_unlocked_r+0x29a>
    347d: 32 81 63     	movw bc, #25473
    3480: ae f8        	movw ax, sp
    3482: 04 16 00     	addw ax, #22
    3485: b8 08        	movw [sp+8], ax
    3487: ae f8        	movw ax, sp
    3489: 04 14 00     	addw ax, #20
    348c: b8 04        	movw [sp+4], ax
    348e: ae f8        	movw ax, sp
    3490: fd 73 36     	call !0x3673 <_OUTLINED_FUNCTION_2>
    3493: ae f8        	movw ax, sp
    3495: 04 12 00     	addw ax, #18
    3498: b8 00        	movw [sp+0], ax
    349a: 35           	xchw ax, de
    349b: b8 1e        	movw [sp+30], ax
    349d: 35           	xchw ax, de
    349e: 15           	movw ax, de
    349f: fd 4f 41     	call !0x414f <_siscanf>
    34a2: 44 03 00     	cmpw ax, #3
    34a5: 61 e8        	skz
    34a7: ee 9c 01     	br $!0x3646 <__tzset_unlocked_r+0x3e8>
    34aa: a8 12        	movw ax, [sp+18]
    34ac: 12           	movw bc, ax
    34ad: 04 f3 ff     	addw ax, #65523
    34b0: 44 f4 ff     	cmpw ax, #65524
    34b3: 61 d8        	sknc
    34b5: ee 8e 01     	br $!0x3646 <__tzset_unlocked_r+0x3e8>
    34b8: a8 14        	movw ax, [sp+20]
    34ba: 16           	movw hl, ax
    34bb: 04 fa ff     	addw ax, #65530
    34be: 44 fb ff     	cmpw ax, #65531
    34c1: 61 d8        	sknc
    34c3: ee 80 01     	br $!0x3646 <__tzset_unlocked_r+0x3e8>
    34c6: a8 16        	movw ax, [sp+22]
    34c8: 14           	movw de, ax
    34c9: 44 06 00     	cmpw ax, #6
    34cc: 61 f3        	sknh
    34ce: ee 75 01     	br $!0x3646 <__tzset_unlocked_r+0x3e8>
    34d1: a8 20        	movw ax, [sp+32]
    34d3: 33           	xchw ax, bc
    34d4: b8 26        	movw [sp+38], ax
    34d6: 33           	xchw ax, bc
    34d7: 32 16 00     	movw bc, #22
    34da: fd 9b 36     	call !0x369b <_OUTLINED_FUNCTION_5>
    34dd: c7           	push hl
    34de: c2           	pop bc
    34df: 16           	movw hl, ax
    34e0: 15           	movw ax, de
    34e1: bc 0a        	movw [hl+10], ax
    34e3: 13           	movw ax, bc
    34e4: bc 08        	movw [hl+8], ax
    34e6: a8 26        	movw ax, [sp+38]
    34e8: cc 04 4d     	mov [hl+4], #77
    34eb: bc 06        	movw [hl+6], ax
    34ed: a8 18        	movw ax, [sp+24]
    34ef: 33           	xchw ax, bc
    34f0: a8 1e        	movw ax, [sp+30]
    34f2: 33           	xchw ax, bc
    34f3: 03           	addw ax, bc
    34f4: 12           	movw bc, ax
    34f5: ee 73 00     	br $!0x356b <__tzset_unlocked_r+0x30d>
    34f8: 4c 4a        	cmp a, #74
    34fa: e7           	onew bc
    34fb: 98 26        	mov [sp+38], a
    34fd: 61 e8        	skz
    34ff: f7           	clrw bc
    3500: 15           	movw ax, de
    3501: 03           	addw ax, bc
    3502: 16           	movw hl, ax
    3503: 37           	xchw ax, hl
    3504: b8 1e        	movw [sp+30], ax
    3506: 37           	xchw ax, hl
    3507: 34 0a 00     	movw de, #10
    350a: ae f8        	movw ax, sp
    350c: 04 1a 00     	addw ax, #26
    350f: 12           	movw bc, ax
    3510: 17           	movw ax, hl
    3511: fd 83 43     	call !0x4383 <_strtoul>
    3514: b8 16        	movw [sp+22], ax
    3516: 16           	movw hl, ax
    3517: a8 1a        	movw ax, [sp+26]
    3519: 35           	xchw ax, de
    351a: a8 1e        	movw ax, [sp+30]
    351c: 35           	xchw ax, de
    351d: 12           	movw bc, ax
    351e: 45           	cmpw ax, de
    351f: df 2c        	bnz $0x354d <__tzset_unlocked_r+0x2ef>
    3521: a8 20        	movw ax, [sp+32]
    3523: 37           	xchw ax, hl
    3524: a8 1c        	movw ax, [sp+28]
    3526: 37           	xchw ax, hl
    3527: 44 00 00     	cmpw ax, #0
    352a: f6           	clrw ax
    352b: df 11        	bnz $0x353e <__tzset_unlocked_r+0x2e0>
    352d: bc 0a        	movw [hl+10], ax
    352f: 30 02 00     	movw ax, #2
    3532: bc 08        	movw [hl+8], ax
    3534: 30 03 00     	movw ax, #3
    3537: bc 06        	movw [hl+6], ax
    3539: cc 04 4d     	mov [hl+4], #77
    353c: ef 2d        	br $0x356b <__tzset_unlocked_r+0x30d>
    353e: bc 20        	movw [hl+32], ax
    3540: e6           	onew ax
    3541: bc 1e        	movw [hl+30], ax
    3543: 30 0b 00     	movw ax, #11
    3546: bc 1c        	movw [hl+28], ax
    3548: cc 1a 4d     	mov [hl+26], #77
    354b: ef 1e        	br $0x356b <__tzset_unlocked_r+0x30d>
    354d: 13           	movw ax, bc
    354e: b8 1e        	movw [sp+30], ax
    3550: 32 16 00     	movw bc, #22
    3553: a8 20        	movw ax, [sp+32]
    3555: fd 9b 36     	call !0x369b <_OUTLINED_FUNCTION_5>
    3558: 14           	movw de, ax
    3559: 17           	movw ax, hl
    355a: ba 0a        	movw [de+10], ax
    355c: 88 26        	mov a, [sp+38]
    355e: 4c 4a        	cmp a, #74
    3560: 51 4a        	mov a, #74
    3562: 61 e8        	skz
    3564: 51 44        	mov a, #68
    3566: 9a 04        	mov [de+4], a
    3568: a8 1e        	movw ax, [sp+30]
    356a: 12           	movw bc, ax
    356b: 30 02 00     	movw ax, #2
    356e: b8 0c        	movw [sp+12], ax
    3570: f6           	clrw ax
    3571: b8 0e        	movw [sp+14], ax
    3573: b8 10        	movw [sp+16], ax
    3575: b8 18        	movw [sp+24], ax
    3577: 33           	xchw ax, bc
    3578: b8 1e        	movw [sp+30], ax
    357a: 33           	xchw ax, bc
    357b: c3           	push bc
    357c: c4           	pop de
    357d: 89           	mov a, [de]
    357e: 4c 2f        	cmp a, #47
    3580: df 39        	bnz $0x35bb <__tzset_unlocked_r+0x35d>
    3582: 32 90 62     	movw bc, #25232
    3585: ae f8        	movw ax, sp
    3587: fd f3 36     	call !0x36f3 <_OUTLINED_FUNCTION_14>
    358a: ae f8        	movw ax, sp
    358c: fd ed 36     	call !0x36ed <_OUTLINED_FUNCTION_13>
    358f: ae f8        	movw ax, sp
    3591: fd 73 36     	call !0x3673 <_OUTLINED_FUNCTION_2>
    3594: ae f8        	movw ax, sp
    3596: fd 00 37     	call !0x3700 <_OUTLINED_FUNCTION_16>
    3599: a8 1e        	movw ax, [sp+30]
    359b: fd 4f 41     	call !0x414f <_siscanf>
    359e: 01           	addw ax, ax
    359f: 61 c3 19     	bh $0x35bb <__tzset_unlocked_r+0x35d>
    35a2: 34 16 00     	movw de, #22
    35a5: 32 26 67     	movw bc, #26406
    35a8: a8 22        	movw ax, [sp+34]
    35aa: fd 55 06     	call !0x655 <_memcpy>
    35ad: 34 16 00     	movw de, #22
    35b0: 32 26 67     	movw bc, #26406
    35b3: a8 24        	movw ax, [sp+36]
    35b5: fd 55 06     	call !0x655 <_memcpy>
    35b8: ee 8b 00     	br $!0x3646 <__tzset_unlocked_r+0x3e8>
    35bb: 32 10 0e     	movw bc, #3600
    35be: a8 0c        	movw ax, [sp+12]
    35c0: ce fb 01     	mulhu
    35c3: 14           	movw de, ax
    35c4: 32 3c 00     	movw bc, #60
    35c7: a8 0e        	movw ax, [sp+14]
    35c9: ce fb 01     	mulhu
    35cc: 12           	movw bc, ax
    35cd: a8 10        	movw ax, [sp+16]
    35cf: 37           	xchw ax, hl
    35d0: a8 20        	movw ax, [sp+32]
    35d2: 37           	xchw ax, hl
    35d3: 03           	addw ax, bc
    35d4: 32 16 00     	movw bc, #22
    35d7: 05           	addw ax, de
    35d8: 14           	movw de, ax
    35d9: 17           	movw ax, hl
    35da: fd 9b 36     	call !0x369b <_OUTLINED_FUNCTION_5>
    35dd: c7           	push hl
    35de: c2           	pop bc
    35df: 16           	movw hl, ax
    35e0: a3           	incw bc
    35e1: 15           	movw ax, de
    35e2: bc 0c        	movw [hl+12], ax
    35e4: a8 18        	movw ax, [sp+24]
    35e6: 35           	xchw ax, de
    35e7: a8 1e        	movw ax, [sp+30]
    35e9: 35           	xchw ax, de
    35ea: 05           	addw ax, de
    35eb: 14           	movw de, ax
    35ec: ee 70 fe     	br $!0x345f <__tzset_unlocked_r+0x201>
    35ef: a8 2e        	movw ax, [sp+46]
    35f1: 37           	xchw ax, hl
    35f2: a8 1c        	movw ax, [sp+28]
    35f4: 37           	xchw ax, hl
    35f5: bc 2c        	movw [hl+44], ax
    35f7: a8 2a        	movw ax, [sp+42]
    35f9: bc 16        	movw [hl+22], ax
    35fb: a8 2c        	movw ax, [sp+44]
    35fd: bc 2e        	movw [hl+46], ax
    35ff: a8 28        	movw ax, [sp+40]
    3601: bc 18        	movw [hl+24], ax
    3603: 30 94 f4     	movw ax, #62612
    3606: bf 7e f0     	movw !0xff07e, ax               ; 0xff07e <__tzname+0x2>
    3609: 30 88 f4     	movw ax, #62600
    360c: bf 7c f0     	movw !0xff07c, ax               ; 0xff07c <__tzname>
    360f: ac 02        	movw ax, [hl+2]
    3611: fd d0 2c     	call !0x2cd0 <___tzcalc_limits>
    3614: a8 1c        	movw ax, [sp+28]
    3616: 16           	movw hl, ax
    3617: ac 18        	movw ax, [hl+24]
    3619: 12           	movw bc, ax
    361a: bf 84 f4     	movw !0xff484, ax               ; 0xff484 <__timezone+0x2>
    361d: c7           	push hl
    361e: c4           	pop de
    361f: ac 16        	movw ax, [hl+22]
    3621: b8 1e        	movw [sp+30], ax
    3623: bf 82 f4     	movw !0xff482, ax               ; 0xff482 <__timezone>
    3626: 13           	movw ax, bc
    3627: 7e 2f        	xor a, [hl+47]
    3629: 08           	xch a, x
    362a: 7e 2e        	xor a, [hl+46]
    362c: 08           	xch a, x
    362d: 12           	movw bc, ax
    362e: a8 1e        	movw ax, [sp+30]
    3630: 7e 2d        	xor a, [hl+45]
    3632: 08           	xch a, x
    3633: 7e 2c        	xor a, [hl+44]
    3635: 08           	xch a, x
    3636: 61 6b        	or a, b
    3638: 08           	xch a, x
    3639: 61 6a        	or a, c
    363b: 08           	xch a, x
    363c: 44 00 00     	cmpw ax, #0
    363f: e6           	onew ax
    3640: 61 f8        	sknz
    3642: f6           	clrw ax
    3643: bf 80 f4     	movw !0xff480, ax               ; 0xff480 <__daylight>
    3646: 10 30        	addw sp, #48
    3648: d7           	ret

00003649 <_OUTLINED_FUNCTION_0>:
    3649: 34 00 00     	movw de, #0
    364c: a8 12        	movw ax, [sp+18]
    364e: 12           	movw bc, ax
    364f: a8 14        	movw ax, [sp+20]
    3651: bf f0 ff     	movw !0xffff0, ax               ; 0xffff0 <__stack+0x1d0>
    3654: 35           	xchw ax, de
    3655: bf f2 ff     	movw !0xffff2, ax               ; 0xffff2 <__stack+0x1d2>
    3658: 35           	xchw ax, de
    3659: 13           	movw ax, bc
    365a: 32 3c 00     	movw bc, #60
    365d: ce fb 05     	machu
    3660: 32 10 0e     	movw bc, #3600
    3663: a8 10        	movw ax, [sp+16]
    3665: ce fb 05     	machu
    3668: d7           	ret

00003669 <_OUTLINED_FUNCTION_1>:
    3669: a8 1c        	movw ax, [sp+28]
    366b: 12           	movw bc, ax
    366c: 04 f5 ff     	addw ax, #65525
    366f: 44 f8 ff     	cmpw ax, #65528
    3672: d7           	ret

00003673 <_OUTLINED_FUNCTION_2>:
    3673: 04 18 00     	addw ax, #24
    3676: b8 0e        	movw [sp+14], ax
    3678: b8 0a        	movw [sp+10], ax
    367a: b8 06        	movw [sp+6], ax
    367c: d7           	ret

0000367d <_OUTLINED_FUNCTION_3>:
    367d: fd 55 06     	call !0x655 <_memcpy>
    3680: 34 16 00     	movw de, #22
    3683: 32 26 67     	movw bc, #26406
    3686: a8 20        	movw ax, [sp+32]
    3688: 04 1a 00     	addw ax, #26
    368b: d7           	ret

0000368c <_OUTLINED_FUNCTION_4>:
    368c: b8 04        	movw [sp+4], ax
    368e: 31 ff        	sarw ax, 15
    3690: b8 06        	movw [sp+6], ax
    3692: 33           	xchw ax, bc
    3693: af f2 ff     	movw ax, !0xffff2               ; 0xffff2 <__stack+0x1d2>
    3696: 33           	xchw ax, bc
    3697: af f0 ff     	movw ax, !0xffff0               ; 0xffff0 <__stack+0x1d0>
    369a: d7           	ret

0000369b <_OUTLINED_FUNCTION_5>:
    369b: ce fb 01     	mulhu
    369e: 33           	xchw ax, bc
    369f: a8 20        	movw ax, [sp+32]
    36a1: 33           	xchw ax, bc
    36a2: 03           	addw ax, bc
    36a3: d7           	ret

000036a4 <_OUTLINED_FUNCTION_6>:
    36a4: 04 18 00     	addw ax, #24
    36a7: b8 06        	movw [sp+6], ax
    36a9: 30 88 f4     	movw ax, #62600
    36ac: b8 04        	movw [sp+4], ax
    36ae: 15           	movw ax, de
    36af: d7           	ret

000036b0 <_OUTLINED_FUNCTION_7>:
    36b0: 04 18 00     	addw ax, #24
    36b3: b8 06        	movw [sp+6], ax
    36b5: 30 94 f4     	movw ax, #62612
    36b8: b8 04        	movw [sp+4], ax
    36ba: 15           	movw ax, de
    36bb: d7           	ret

000036bc <_OUTLINED_FUNCTION_8>:
    36bc: 34 16 00     	movw de, #22
    36bf: 32 26 67     	movw bc, #26406
    36c2: a8 20        	movw ax, [sp+32]
    36c4: 04 04 00     	addw ax, #4
    36c7: d7           	ret

000036c8 <_OUTLINED_FUNCTION_9>:
    36c8: f6           	clrw ax
    36c9: bf 84 f4     	movw !0xff484, ax               ; 0xff484 <__timezone+0x2>
    36cc: bf 82 f4     	movw !0xff482, ax               ; 0xff482 <__timezone>
    36cf: bf 80 f4     	movw !0xff480, ax               ; 0xff480 <__daylight>
    36d2: d7           	ret

000036d3 <_OUTLINED_FUNCTION_10>:
    36d3: bf 7e f0     	movw !0xff07e, ax               ; 0xff07e <__tzname+0x2>
    36d6: bf 7c f0     	movw !0xff07c, ax               ; 0xff07c <__tzname>
    36d9: d7           	ret

000036da <_OUTLINED_FUNCTION_11>:
    36da: 03           	addw ax, bc
    36db: 14           	movw de, ax
    36dc: 89           	mov a, [de]
    36dd: 35           	xchw ax, de
    36de: b8 22        	movw [sp+34], ax
    36e0: 35           	xchw ax, de
    36e1: 4c 3c        	cmp a, #60
    36e3: d7           	ret

000036e4 <_OUTLINED_FUNCTION_12>:
    36e4: a8 22        	movw ax, [sp+34]
    36e6: 03           	addw ax, bc
    36e7: 14           	movw de, ax
    36e8: e7           	onew bc
    36e9: 89           	mov a, [de]
    36ea: 4c 2b        	cmp a, #43
    36ec: d7           	ret

000036ed <_OUTLINED_FUNCTION_13>:
    36ed: 04 0e 00     	addw ax, #14
    36f0: b8 08        	movw [sp+8], ax
    36f2: d7           	ret

000036f3 <_OUTLINED_FUNCTION_14>:
    36f3: 04 10 00     	addw ax, #16
    36f6: b8 0c        	movw [sp+12], ax
    36f8: d7           	ret

000036f9 <_OUTLINED_FUNCTION_15>:
    36f9: af 86 f4     	movw ax, !0xff486               ; 0xff486 <_prev_tzenv>
    36fc: fd b2 43     	call !0x43b2 <_free>
    36ff: d7           	ret

00003700 <_OUTLINED_FUNCTION_16>:
    3700: 04 0c 00     	addw ax, #12
    3703: b8 04        	movw [sp+4], ax
    3705: d7           	ret

00003706 <__findenv_r>:
    3706: 20 0a        	subw sp, #10
    3708: 35           	xchw ax, de
    3709: b8 08        	movw [sp+8], ax
    370b: 35           	xchw ax, de
    370c: 33           	xchw ax, bc
    370d: b8 04        	movw [sp+4], ax
    370f: 33           	xchw ax, bc
    3710: b8 06        	movw [sp+6], ax
    3712: fd 90 37     	call !0x3790 <___env_lock>
    3715: db 80 f0     	movw bc, !0xff080               ; 0xff080 <_environ>
    3718: a8 04        	movw ax, [sp+4]
    371a: 16           	movw hl, ax
    371b: 13           	movw ax, bc
    371c: 44 00 00     	cmpw ax, #0
    371f: dd 5b        	bz $0x377c <__findenv_r+0x76>
    3721: 8b           	mov a, [hl]
    3722: d1           	cmp0 a
    3723: dd 07        	bz $0x372c <__findenv_r+0x26>
    3725: 4c 3d        	cmp a, #61
    3727: dd 53        	bz $0x377c <__findenv_r+0x76>
    3729: a7           	incw hl
    372a: ef f5        	br $0x3721 <__findenv_r+0x1b>
    372c: 17           	movw ax, hl
    372d: c3           	push bc
    372e: c6           	pop hl
    372f: 33           	xchw ax, bc
    3730: a8 04        	movw ax, [sp+4]
    3732: 33           	xchw ax, bc
    3733: 23           	subw ax, bc
    3734: b8 02        	movw [sp+2], ax
    3736: ab           	movw ax, [hl]
    3737: 44 00 00     	cmpw ax, #0
    373a: dd 40        	bz $0x377c <__findenv_r+0x76>
    373c: 35           	xchw ax, de
    373d: a8 02        	movw ax, [sp+2]
    373f: 35           	xchw ax, de
    3740: 37           	xchw ax, hl
    3741: b8 00        	movw [sp+0], ax
    3743: 37           	xchw ax, hl
    3744: 33           	xchw ax, bc
    3745: a8 04        	movw ax, [sp+4]
    3747: 33           	xchw ax, bc
    3748: fd 3f 06     	call !0x63f <_strncmp>
    374b: 37           	xchw ax, hl
    374c: a8 00        	movw ax, [sp+0]
    374e: 37           	xchw ax, hl
    374f: 44 00 00     	cmpw ax, #0
    3752: df 24        	bnz $0x3778 <__findenv_r+0x72>
    3754: a8 02        	movw ax, [sp+2]
    3756: 61 09 00     	addw ax, [hl]
    3759: 14           	movw de, ax
    375a: 89           	mov a, [de]
    375b: 4c 3d        	cmp a, #61
    375d: df 19        	bnz $0x3778 <__findenv_r+0x72>
    375f: 17           	movw ax, hl
    3760: 22 80 f0     	subw ax, !0xff080               ; 0xff080 <_environ>
    3763: 37           	xchw ax, hl
    3764: a8 08        	movw ax, [sp+8]
    3766: 37           	xchw ax, hl
    3767: 31 1f        	sarw ax, 1
    3769: bb           	movw [hl], ax
    376a: a8 06        	movw ax, [sp+6]
    376c: 35           	xchw ax, de
    376d: b8 00        	movw [sp+0], ax
    376f: 35           	xchw ax, de
    3770: fd 91 37     	call !0x3791 <___env_unlock>
    3773: a8 00        	movw ax, [sp+0]
    3775: a1           	incw ax
    3776: ef 0a        	br $0x3782 <__findenv_r+0x7c>
    3778: a7           	incw hl
    3779: a7           	incw hl
    377a: ef ba        	br $0x3736 <__findenv_r+0x30>
    377c: a8 06        	movw ax, [sp+6]
    377e: fd 91 37     	call !0x3791 <___env_unlock>
    3781: f6           	clrw ax
    3782: 10 0a        	addw sp, #10
    3784: d7           	ret

00003785 <__getenv_r>:
    3785: c1           	push ax
    3786: 16           	movw hl, ax
    3787: ae f8        	movw ax, sp
    3789: 14           	movw de, ax
    378a: 17           	movw ax, hl
    378b: fd 06 37     	call !0x3706 <__findenv_r>
    378e: c6           	pop hl
    378f: d7           	ret

00003790 <___env_lock>:
    3790: d7           	ret

00003791 <___env_unlock>:
    3791: d7           	ret

00003792 <__malloc_r>:
    3792: 20 14        	subw sp, #20
    3794: b8 06        	movw [sp+6], ax
    3796: 13           	movw ax, bc
    3797: 04 09 00     	addw ax, #9
    379a: 16           	movw hl, ax
    379b: 08           	xch a, x
    379c: 5c f8        	and a, #248
    379e: 08           	xch a, x
    379f: 14           	movw de, ax
    37a0: 17           	movw ax, hl
    37a1: 44 0f 00     	cmpw ax, #15
    37a4: 36 08 00     	movw hl, #8
    37a7: dc 02        	bc $0x37ab <__malloc_r+0x19>
    37a9: c5           	push de
    37aa: c6           	pop hl
    37ab: 67           	mov a, h
    37ac: 31 73 04     	bt a.7, $0x37b3 <__malloc_r+0x21>
    37af: 17           	movw ax, hl
    37b0: 43           	cmpw ax, bc
    37b1: de 0b        	bnc $0x37be <__malloc_r+0x2c>
    37b3: a8 06        	movw ax, [sp+6]
    37b5: 16           	movw hl, ax
    37b6: 30 0c 00     	movw ax, #12
    37b9: bb           	movw [hl], ax
    37ba: f6           	clrw ax
    37bb: ee 01 04     	br $!0x3bbf <__malloc_r+0x42d>
    37be: a8 06        	movw ax, [sp+6]
    37c0: 37           	xchw ax, hl
    37c1: b8 00        	movw [sp+0], ax
    37c3: 37           	xchw ax, hl
    37c4: fd 03 3e     	call !0x3e03 <___malloc_lock>
    37c7: a8 00        	movw ax, [sp+0]
    37c9: 44 f7 01     	cmpw ax, #503
    37cc: 61 c3 49     	bh $0x3818 <__malloc_r+0x86>
    37cf: 34 86 f0     	movw de, #61574
    37d2: 36 82 f0     	movw hl, #61570
    37d5: 31 1e        	shrw ax, 1
    37d7: 12           	movw bc, ax
    37d8: 05           	addw ax, de
    37d9: 14           	movw de, ax
    37da: 13           	movw ax, bc
    37db: 07           	addw ax, hl
    37dc: 16           	movw hl, ax
    37dd: 79 88 f0     	movw ax, 61576[bc]              ; 0xff088 <___malloc_av_+0x6>
    37e0: 12           	movw bc, ax
    37e1: 47           	cmpw ax, hl
    37e2: df 05        	bnz $0x37e9 <__malloc_r+0x57>
    37e4: aa 06        	movw ax, [de+6]
    37e6: 12           	movw bc, ax
    37e7: c5           	push de
    37e8: c6           	pop hl
    37e9: 13           	movw ax, bc
    37ea: 47           	cmpw ax, hl
    37eb: dd 22        	bz $0x380f <__malloc_r+0x7d>
    37ed: c3           	push bc
    37ee: c4           	pop de
    37ef: aa 06        	movw ax, [de+6]
    37f1: 12           	movw bc, ax
    37f2: aa 04        	movw ax, [de+4]
    37f4: 16           	movw hl, ax
    37f5: 13           	movw ax, bc
    37f6: bc 06        	movw [hl+6], ax
    37f8: 17           	movw ax, hl
    37f9: c3           	push bc
    37fa: c6           	pop hl
    37fb: bc 04        	movw [hl+4], ax
    37fd: 35           	xchw ax, de
    37fe: b8 02        	movw [sp+2], ax
    3800: 35           	xchw ax, de
    3801: aa 02        	movw ax, [de+2]
    3803: fd d5 3d     	call !0x3dd5 <_OUTLINED_FUNCTION_10>
    3806: 05           	addw ax, de
    3807: a1           	incw ax
    3808: a1           	incw ax
    3809: 16           	movw hl, ax
    380a: 71 82        	set1 [hl].0
    380c: ee a8 03     	br $!0x3bb7 <__malloc_r+0x425>
    380f: a8 00        	movw ax, [sp+0]
    3811: 31 3e        	shrw ax, 3
    3813: a1           	incw ax
    3814: a1           	incw ax
    3815: 14           	movw de, ax
    3816: ef 6a        	br $0x3882 <__malloc_r+0xf0>
    3818: 32 3f 00     	movw bc, #63
    381b: 44 00 02     	cmpw ax, #512
    381e: dc 20        	bc $0x3840 <__malloc_r+0xae>
    3820: 44 ff 09     	cmpw ax, #2559
    3823: 61 c3 07     	bh $0x382d <__malloc_r+0x9b>
    3826: 31 6e        	shrw ax, 6
    3828: 04 38 00     	addw ax, #56
    382b: ef 12        	br $0x383f <__malloc_r+0xad>
    382d: 44 ff 29     	cmpw ax, #10751
    3830: 61 c3 07     	bh $0x383a <__malloc_r+0xa8>
    3833: 31 9e        	shrw ax, 9
    3835: 04 5b 00     	addw ax, #91
    3838: ef 05        	br $0x383f <__malloc_r+0xad>
    383a: 31 ce        	shrw ax, 12
    383c: 04 6e 00     	addw ax, #110
    383f: 12           	movw bc, ax
    3840: 34 88 f0     	movw de, #61576
    3843: 33           	xchw ax, bc
    3844: b8 04        	movw [sp+4], ax
    3846: 33           	xchw ax, bc
    3847: 36 82 f0     	movw hl, #61570
    384a: 13           	movw ax, bc
    384b: 31 2d        	shlw ax, 2
    384d: 12           	movw bc, ax
    384e: 05           	addw ax, de
    384f: 14           	movw de, ax
    3850: 13           	movw ax, bc
    3851: 07           	addw ax, hl
    3852: b8 02        	movw [sp+2], ax
    3854: a8 00        	movw ax, [sp+0]
    3856: 16           	movw hl, ax
    3857: a9           	movw ax, [de]
    3858: 12           	movw bc, ax
    3859: a8 02        	movw ax, [sp+2]
    385b: 43           	cmpw ax, bc
    385c: dd 20        	bz $0x387e <__malloc_r+0xec>
    385e: c3           	push bc
    385f: c4           	pop de
    3860: aa 02        	movw ax, [de+2]
    3862: 14           	movw de, ax
    3863: fd d5 3d     	call !0x3dd5 <_OUTLINED_FUNCTION_10>
    3866: 47           	cmpw ax, hl
    3867: 61 d8        	sknc
    3869: ee 7a 00     	br $!0x38e6 <__malloc_r+0x154>
    386c: b8 02        	movw [sp+2], ax
    386e: 15           	movw ax, de
    386f: 35           	xchw ax, de
    3870: a8 00        	movw ax, [sp+0]
    3872: 35           	xchw ax, de
    3873: 25           	subw ax, de
    3874: 44 08 00     	cmpw ax, #8
    3877: dc 53        	bc $0x38cc <__malloc_r+0x13a>
    3879: a8 04        	movw ax, [sp+4]
    387b: b1           	decw ax
    387c: b8 04        	movw [sp+4], ax
    387e: a8 04        	movw ax, [sp+4]
    3880: 14           	movw de, ax
    3881: a5           	incw de
    3882: 32 82 f2     	movw bc, #62082
    3885: af 86 f2     	movw ax, !0xff286               ; 0xff286 <___malloc_av_+0x204>
    3888: 35           	xchw ax, de
    3889: b8 04        	movw [sp+4], ax
    388b: 35           	xchw ax, de
    388c: 43           	cmpw ax, bc
    388d: 61 f8        	sknz
    388f: ee 5b 01     	br $!0x39ed <__malloc_r+0x25b>
    3892: b8 0a        	movw [sp+10], ax
    3894: 14           	movw de, ax
    3895: aa 02        	movw ax, [de+2]
    3897: 35           	xchw ax, de
    3898: a8 00        	movw ax, [sp+0]
    389a: 35           	xchw ax, de
    389b: 16           	movw hl, ax
    389c: fd d5 3d     	call !0x3dd5 <_OUTLINED_FUNCTION_10>
    389f: 12           	movw bc, ax
    38a0: 45           	cmpw ax, de
    38a1: 61 d8        	sknc
    38a3: ee 65 00     	br $!0x390b <__malloc_r+0x179>
    38a6: 33           	xchw ax, bc
    38a7: b8 08        	movw [sp+8], ax
    38a9: 33           	xchw ax, bc
    38aa: 13           	movw ax, bc
    38ab: 25           	subw ax, de
    38ac: 12           	movw bc, ax
    38ad: 44 07 00     	cmpw ax, #7
    38b0: c5           	push de
    38b1: c6           	pop hl
    38b2: 61 c3 39     	bh $0x38ee <__malloc_r+0x15c>
    38b5: fd be 3d     	call !0x3dbe <_OUTLINED_FUNCTION_7>
    38b8: a8 0a        	movw ax, [sp+10]
    38ba: 33           	xchw ax, bc
    38bb: a8 08        	movw ax, [sp+8]
    38bd: 33           	xchw ax, bc
    38be: 03           	addw ax, bc
    38bf: a1           	incw ax
    38c0: a1           	incw ax
    38c1: 16           	movw hl, ax
    38c2: 71 82        	set1 [hl].0
    38c4: fd c8 3d     	call !0x3dc8 <_OUTLINED_FUNCTION_8>
    38c7: a8 0a        	movw ax, [sp+10]
    38c9: ee f0 02     	br $!0x3bbc <__malloc_r+0x42a>
    38cc: c3           	push bc
    38cd: c4           	pop de
    38ce: aa 06        	movw ax, [de+6]
    38d0: b8 00        	movw [sp+0], ax
    38d2: 33           	xchw ax, bc
    38d3: b8 08        	movw [sp+8], ax
    38d5: 33           	xchw ax, bc
    38d6: fd b2 3d     	call !0x3db2 <_OUTLINED_FUNCTION_6>
    38d9: c5           	push de
    38da: c6           	pop hl
    38db: fd 8c 3d     	call !0x3d8c <_OUTLINED_FUNCTION_3>
    38de: fd c8 3d     	call !0x3dc8 <_OUTLINED_FUNCTION_8>
    38e1: a8 08        	movw ax, [sp+8]
    38e3: ee d6 02     	br $!0x3bbc <__malloc_r+0x42a>
    38e6: 13           	movw ax, bc
    38e7: 04 06 00     	addw ax, #6
    38ea: 14           	movw de, ax
    38eb: ee 69 ff     	br $!0x3857 <__malloc_r+0xc5>
    38ee: a8 0a        	movw ax, [sp+10]
    38f0: 14           	movw de, ax
    38f1: 17           	movw ax, hl
    38f2: fd f3 3d     	call !0x3df3 <_OUTLINED_FUNCTION_14>
    38f5: b8 02        	movw [sp+2], ax
    38f7: a8 08        	movw ax, [sp+8]
    38f9: 12           	movw bc, ax
    38fa: 15           	movw ax, de
    38fb: 03           	addw ax, bc
    38fc: 33           	xchw ax, bc
    38fd: a8 02        	movw ax, [sp+2]
    38ff: fd 9a 3d     	call !0x3d9a <_OUTLINED_FUNCTION_4>
    3902: fd 70 3d     	call !0x3d70 <_OUTLINED_FUNCTION_1>
    3905: fd eb 3d     	call !0x3deb <_OUTLINED_FUNCTION_13>
    3908: ee b9 ff     	br $!0x38c4 <__malloc_r+0x132>
    390b: fd be 3d     	call !0x3dbe <_OUTLINED_FUNCTION_7>
    390e: 13           	movw ax, bc
    390f: 44 ff 01     	cmpw ax, #511
    3912: 61 c3 3c     	bh $0x3951 <__malloc_r+0x1bf>
    3915: 32 82 f0     	movw bc, #61570
    3918: 17           	movw ax, hl
    3919: 31 1e        	shrw ax, 1
    391b: fd d5 3d     	call !0x3dd5 <_OUTLINED_FUNCTION_10>
    391e: 5c 7f        	and a, #127
    3920: b8 08        	movw [sp+8], ax
    3922: 35           	xchw ax, de
    3923: a8 0a        	movw ax, [sp+10]
    3925: 35           	xchw ax, de
    3926: 03           	addw ax, bc
    3927: ba 06        	movw [de+6], ax
    3929: a8 08        	movw ax, [sp+8]
    392b: 12           	movw bc, ax
    392c: 79 86 f0     	movw ax, 61574[bc]              ; 0xff086 <___malloc_av_+0x4>
    392f: b8 02        	movw [sp+2], ax
    3931: 35           	xchw ax, de
    3932: a8 0a        	movw ax, [sp+10]
    3934: 35           	xchw ax, de
    3935: ba 04        	movw [de+4], ax
    3937: f7           	clrw bc
    3938: 17           	movw ax, hl
    3939: 31 6e        	shrw ax, 6
    393b: f1           	clrb a
    393c: 14           	movw de, ax
    393d: e6           	onew ax
    393e: fd e6 06     	call !0x6e6 <___ashlsi3>
    3941: 37           	xchw ax, hl
    3942: a8 0a        	movw ax, [sp+10]
    3944: 37           	xchw ax, hl
    3945: 32 86 f0     	movw bc, #61574
    3948: fd a6 3d     	call !0x3da6 <_OUTLINED_FUNCTION_5>
    394b: a8 08        	movw ax, [sp+8]
    394d: 03           	addw ax, bc
    394e: ee 8d 00     	br $!0x39de <__malloc_r+0x24c>
    3951: 33           	xchw ax, bc
    3952: b8 08        	movw [sp+8], ax
    3954: 33           	xchw ax, bc
    3955: 13           	movw ax, bc
    3956: 44 ff 09     	cmpw ax, #2559
    3959: 61 c3 08     	bh $0x3964 <__malloc_r+0x1d2>
    395c: 17           	movw ax, hl
    395d: 31 6e        	shrw ax, 6
    395f: 04 38 00     	addw ax, #56
    3962: ef 1f        	br $0x3983 <__malloc_r+0x1f1>
    3964: 13           	movw ax, bc
    3965: 44 ff 29     	cmpw ax, #10751
    3968: 61 c3 08     	bh $0x3973 <__malloc_r+0x1e1>
    396b: 17           	movw ax, hl
    396c: 31 9e        	shrw ax, 9
    396e: 04 5b 00     	addw ax, #91
    3971: ef 10        	br $0x3983 <__malloc_r+0x1f1>
    3973: 34 78 00     	movw de, #120
    3976: 13           	movw ax, bc
    3977: 44 ff a9     	cmpw ax, #43519
    397a: 61 c3 07     	bh $0x3984 <__malloc_r+0x1f2>
    397d: 17           	movw ax, hl
    397e: 31 ce        	shrw ax, 12
    3980: 04 6e 00     	addw ax, #110
    3983: 14           	movw de, ax
    3984: 36 82 f0     	movw hl, #61570
    3987: 15           	movw ax, de
    3988: 31 2d        	shlw ax, 2
    398a: 12           	movw bc, ax
    398b: 07           	addw ax, hl
    398c: 16           	movw hl, ax
    398d: 79 86 f0     	movw ax, 61574[bc]              ; 0xff086 <___malloc_av_+0x4>
    3990: 37           	xchw ax, hl
    3991: b8 02        	movw [sp+2], ax
    3993: 37           	xchw ax, hl
    3994: 12           	movw bc, ax
    3995: 47           	cmpw ax, hl
    3996: df 14        	bnz $0x39ac <__malloc_r+0x21a>
    3998: f7           	clrw bc
    3999: 15           	movw ax, de
    399a: 31 3e        	shrw ax, 3
    399c: 14           	movw de, ax
    399d: e6           	onew ax
    399e: fd e6 06     	call !0x6e6 <___ashlsi3>
    39a1: 37           	xchw ax, hl
    39a2: a8 02        	movw ax, [sp+2]
    39a4: 37           	xchw ax, hl
    39a5: fd a6 3d     	call !0x3da6 <_OUTLINED_FUNCTION_5>
    39a8: c7           	push hl
    39a9: c2           	pop bc
    39aa: ef 1f        	br $0x39cb <__malloc_r+0x239>
    39ac: 13           	movw ax, bc
    39ad: 47           	cmpw ax, hl
    39ae: dd 18        	bz $0x39c8 <__malloc_r+0x236>
    39b0: c3           	push bc
    39b1: c6           	pop hl
    39b2: ac 02        	movw ax, [hl+2]
    39b4: fd d5 3d     	call !0x3dd5 <_OUTLINED_FUNCTION_10>
    39b7: 14           	movw de, ax
    39b8: a8 08        	movw ax, [sp+8]
    39ba: 45           	cmpw ax, de
    39bb: de 0b        	bnc $0x39c8 <__malloc_r+0x236>
    39bd: c3           	push bc
    39be: c6           	pop hl
    39bf: ac 04        	movw ax, [hl+4]
    39c1: 37           	xchw ax, hl
    39c2: a8 02        	movw ax, [sp+2]
    39c4: 37           	xchw ax, hl
    39c5: 12           	movw bc, ax
    39c6: ef e4        	br $0x39ac <__malloc_r+0x21a>
    39c8: ac 06        	movw ax, [hl+6]
    39ca: 12           	movw bc, ax
    39cb: 37           	xchw ax, hl
    39cc: b8 02        	movw [sp+2], ax
    39ce: 37           	xchw ax, hl
    39cf: 17           	movw ax, hl
    39d0: 37           	xchw ax, hl
    39d1: a8 0a        	movw ax, [sp+10]
    39d3: 37           	xchw ax, hl
    39d4: c7           	push hl
    39d5: c4           	pop de
    39d6: ba 04        	movw [de+4], ax
    39d8: 13           	movw ax, bc
    39d9: ba 06        	movw [de+6], ax
    39db: 04 04 00     	addw ax, #4
    39de: 14           	movw de, ax
    39df: 17           	movw ax, hl
    39e0: c7           	push hl
    39e1: c2           	pop bc
    39e2: 37           	xchw ax, hl
    39e3: a8 02        	movw ax, [sp+2]
    39e5: 37           	xchw ax, hl
    39e6: bc 06        	movw [hl+6], ax
    39e8: 13           	movw ax, bc
    39e9: b9           	movw [de], ax
    39ea: a8 04        	movw ax, [sp+4]
    39ec: 14           	movw de, ax
    39ed: f7           	clrw bc
    39ee: 15           	movw ax, de
    39ef: 31 3e        	shrw ax, 3
    39f1: b8 02        	movw [sp+2], ax
    39f3: f1           	clrb a
    39f4: 14           	movw de, ax
    39f5: e6           	onew ax
    39f6: fd e6 06     	call !0x6e6 <___ashlsi3>
    39f9: eb 84 f0     	movw de, !0xff084               ; 0xff084 <___malloc_av_+0x2>
    39fc: 16           	movw hl, ax
    39fd: 13           	movw ax, bc
    39fe: 44 00 00     	cmpw ax, #0
    3a01: 35           	xchw ax, de
    3a02: b8 08        	movw [sp+8], ax
    3a04: 35           	xchw ax, de
    3a05: 17           	movw ax, hl
    3a06: 61 f8        	sknz
    3a08: 45           	cmpw ax, de
    3a09: 61 f3        	sknh
    3a0b: ee 59 01     	br $!0x3b67 <__malloc_r+0x3d5>
    3a0e: a8 08        	movw ax, [sp+8]
    3a10: 14           	movw de, ax
    3a11: 13           	movw ax, bc
    3a12: b8 0a        	movw [sp+10], ax
    3a14: fd 5d 3d     	call !0x3d5d <_OUTLINED_FUNCTION_0>
    3a17: df 3c        	bnz $0x3a55 <__malloc_r+0x2c3>
    3a19: f7           	clrw bc
    3a1a: a8 02        	movw ax, [sp+2]
    3a1c: f1           	clrb a
    3a1d: 14           	movw de, ax
    3a1e: 30 02 00     	movw ax, #2
    3a21: fd e6 06     	call !0x6e6 <___ashlsi3>
    3a24: 14           	movw de, ax
    3a25: a8 04        	movw ax, [sp+4]
    3a27: 08           	xch a, x
    3a28: 5c f8        	and a, #248
    3a2a: 08           	xch a, x
    3a2b: b8 04        	movw [sp+4], ax
    3a2d: 13           	movw ax, bc
    3a2e: c5           	push de
    3a2f: c6           	pop hl
    3a30: b8 0a        	movw [sp+10], ax
    3a32: 35           	xchw ax, de
    3a33: a8 08        	movw ax, [sp+8]
    3a35: 35           	xchw ax, de
    3a36: fd e3 3d     	call !0x3de3 <_OUTLINED_FUNCTION_12>
    3a39: 17           	movw ax, hl
    3a3a: 61 5d        	and a, d
    3a3c: 08           	xch a, x
    3a3d: 61 5c        	and a, e
    3a3f: 08           	xch a, x
    3a40: b8 02        	movw [sp+2], ax
    3a42: 17           	movw ax, hl
    3a43: 01           	addw ax, ax
    3a44: 14           	movw de, ax
    3a45: fd fb 3d     	call !0x3dfb <_OUTLINED_FUNCTION_15>
    3a48: f6           	clrw ax
    3a49: 44 00 00     	cmpw ax, #0
    3a4c: a8 02        	movw ax, [sp+2]
    3a4e: 61 f8        	sknz
    3a50: 44 00 00     	cmpw ax, #0
    3a53: dd d8        	bz $0x3a2d <__malloc_r+0x29b>
    3a55: 17           	movw ax, hl
    3a56: b8 12        	movw [sp+18], ax
    3a58: a8 04        	movw ax, [sp+4]
    3a5a: 14           	movw de, ax
    3a5b: 32 82 f0     	movw bc, #61570
    3a5e: 35           	xchw ax, de
    3a5f: b8 0c        	movw [sp+12], ax
    3a61: 35           	xchw ax, de
    3a62: 15           	movw ax, de
    3a63: 31 2d        	shlw ax, 2
    3a65: 03           	addw ax, bc
    3a66: 14           	movw de, ax
    3a67: b8 0e        	movw [sp+14], ax
    3a69: c5           	push de
    3a6a: c6           	pop hl
    3a6b: 35           	xchw ax, de
    3a6c: b8 02        	movw [sp+2], ax
    3a6e: 35           	xchw ax, de
    3a6f: ac 06        	movw ax, [hl+6]
    3a71: 12           	movw bc, ax
    3a72: 15           	movw ax, de
    3a73: 43           	cmpw ax, bc
    3a74: 61 f8        	sknz
    3a76: ee 63 00     	br $!0x3adc <__malloc_r+0x34a>
    3a79: c3           	push bc
    3a7a: c4           	pop de
    3a7b: aa 02        	movw ax, [de+2]
    3a7d: c3           	push bc
    3a7e: c6           	pop hl
    3a7f: 35           	xchw ax, de
    3a80: a8 02        	movw ax, [sp+2]
    3a82: 35           	xchw ax, de
    3a83: fd 82 3d     	call !0x3d82 <_OUTLINED_FUNCTION_2>
    3a86: dc e7        	bc $0x3a6f <__malloc_r+0x2dd>
    3a88: b8 02        	movw [sp+2], ax
    3a8a: 37           	xchw ax, hl
    3a8b: b8 10        	movw [sp+16], ax
    3a8d: 37           	xchw ax, hl
    3a8e: 23           	subw ax, bc
    3a8f: 44 08 00     	cmpw ax, #8
    3a92: dc 30        	bc $0x3ac4 <__malloc_r+0x332>
    3a94: b8 04        	movw [sp+4], ax
    3a96: c7           	push hl
    3a97: c4           	pop de
    3a98: aa 06        	movw ax, [de+6]
    3a9a: b8 08        	movw [sp+8], ax
    3a9c: aa 04        	movw ax, [de+4]
    3a9e: 33           	xchw ax, bc
    3a9f: a8 08        	movw ax, [sp+8]
    3aa1: 33           	xchw ax, bc
    3aa2: 16           	movw hl, ax
    3aa3: 13           	movw ax, bc
    3aa4: bc 06        	movw [hl+6], ax
    3aa6: 17           	movw ax, hl
    3aa7: c3           	push bc
    3aa8: c6           	pop hl
    3aa9: bc 04        	movw [hl+4], ax
    3aab: a8 00        	movw ax, [sp+0]
    3aad: fd ce 3d     	call !0x3dce <_OUTLINED_FUNCTION_9>
    3ab0: a8 02        	movw ax, [sp+2]
    3ab2: 12           	movw bc, ax
    3ab3: 15           	movw ax, de
    3ab4: 03           	addw ax, bc
    3ab5: 33           	xchw ax, bc
    3ab6: a8 04        	movw ax, [sp+4]
    3ab8: fd 9a 3d     	call !0x3d9a <_OUTLINED_FUNCTION_4>
    3abb: fd eb 3d     	call !0x3deb <_OUTLINED_FUNCTION_13>
    3abe: 17           	movw ax, hl
    3abf: fd 70 3d     	call !0x3d70 <_OUTLINED_FUNCTION_1>
    3ac2: ef 10        	br $0x3ad4 <__malloc_r+0x342>
    3ac4: c7           	push hl
    3ac5: c4           	pop de
    3ac6: aa 06        	movw ax, [de+6]
    3ac8: b8 00        	movw [sp+0], ax
    3aca: c5           	push de
    3acb: c2           	pop bc
    3acc: fd b2 3d     	call !0x3db2 <_OUTLINED_FUNCTION_6>
    3acf: c5           	push de
    3ad0: c6           	pop hl
    3ad1: fd 8c 3d     	call !0x3d8c <_OUTLINED_FUNCTION_3>
    3ad4: fd c8 3d     	call !0x3dc8 <_OUTLINED_FUNCTION_8>
    3ad7: a8 10        	movw ax, [sp+16]
    3ad9: ee e0 00     	br $!0x3bbc <__malloc_r+0x42a>
    3adc: 15           	movw ax, de
    3add: 04 04 00     	addw ax, #4
    3ae0: 14           	movw de, ax
    3ae1: a8 0c        	movw ax, [sp+12]
    3ae3: a1           	incw ax
    3ae4: b8 0c        	movw [sp+12], ax
    3ae6: fd da 3d     	call !0x3dda <_OUTLINED_FUNCTION_11>
    3ae9: 61 e8        	skz
    3aeb: ee 7b ff     	br $!0x3a69 <__malloc_r+0x2d7>
    3aee: a8 04        	movw ax, [sp+4]
    3af0: 12           	movw bc, ax
    3af1: 13           	movw ax, bc
    3af2: fd da 3d     	call !0x3dda <_OUTLINED_FUNCTION_11>
    3af5: df 17        	bnz $0x3b0e <__malloc_r+0x37c>
    3af7: a8 08        	movw ax, [sp+8]
    3af9: 14           	movw de, ax
    3afa: a8 12        	movw ax, [sp+18]
    3afc: 12           	movw bc, ax
    3afd: 15           	movw ax, de
    3afe: 61 5b        	and a, b
    3b00: 08           	xch a, x
    3b01: 61 5a        	and a, c
    3b03: 08           	xch a, x
    3b04: 12           	movw bc, ax
    3b05: 15           	movw ax, de
    3b06: 23           	subw ax, bc
    3b07: b8 08        	movw [sp+8], ax
    3b09: bf 84 f0     	movw !0xff084, ax               ; 0xff084 <___malloc_av_+0x2>
    3b0c: ef 14        	br $0x3b22 <__malloc_r+0x390>
    3b0e: b3           	decw bc
    3b0f: 13           	movw ax, bc
    3b10: b8 04        	movw [sp+4], ax
    3b12: a8 0e        	movw ax, [sp+14]
    3b14: 14           	movw de, ax
    3b15: 15           	movw ax, de
    3b16: 04 fc ff     	addw ax, #65532
    3b19: 12           	movw bc, ax
    3b1a: a9           	movw ax, [de]
    3b1b: 33           	xchw ax, bc
    3b1c: b8 0e        	movw [sp+14], ax
    3b1e: 33           	xchw ax, bc
    3b1f: 43           	cmpw ax, bc
    3b20: dd cc        	bz $0x3aee <__malloc_r+0x35c>
    3b22: a8 0a        	movw ax, [sp+10]
    3b24: 35           	xchw ax, de
    3b25: a8 12        	movw ax, [sp+18]
    3b27: 35           	xchw ax, de
    3b28: 01           	addw ax, ax
    3b29: 12           	movw bc, ax
    3b2a: 15           	movw ax, de
    3b2b: 31 fe        	shrw ax, 15
    3b2d: 03           	addw ax, bc
    3b2e: 12           	movw bc, ax
    3b2f: 15           	movw ax, de
    3b30: 01           	addw ax, ax
    3b31: 16           	movw hl, ax
    3b32: 04 ff ff     	addw ax, #65535
    3b35: 14           	movw de, ax
    3b36: 13           	movw ax, bc
    3b37: dc 02        	bc $0x3b3b <__malloc_r+0x3a9>
    3b39: 13           	movw ax, bc
    3b3a: b1           	decw ax
    3b3b: 44 00 00     	cmpw ax, #0
    3b3e: 15           	movw ax, de
    3b3f: 35           	xchw ax, de
    3b40: a8 08        	movw ax, [sp+8]
    3b42: 35           	xchw ax, de
    3b43: 61 f8        	sknz
    3b45: 45           	cmpw ax, de
    3b46: a8 0c        	movw ax, [sp+12]
    3b48: b8 04        	movw [sp+4], ax
    3b4a: de 1b        	bnc $0x3b67 <__malloc_r+0x3d5>
    3b4c: 13           	movw ax, bc
    3b4d: b8 0a        	movw [sp+10], ax
    3b4f: a8 08        	movw ax, [sp+8]
    3b51: 14           	movw de, ax
    3b52: fd 5d 3d     	call !0x3d5d <_OUTLINED_FUNCTION_0>
    3b55: 61 e8        	skz
    3b57: ee fb fe     	br $!0x3a55 <__malloc_r+0x2c3>
    3b5a: a8 0a        	movw ax, [sp+10]
    3b5c: fd e3 3d     	call !0x3de3 <_OUTLINED_FUNCTION_12>
    3b5f: 17           	movw ax, hl
    3b60: 01           	addw ax, ax
    3b61: 16           	movw hl, ax
    3b62: fd fb 3d     	call !0x3dfb <_OUTLINED_FUNCTION_15>
    3b65: ef e5        	br $0x3b4c <__malloc_r+0x3ba>
    3b67: eb 86 f0     	movw de, !0xff086               ; 0xff086 <___malloc_av_+0x4>
    3b6a: 35           	xchw ax, de
    3b6b: b8 02        	movw [sp+2], ax
    3b6d: 35           	xchw ax, de
    3b6e: aa 02        	movw ax, [de+2]
    3b70: fd 82 3d     	call !0x3d82 <_OUTLINED_FUNCTION_2>
    3b73: dc 08        	bc $0x3b7d <__malloc_r+0x3eb>
    3b75: 23           	subw ax, bc
    3b76: 16           	movw hl, ax
    3b77: 44 07 00     	cmpw ax, #7
    3b7a: 61 c3 23     	bh $0x3ba0 <__malloc_r+0x40e>
    3b7d: a8 06        	movw ax, [sp+6]
    3b7f: fd c2 3b     	call !0x3bc2 <_malloc_extend_top>
    3b82: fb 86 f0     	movw hl, !0xff086               ; 0xff086 <___malloc_av_+0x4>
    3b85: 37           	xchw ax, hl
    3b86: b8 02        	movw [sp+2], ax
    3b88: 37           	xchw ax, hl
    3b89: ac 02        	movw ax, [hl+2]
    3b8b: fd 82 3d     	call !0x3d82 <_OUTLINED_FUNCTION_2>
    3b8e: dc 08        	bc $0x3b98 <__malloc_r+0x406>
    3b90: 23           	subw ax, bc
    3b91: 16           	movw hl, ax
    3b92: 44 07 00     	cmpw ax, #7
    3b95: 61 c3 08     	bh $0x3ba0 <__malloc_r+0x40e>
    3b98: a8 06        	movw ax, [sp+6]
    3b9a: fd 04 3e     	call !0x3e04 <___malloc_unlock>
    3b9d: ee 1a fc     	br $!0x37ba <__malloc_r+0x28>
    3ba0: a8 02        	movw ax, [sp+2]
    3ba2: 14           	movw de, ax
    3ba3: 13           	movw ax, bc
    3ba4: fd ce 3d     	call !0x3dce <_OUTLINED_FUNCTION_9>
    3ba7: 15           	movw ax, de
    3ba8: 03           	addw ax, bc
    3ba9: 12           	movw bc, ax
    3baa: 17           	movw ax, hl
    3bab: 08           	xch a, x
    3bac: 6c 01        	or a, #1
    3bae: 08           	xch a, x
    3baf: c3           	push bc
    3bb0: c6           	pop hl
    3bb1: bc 02        	movw [hl+2], ax
    3bb3: 13           	movw ax, bc
    3bb4: bf 86 f0     	movw !0xff086, ax               ; 0xff086 <___malloc_av_+0x4>
    3bb7: fd c8 3d     	call !0x3dc8 <_OUTLINED_FUNCTION_8>
    3bba: a8 02        	movw ax, [sp+2]
    3bbc: 04 04 00     	addw ax, #4
    3bbf: 10 14        	addw sp, #20
    3bc1: d7           	ret

00003bc2 <_malloc_extend_top>:
    3bc2: 20 10        	subw sp, #16
    3bc4: 14           	movw de, ax
    3bc5: 13           	movw ax, bc
    3bc6: 02 8e f2     	addw ax, !0xff28e               ; 0xff28e <___malloc_top_pad>
    3bc9: 12           	movw bc, ax
    3bca: 04 08 00     	addw ax, #8
    3bcd: 16           	movw hl, ax
    3bce: 13           	movw ax, bc
    3bcf: 04 87 00     	addw ax, #135
    3bd2: 08           	xch a, x
    3bd3: 5c 80        	and a, #128
    3bd5: 08           	xch a, x
    3bd6: 12           	movw bc, ax
    3bd7: af 92 f2     	movw ax, !0xff292               ; 0xff292 <___malloc_sbrk_base>
    3bda: 44 ff ff     	cmpw ax, #65535
    3bdd: df 02        	bnz $0x3be1 <_malloc_extend_top+0x1f>
    3bdf: c7           	push hl
    3be0: c2           	pop bc
    3be1: fb 86 f0     	movw hl, !0xff086               ; 0xff086 <___malloc_av_+0x4>
    3be4: 37           	xchw ax, hl
    3be5: b8 00        	movw [sp+0], ax
    3be7: 37           	xchw ax, hl
    3be8: ac 02        	movw ax, [hl+2]
    3bea: b8 02        	movw [sp+2], ax
    3bec: 33           	xchw ax, bc
    3bed: b8 04        	movw [sp+4], ax
    3bef: 33           	xchw ax, bc
    3bf0: 35           	xchw ax, de
    3bf1: b8 06        	movw [sp+6], ax
    3bf3: 35           	xchw ax, de
    3bf4: 15           	movw ax, de
    3bf5: fd 05 3e     	call !0x3e05 <__sbrk_r>
    3bf8: 12           	movw bc, ax
    3bf9: 44 ff ff     	cmpw ax, #65535
    3bfc: 61 f8        	sknz
    3bfe: ee 59 01     	br $!0x3d5a <_malloc_extend_top+0x198>
    3c01: a8 02        	movw ax, [sp+2]
    3c03: fd d5 3d     	call !0x3dd5 <_OUTLINED_FUNCTION_10>
    3c06: b8 02        	movw [sp+2], ax
    3c08: 37           	xchw ax, hl
    3c09: a8 00        	movw ax, [sp+0]
    3c0b: 37           	xchw ax, hl
    3c0c: 07           	addw ax, hl
    3c0d: 14           	movw de, ax
    3c0e: 17           	movw ax, hl
    3c0f: 36 82 f0     	movw hl, #61570
    3c12: 47           	cmpw ax, hl
    3c13: dd 07        	bz $0x3c1c <_malloc_extend_top+0x5a>
    3c15: 13           	movw ax, bc
    3c16: 45           	cmpw ax, de
    3c17: 61 d8        	sknc
    3c19: ee 3e 01     	br $!0x3d5a <_malloc_extend_top+0x198>
    3c1c: a8 04        	movw ax, [sp+4]
    3c1e: 02 aa f4     	addw ax, !0xff4aa               ; 0xff4aa <___malloc_current_mallinfo>
    3c21: 16           	movw hl, ax
    3c22: bf aa f4     	movw !0xff4aa, ax               ; 0xff4aa <___malloc_current_mallinfo>
    3c25: 13           	movw ax, bc
    3c26: 45           	cmpw ax, de
    3c27: df 1b        	bnz $0x3c44 <_malloc_extend_top+0x82>
    3c29: 15           	movw ax, de
    3c2a: 08           	xch a, x
    3c2b: 5c 7f        	and a, #127
    3c2d: 08           	xch a, x
    3c2e: f1           	clrb a
    3c2f: 44 00 00     	cmpw ax, #0
    3c32: df 10        	bnz $0x3c44 <_malloc_extend_top+0x82>
    3c34: a8 04        	movw ax, [sp+4]
    3c36: 33           	xchw ax, bc
    3c37: a8 02        	movw ax, [sp+2]
    3c39: 33           	xchw ax, bc
    3c3a: eb 86 f0     	movw de, !0xff086               ; 0xff086 <___malloc_av_+0x4>
    3c3d: 03           	addw ax, bc
    3c3e: fd ce 3d     	call !0x3dce <_OUTLINED_FUNCTION_9>
    3c41: ee df 00     	br $!0x3d23 <_malloc_extend_top+0x161>
    3c44: af 92 f2     	movw ax, !0xff292               ; 0xff292 <___malloc_sbrk_base>
    3c47: 44 ff ff     	cmpw ax, #65535
    3c4a: df 06        	bnz $0x3c52 <_malloc_extend_top+0x90>
    3c4c: 13           	movw ax, bc
    3c4d: bf 92 f2     	movw !0xff292, ax               ; 0xff292 <___malloc_sbrk_base>
    3c50: ef 06        	br $0x3c58 <_malloc_extend_top+0x96>
    3c52: 13           	movw ax, bc
    3c53: 25           	subw ax, de
    3c54: 07           	addw ax, hl
    3c55: bf aa f4     	movw !0xff4aa, ax               ; 0xff4aa <___malloc_current_mallinfo>
    3c58: 13           	movw ax, bc
    3c59: 04 04 00     	addw ax, #4
    3c5c: b8 0a        	movw [sp+10], ax
    3c5e: 08           	xch a, x
    3c5f: 5c 07        	and a, #7
    3c61: 08           	xch a, x
    3c62: f1           	clrb a
    3c63: 14           	movw de, ax
    3c64: 35           	xchw ax, de
    3c65: b8 0c        	movw [sp+12], ax
    3c67: 35           	xchw ax, de
    3c68: 30 08 00     	movw ax, #8
    3c6b: 25           	subw ax, de
    3c6c: 16           	movw hl, ax
    3c6d: 15           	movw ax, de
    3c6e: 44 00 00     	cmpw ax, #0
    3c71: 34 00 00     	movw de, #0
    3c74: dd 02        	bz $0x3c78 <_malloc_extend_top+0xb6>
    3c76: c7           	push hl
    3c77: c4           	pop de
    3c78: 13           	movw ax, bc
    3c79: 05           	addw ax, de
    3c7a: b8 08        	movw [sp+8], ax
    3c7c: 33           	xchw ax, bc
    3c7d: a8 04        	movw ax, [sp+4]
    3c7f: 33           	xchw ax, bc
    3c80: 03           	addw ax, bc
    3c81: 12           	movw bc, ax
    3c82: 33           	xchw ax, bc
    3c83: b8 04        	movw [sp+4], ax
    3c85: 33           	xchw ax, bc
    3c86: 15           	movw ax, de
    3c87: 23           	subw ax, bc
    3c88: 08           	xch a, x
    3c89: 5c 7f        	and a, #127
    3c8b: 08           	xch a, x
    3c8c: f1           	clrb a
    3c8d: b8 0e        	movw [sp+14], ax
    3c8f: 12           	movw bc, ax
    3c90: a8 06        	movw ax, [sp+6]
    3c92: fd 05 3e     	call !0x3e05 <__sbrk_r>
    3c95: 12           	movw bc, ax
    3c96: 36 00 00     	movw hl, #0
    3c99: a8 0a        	movw ax, [sp+10]
    3c9b: 08           	xch a, x
    3c9c: 6c f8        	or a, #248
    3c9e: 08           	xch a, x
    3c9f: 6c ff        	or a, #255
    3ca1: 14           	movw de, ax
    3ca2: a8 0c        	movw ax, [sp+12]
    3ca4: 44 00 00     	cmpw ax, #0
    3ca7: dd 02        	bz $0x3cab <_malloc_extend_top+0xe9>
    3ca9: c5           	push de
    3caa: c6           	pop hl
    3cab: a8 04        	movw ax, [sp+4]
    3cad: 07           	addw ax, hl
    3cae: 16           	movw hl, ax
    3caf: 13           	movw ax, bc
    3cb0: 44 ff ff     	cmpw ax, #65535
    3cb3: dd 02        	bz $0x3cb7 <_malloc_extend_top+0xf5>
    3cb5: c3           	push bc
    3cb6: c6           	pop hl
    3cb7: 13           	movw ax, bc
    3cb8: 44 ff ff     	cmpw ax, #65535
    3cbb: f7           	clrw bc
    3cbc: dd 03        	bz $0x3cc1 <_malloc_extend_top+0xff>
    3cbe: a8 0e        	movw ax, [sp+14]
    3cc0: 12           	movw bc, ax
    3cc1: a8 08        	movw ax, [sp+8]
    3cc3: 14           	movw de, ax
    3cc4: 13           	movw ax, bc
    3cc5: 25           	subw ax, de
    3cc6: 07           	addw ax, hl
    3cc7: fd f3 3d     	call !0x3df3 <_OUTLINED_FUNCTION_14>
    3cca: 32 82 f0     	movw bc, #61570
    3ccd: 02 aa f4     	addw ax, !0xff4aa               ; 0xff4aa <___malloc_current_mallinfo>
    3cd0: bf aa f4     	movw !0xff4aa, ax               ; 0xff4aa <___malloc_current_mallinfo>
    3cd3: 15           	movw ax, de
    3cd4: bf 86 f0     	movw !0xff086, ax               ; 0xff086 <___malloc_av_+0x4>
    3cd7: a8 00        	movw ax, [sp+0]
    3cd9: 43           	cmpw ax, bc
    3cda: dd 47        	bz $0x3d23 <_malloc_extend_top+0x161>
    3cdc: a8 02        	movw ax, [sp+2]
    3cde: 44 07 00     	cmpw ax, #7
    3ce1: 61 c3 08     	bh $0x3cec <_malloc_extend_top+0x12a>
    3ce4: a8 08        	movw ax, [sp+8]
    3ce6: 14           	movw de, ax
    3ce7: e6           	onew ax
    3ce8: ba 02        	movw [de+2], ax
    3cea: ef 6e        	br $0x3d5a <_malloc_extend_top+0x198>
    3cec: 37           	xchw ax, hl
    3ced: a8 00        	movw ax, [sp+0]
    3cef: 37           	xchw ax, hl
    3cf0: 04 fa ff     	addw ax, #65530
    3cf3: 08           	xch a, x
    3cf4: 5c f8        	and a, #248
    3cf6: 08           	xch a, x
    3cf7: 12           	movw bc, ax
    3cf8: ac 02        	movw ax, [hl+2]
    3cfa: 37           	xchw ax, hl
    3cfb: a8 00        	movw ax, [sp+0]
    3cfd: 37           	xchw ax, hl
    3cfe: 08           	xch a, x
    3cff: 5c 01        	and a, #1
    3d01: 08           	xch a, x
    3d02: f1           	clrb a
    3d03: 03           	addw ax, bc
    3d04: bc 02        	movw [hl+2], ax
    3d06: a8 00        	movw ax, [sp+0]
    3d08: 16           	movw hl, ax
    3d09: 17           	movw ax, hl
    3d0a: 03           	addw ax, bc
    3d0b: 14           	movw de, ax
    3d0c: 30 03 00     	movw ax, #3
    3d0f: ba 04        	movw [de+4], ax
    3d11: ba 02        	movw [de+2], ax
    3d13: 13           	movw ax, bc
    3d14: 44 00 00     	cmpw ax, #0
    3d17: dd 0a        	bz $0x3d23 <_malloc_extend_top+0x161>
    3d19: 17           	movw ax, hl
    3d1a: 04 04 00     	addw ax, #4
    3d1d: 12           	movw bc, ax
    3d1e: a8 06        	movw ax, [sp+6]
    3d20: fd 3a 3e     	call !0x3e3a <__free_r>
    3d23: db aa f4     	movw bc, !0xff4aa               ; 0xff4aa <___malloc_current_mallinfo>
    3d26: eb a2 f4     	movw de, !0xff4a2               ; 0xff4a2 <___malloc_max_sbrked_mem>
    3d29: 13           	movw ax, bc
    3d2a: 31 ff        	sarw ax, 15
    3d2c: 16           	movw hl, ax
    3d2d: af a4 f4     	movw ax, !0xff4a4               ; 0xff4a4 <___malloc_max_sbrked_mem+0x2>
    3d30: 47           	cmpw ax, hl
    3d31: 15           	movw ax, de
    3d32: 61 f8        	sknz
    3d34: 43           	cmpw ax, bc
    3d35: de 09        	bnc $0x3d40 <_malloc_extend_top+0x17e>
    3d37: 13           	movw ax, bc
    3d38: bf a2 f4     	movw !0xff4a2, ax               ; 0xff4a2 <___malloc_max_sbrked_mem>
    3d3b: 31 ff        	sarw ax, 15
    3d3d: bf a4 f4     	movw !0xff4a4, ax               ; 0xff4a4 <___malloc_max_sbrked_mem+0x2>
    3d40: eb a6 f4     	movw de, !0xff4a6               ; 0xff4a6 <___malloc_max_total_mem>
    3d43: 13           	movw ax, bc
    3d44: 31 ff        	sarw ax, 15
    3d46: 16           	movw hl, ax
    3d47: af a8 f4     	movw ax, !0xff4a8               ; 0xff4a8 <___malloc_max_total_mem+0x2>
    3d4a: 47           	cmpw ax, hl
    3d4b: 15           	movw ax, de
    3d4c: 61 f8        	sknz
    3d4e: 43           	cmpw ax, bc
    3d4f: de 09        	bnc $0x3d5a <_malloc_extend_top+0x198>
    3d51: 13           	movw ax, bc
    3d52: bf a6 f4     	movw !0xff4a6, ax               ; 0xff4a6 <___malloc_max_total_mem>
    3d55: 31 ff        	sarw ax, 15
    3d57: bf a8 f4     	movw !0xff4a8, ax               ; 0xff4a8 <___malloc_max_total_mem+0x2>
    3d5a: 10 10        	addw sp, #16
    3d5c: d7           	ret

00003d5d <_OUTLINED_FUNCTION_0>:
    3d5d: 17           	movw ax, hl
    3d5e: 61 5d        	and a, d
    3d60: 08           	xch a, x
    3d61: 61 5c        	and a, e
    3d63: 08           	xch a, x
    3d64: 12           	movw bc, ax
    3d65: f6           	clrw ax
    3d66: 44 00 00     	cmpw ax, #0
    3d69: 13           	movw ax, bc
    3d6a: 61 f8        	sknz
    3d6c: 44 00 00     	cmpw ax, #0
    3d6f: d7           	ret

00003d70 <_OUTLINED_FUNCTION_1>:
    3d70: bf 88 f2     	movw !0xff288, ax               ; 0xff288 <___malloc_av_+0x206>
    3d73: 30 82 f2     	movw ax, #62082
    3d76: bc 06        	movw [hl+6], ax
    3d78: 17           	movw ax, hl
    3d79: bf 86 f2     	movw !0xff286, ax               ; 0xff286 <___malloc_av_+0x204>
    3d7c: 30 82 f2     	movw ax, #62082
    3d7f: bc 04        	movw [hl+4], ax
    3d81: d7           	ret

00003d82 <_OUTLINED_FUNCTION_2>:
    3d82: 33           	xchw ax, bc
    3d83: a8 04        	movw ax, [sp+4]
    3d85: 33           	xchw ax, bc
    3d86: 08           	xch a, x
    3d87: 5c fc        	and a, #252
    3d89: 08           	xch a, x
    3d8a: 43           	cmpw ax, bc
    3d8b: d7           	ret

00003d8c <_OUTLINED_FUNCTION_3>:
    3d8c: bc 04        	movw [hl+4], ax
    3d8e: 13           	movw ax, bc
    3d8f: 33           	xchw ax, bc
    3d90: a8 06        	movw ax, [sp+6]
    3d92: 33           	xchw ax, bc
    3d93: 03           	addw ax, bc
    3d94: a1           	incw ax
    3d95: a1           	incw ax
    3d96: 16           	movw hl, ax
    3d97: 71 82        	set1 [hl].0
    3d99: d7           	ret

00003d9a <_OUTLINED_FUNCTION_4>:
    3d9a: 33           	xchw ax, bc
    3d9b: 16           	movw hl, ax
    3d9c: 13           	movw ax, bc
    3d9d: bb           	movw [hl], ax
    3d9e: 15           	movw ax, de
    3d9f: 35           	xchw ax, de
    3da0: a8 04        	movw ax, [sp+4]
    3da2: 35           	xchw ax, de
    3da3: 05           	addw ax, de
    3da4: 16           	movw hl, ax
    3da5: d7           	ret

00003da6 <_OUTLINED_FUNCTION_5>:
    3da6: 6f 85 f0     	or a, !0xff085                  ; 0xff085 <___malloc_av_+0x3>
    3da9: 08           	xch a, x
    3daa: 6f 84 f0     	or a, !0xff084                  ; 0xff084 <___malloc_av_+0x2>
    3dad: 08           	xch a, x
    3dae: bf 84 f0     	movw !0xff084, ax               ; 0xff084 <___malloc_av_+0x2>
    3db1: d7           	ret

00003db2 <_OUTLINED_FUNCTION_6>:
    3db2: aa 04        	movw ax, [de+4]
    3db4: 35           	xchw ax, de
    3db5: a8 04        	movw ax, [sp+4]
    3db7: 35           	xchw ax, de
    3db8: 16           	movw hl, ax
    3db9: 15           	movw ax, de
    3dba: bc 06        	movw [hl+6], ax
    3dbc: 17           	movw ax, hl
    3dbd: d7           	ret

00003dbe <_OUTLINED_FUNCTION_7>:
    3dbe: 30 82 f2     	movw ax, #62082
    3dc1: bf 86 f2     	movw !0xff286, ax               ; 0xff286 <___malloc_av_+0x204>
    3dc4: bf 88 f2     	movw !0xff288, ax               ; 0xff288 <___malloc_av_+0x206>
    3dc7: d7           	ret

00003dc8 <_OUTLINED_FUNCTION_8>:
    3dc8: a8 0a        	movw ax, [sp+10]
    3dca: fd 04 3e     	call !0x3e04 <___malloc_unlock>
    3dcd: d7           	ret

00003dce <_OUTLINED_FUNCTION_9>:
    3dce: 08           	xch a, x
    3dcf: 6c 01        	or a, #1
    3dd1: 08           	xch a, x
    3dd2: ba 02        	movw [de+2], ax
    3dd4: d7           	ret

00003dd5 <_OUTLINED_FUNCTION_10>:
    3dd5: 08           	xch a, x
    3dd6: 5c fc        	and a, #252
    3dd8: 08           	xch a, x
    3dd9: d7           	ret

00003dda <_OUTLINED_FUNCTION_11>:
    3dda: 08           	xch a, x
    3ddb: 5c 07        	and a, #7
    3ddd: 08           	xch a, x
    3dde: f1           	clrb a
    3ddf: 44 00 00     	cmpw ax, #0
    3de2: d7           	ret

00003de3 <_OUTLINED_FUNCTION_12>:
    3de3: 01           	addw ax, ax
    3de4: 12           	movw bc, ax
    3de5: 17           	movw ax, hl
    3de6: 31 fe        	shrw ax, 15
    3de8: 03           	addw ax, bc
    3de9: 12           	movw bc, ax
    3dea: d7           	ret

00003deb <_OUTLINED_FUNCTION_13>:
    3deb: 13           	movw ax, bc
    3dec: 08           	xch a, x
    3ded: 6c 01        	or a, #1
    3def: 08           	xch a, x
    3df0: bc 02        	movw [hl+2], ax
    3df2: d7           	ret

00003df3 <_OUTLINED_FUNCTION_14>:
    3df3: 08           	xch a, x
    3df4: 6c 01        	or a, #1
    3df6: 08           	xch a, x
    3df7: ba 02        	movw [de+2], ax
    3df9: 13           	movw ax, bc
    3dfa: d7           	ret

00003dfb <_OUTLINED_FUNCTION_15>:
    3dfb: a8 08        	movw ax, [sp+8]
    3dfd: 04 08 00     	addw ax, #8
    3e00: b8 08        	movw [sp+8], ax
    3e02: d7           	ret

00003e03 <___malloc_lock>:
    3e03: d7           	ret

00003e04 <___malloc_unlock>:
    3e04: d7           	ret

00003e05 <__sbrk_r>:
    3e05: c1           	push ax
    3e06: b8 00        	movw [sp+0], ax
    3e08: f6           	clrw ax
    3e09: bf be f4     	movw !0xff4be, ax               ; 0xff4be <_errno>
    3e0c: 13           	movw ax, bc
    3e0d: fd 26 3e     	call !0x3e26 <_sbrk>
    3e10: 12           	movw bc, ax
    3e11: 44 ff ff     	cmpw ax, #65535
    3e14: df 0d        	bnz $0x3e23 <__sbrk_r+0x1e>
    3e16: af be f4     	movw ax, !0xff4be               ; 0xff4be <_errno>
    3e19: 44 00 00     	cmpw ax, #0
    3e1c: dd 05        	bz $0x3e23 <__sbrk_r+0x1e>
    3e1e: 37           	xchw ax, hl
    3e1f: a8 00        	movw ax, [sp+0]
    3e21: 37           	xchw ax, hl
    3e22: bb           	movw [hl], ax
    3e23: 13           	movw ax, bc
    3e24: c6           	pop hl
    3e25: d7           	ret

00003e26 <_sbrk>:
    3e26: 12           	movw bc, ax
    3e27: 34 80 f5     	movw de, #62848
    3e2a: af c0 f4     	movw ax, !0xff4c0               ; 0xff4c0 <_sbrk.heap_end>
    3e2d: 44 00 00     	cmpw ax, #0
    3e30: 61 e8        	skz
    3e32: 14           	movw de, ax
    3e33: 15           	movw ax, de
    3e34: 03           	addw ax, bc
    3e35: bf c0 f4     	movw !0xff4c0, ax               ; 0xff4c0 <_sbrk.heap_end>
    3e38: 15           	movw ax, de
    3e39: d7           	ret

00003e3a <__free_r>:
    3e3a: 20 0c        	subw sp, #12
    3e3c: c3           	push bc
    3e3d: c4           	pop de
    3e3e: 12           	movw bc, ax
    3e3f: 15           	movw ax, de
    3e40: 44 00 00     	cmpw ax, #0
    3e43: 61 f8        	sknz
    3e45: ee 34 02     	br $!0x407c <__free_r+0x242>
    3e48: 33           	xchw ax, bc
    3e49: b8 04        	movw [sp+4], ax
    3e4b: 33           	xchw ax, bc
    3e4c: 15           	movw ax, de
    3e4d: b8 00        	movw [sp+0], ax
    3e4f: 13           	movw ax, bc
    3e50: fd 03 3e     	call !0x3e03 <___malloc_lock>
    3e53: a8 00        	movw ax, [sp+0]
    3e55: 14           	movw de, ax
    3e56: 15           	movw ax, de
    3e57: 04 fc ff     	addw ax, #65532
    3e5a: 12           	movw bc, ax
    3e5b: 15           	movw ax, de
    3e5c: b1           	decw ax
    3e5d: b1           	decw ax
    3e5e: 16           	movw hl, ax
    3e5f: ab           	movw ax, [hl]
    3e60: c1           	push ax
    3e61: 60           	mov a, x
    3e62: 74           	mov e, a
    3e63: c0           	pop ax
    3e64: 35           	xchw ax, de
    3e65: b8 06        	movw [sp+6], ax
    3e67: 35           	xchw ax, de
    3e68: 08           	xch a, x
    3e69: 5c fe        	and a, #254
    3e6b: 08           	xch a, x
    3e6c: b8 02        	movw [sp+2], ax
    3e6e: 33           	xchw ax, bc
    3e6f: b8 00        	movw [sp+0], ax
    3e71: 33           	xchw ax, bc
    3e72: 03           	addw ax, bc
    3e73: 14           	movw de, ax
    3e74: db 86 f0     	movw bc, !0xff086               ; 0xff086 <___malloc_av_+0x4>
    3e77: aa 02        	movw ax, [de+2]
    3e79: 08           	xch a, x
    3e7a: 5c fc        	and a, #252
    3e7c: 08           	xch a, x
    3e7d: 16           	movw hl, ax
    3e7e: 15           	movw ax, de
    3e7f: 43           	cmpw ax, bc
    3e80: df 58        	bnz $0x3eda <__free_r+0xa0>
    3e82: a8 02        	movw ax, [sp+2]
    3e84: 12           	movw bc, ax
    3e85: 17           	movw ax, hl
    3e86: 03           	addw ax, bc
    3e87: 12           	movw bc, ax
    3e88: a8 06        	movw ax, [sp+6]
    3e8a: 60           	mov a, x
    3e8b: 31 03 22     	bt a.0, $0x3eb0 <__free_r+0x76>
    3e8e: a8 00        	movw ax, [sp+0]
    3e90: 16           	movw hl, ax
    3e91: ab           	movw ax, [hl]
    3e92: 14           	movw de, ax
    3e93: 35           	xchw ax, de
    3e94: b8 02        	movw [sp+2], ax
    3e96: 35           	xchw ax, de
    3e97: 17           	movw ax, hl
    3e98: 25           	subw ax, de
    3e99: 16           	movw hl, ax
    3e9a: ac 06        	movw ax, [hl+6]
    3e9c: 37           	xchw ax, hl
    3e9d: b8 00        	movw [sp+0], ax
    3e9f: 37           	xchw ax, hl
    3ea0: 14           	movw de, ax
    3ea1: ac 04        	movw ax, [hl+4]
    3ea3: 16           	movw hl, ax
    3ea4: 15           	movw ax, de
    3ea5: bc 06        	movw [hl+6], ax
    3ea7: 17           	movw ax, hl
    3ea8: c5           	push de
    3ea9: c6           	pop hl
    3eaa: bc 04        	movw [hl+4], ax
    3eac: a8 02        	movw ax, [sp+2]
    3eae: 03           	addw ax, bc
    3eaf: 12           	movw bc, ax
    3eb0: a8 00        	movw ax, [sp+0]
    3eb2: 16           	movw hl, ax
    3eb3: eb 8a f2     	movw de, !0xff28a               ; 0xff28a <___malloc_trim_threshold>
    3eb6: 13           	movw ax, bc
    3eb7: fd 3c 41     	call !0x413c <_OUTLINED_FUNCTION_0>
    3eba: 17           	movw ax, hl
    3ebb: bf 86 f0     	movw !0xff086, ax               ; 0xff086 <___malloc_av_+0x4>
    3ebe: af 8c f2     	movw ax, !0xff28c               ; 0xff28c <___malloc_trim_threshold+0x2>
    3ec1: 44 00 00     	cmpw ax, #0
    3ec4: 15           	movw ax, de
    3ec5: 61 f8        	sknz
    3ec7: 43           	cmpw ax, bc
    3ec8: a8 04        	movw ax, [sp+4]
    3eca: 61 f3        	sknh
    3ecc: ee a8 01     	br $!0x4077 <__free_r+0x23d>
    3ecf: db 8e f2     	movw bc, !0xff28e               ; 0xff28e <___malloc_top_pad>
    3ed2: fd 7f 40     	call !0x407f <__malloc_trim_r>
    3ed5: a8 04        	movw ax, [sp+4]
    3ed7: ee 9d 01     	br $!0x4077 <__free_r+0x23d>
    3eda: 17           	movw ax, hl
    3edb: ba 02        	movw [de+2], ax
    3edd: a8 06        	movw ax, [sp+6]
    3edf: 37           	xchw ax, hl
    3ee0: b8 08        	movw [sp+8], ax
    3ee2: 37           	xchw ax, hl
    3ee3: 60           	mov a, x
    3ee4: 31 05 0b     	bf a.0, $0x3ef2 <__free_r+0xb8>
    3ee7: f6           	clrw ax
    3ee8: b8 06        	movw [sp+6], ax
    3eea: c8 0a 01     	mov [sp+10], #1
    3eed: a8 00        	movw ax, [sp+0]
    3eef: 12           	movw bc, ax
    3ef0: ef 3d        	br $0x3f2f <__free_r+0xf5>
    3ef2: a8 00        	movw ax, [sp+0]
    3ef4: 16           	movw hl, ax
    3ef5: ab           	movw ax, [hl]
    3ef6: 37           	xchw ax, hl
    3ef7: a8 02        	movw ax, [sp+2]
    3ef9: 37           	xchw ax, hl
    3efa: 12           	movw bc, ax
    3efb: 07           	addw ax, hl
    3efc: b8 02        	movw [sp+2], ax
    3efe: a8 00        	movw ax, [sp+0]
    3f00: 23           	subw ax, bc
    3f01: b8 00        	movw [sp+0], ax
    3f03: 16           	movw hl, ax
    3f04: ac 04        	movw ax, [hl+4]
    3f06: 36 82 f2     	movw hl, #62082
    3f09: 12           	movw bc, ax
    3f0a: 47           	cmpw ax, hl
    3f0b: df 08        	bnz $0x3f15 <__free_r+0xdb>
    3f0d: e6           	onew ax
    3f0e: b8 06        	movw [sp+6], ax
    3f10: c8 0a 00     	mov [sp+10], #0
    3f13: ef 14        	br $0x3f29 <__free_r+0xef>
    3f15: a8 00        	movw ax, [sp+0]
    3f17: 16           	movw hl, ax
    3f18: ac 06        	movw ax, [hl+6]
    3f1a: 16           	movw hl, ax
    3f1b: 13           	movw ax, bc
    3f1c: bc 04        	movw [hl+4], ax
    3f1e: 17           	movw ax, hl
    3f1f: c3           	push bc
    3f20: c6           	pop hl
    3f21: bc 06        	movw [hl+6], ax
    3f23: f6           	clrw ax
    3f24: b8 06        	movw [sp+6], ax
    3f26: c8 0a 01     	mov [sp+10], #1
    3f29: a8 00        	movw ax, [sp+0]
    3f2b: 12           	movw bc, ax
    3f2c: a8 08        	movw ax, [sp+8]
    3f2e: 16           	movw hl, ax
    3f2f: 33           	xchw ax, bc
    3f30: b8 00        	movw [sp+0], ax
    3f32: 33           	xchw ax, bc
    3f33: 15           	movw ax, de
    3f34: 07           	addw ax, hl
    3f35: a1           	incw ax
    3f36: a1           	incw ax
    3f37: 16           	movw hl, ax
    3f38: 31 83 40     	bt [hl].0, $0x3f7b <__free_r+0x141>
    3f3b: 88 0a        	mov a, [sp+10]
    3f3d: d1           	cmp0 a
    3f3e: dd 1f        	bz $0x3f5f <__free_r+0x125>
    3f40: 32 82 f2     	movw bc, #62082
    3f43: aa 04        	movw ax, [de+4]
    3f45: 43           	cmpw ax, bc
    3f46: df 17        	bnz $0x3f5f <__free_r+0x125>
    3f48: a8 00        	movw ax, [sp+0]
    3f4a: 14           	movw de, ax
    3f4b: 36 82 f2     	movw hl, #62082
    3f4e: 15           	movw ax, de
    3f4f: bf 86 f2     	movw !0xff286, ax               ; 0xff286 <___malloc_av_+0x204>
    3f52: bf 88 f2     	movw !0xff288, ax               ; 0xff288 <___malloc_av_+0x206>
    3f55: e6           	onew ax
    3f56: b8 06        	movw [sp+6], ax
    3f58: c5           	push de
    3f59: c2           	pop bc
    3f5a: 30 82 f2     	movw ax, #62082
    3f5d: ef 09        	br $0x3f68 <__free_r+0x12e>
    3f5f: aa 04        	movw ax, [de+4]
    3f61: 12           	movw bc, ax
    3f62: aa 06        	movw ax, [de+6]
    3f64: 16           	movw hl, ax
    3f65: c7           	push hl
    3f66: c4           	pop de
    3f67: 13           	movw ax, bc
    3f68: ba 04        	movw [de+4], ax
    3f6a: 17           	movw ax, hl
    3f6b: c3           	push bc
    3f6c: c4           	pop de
    3f6d: ba 06        	movw [de+6], ax
    3f6f: a8 02        	movw ax, [sp+2]
    3f71: 33           	xchw ax, bc
    3f72: a8 08        	movw ax, [sp+8]
    3f74: 33           	xchw ax, bc
    3f75: 03           	addw ax, bc
    3f76: b8 02        	movw [sp+2], ax
    3f78: a8 00        	movw ax, [sp+0]
    3f7a: 12           	movw bc, ax
    3f7b: c3           	push bc
    3f7c: c6           	pop hl
    3f7d: a8 02        	movw ax, [sp+2]
    3f7f: 12           	movw bc, ax
    3f80: 17           	movw ax, hl
    3f81: 03           	addw ax, bc
    3f82: 14           	movw de, ax
    3f83: 13           	movw ax, bc
    3f84: b9           	movw [de], ax
    3f85: fd 3c 41     	call !0x413c <_OUTLINED_FUNCTION_0>
    3f88: a8 06        	movw ax, [sp+6]
    3f8a: 44 00 00     	cmpw ax, #0
    3f8d: a8 04        	movw ax, [sp+4]
    3f8f: 61 e8        	skz
    3f91: ee e3 00     	br $!0x4077 <__free_r+0x23d>
    3f94: 13           	movw ax, bc
    3f95: 44 ff 01     	cmpw ax, #511
    3f98: c3           	push bc
    3f99: c6           	pop hl
    3f9a: 17           	movw ax, hl
    3f9b: 61 c3 3e     	bh $0x3fdc <__free_r+0x1a2>
    3f9e: 34 82 f0     	movw de, #61570
    3fa1: 31 1e        	shrw ax, 1
    3fa3: 08           	xch a, x
    3fa4: 5c fc        	and a, #252
    3fa6: 08           	xch a, x
    3fa7: 5c 7f        	and a, #127
    3fa9: 12           	movw bc, ax
    3faa: 33           	xchw ax, bc
    3fab: b8 08        	movw [sp+8], ax
    3fad: 33           	xchw ax, bc
    3fae: 05           	addw ax, de
    3faf: c7           	push hl
    3fb0: c4           	pop de
    3fb1: 37           	xchw ax, hl
    3fb2: a8 00        	movw ax, [sp+0]
    3fb4: 37           	xchw ax, hl
    3fb5: bc 06        	movw [hl+6], ax
    3fb7: 79 86 f0     	movw ax, 61574[bc]              ; 0xff086 <___malloc_av_+0x4>
    3fba: b8 06        	movw [sp+6], ax
    3fbc: 37           	xchw ax, hl
    3fbd: a8 00        	movw ax, [sp+0]
    3fbf: 37           	xchw ax, hl
    3fc0: bc 04        	movw [hl+4], ax
    3fc2: f7           	clrw bc
    3fc3: 15           	movw ax, de
    3fc4: 31 6e        	shrw ax, 6
    3fc6: f1           	clrb a
    3fc7: 14           	movw de, ax
    3fc8: e6           	onew ax
    3fc9: fd e6 06     	call !0x6e6 <___ashlsi3>
    3fcc: 32 86 f0     	movw bc, #61574
    3fcf: fd 43 41     	call !0x4143 <_OUTLINED_FUNCTION_1>
    3fd2: a8 08        	movw ax, [sp+8]
    3fd4: 03           	addw ax, bc
    3fd5: 33           	xchw ax, bc
    3fd6: a8 00        	movw ax, [sp+0]
    3fd8: 33           	xchw ax, bc
    3fd9: ee 90 00     	br $!0x406c <__free_r+0x232>
    3fdc: 44 ff 09     	cmpw ax, #2559
    3fdf: 61 c3 08     	bh $0x3fea <__free_r+0x1b0>
    3fe2: 17           	movw ax, hl
    3fe3: 31 6e        	shrw ax, 6
    3fe5: 04 38 00     	addw ax, #56
    3fe8: ef 1f        	br $0x4009 <__free_r+0x1cf>
    3fea: 17           	movw ax, hl
    3feb: 44 ff 29     	cmpw ax, #10751
    3fee: 61 c3 08     	bh $0x3ff9 <__free_r+0x1bf>
    3ff1: 17           	movw ax, hl
    3ff2: 31 9e        	shrw ax, 9
    3ff4: 04 5b 00     	addw ax, #91
    3ff7: ef 10        	br $0x4009 <__free_r+0x1cf>
    3ff9: 32 78 00     	movw bc, #120
    3ffc: 17           	movw ax, hl
    3ffd: 44 ff a9     	cmpw ax, #43519
    4000: 61 c3 07     	bh $0x400a <__free_r+0x1d0>
    4003: 17           	movw ax, hl
    4004: 31 ce        	shrw ax, 12
    4006: 04 6e 00     	addw ax, #110
    4009: 12           	movw bc, ax
    400a: 36 82 f0     	movw hl, #61570
    400d: 33           	xchw ax, bc
    400e: b8 08        	movw [sp+8], ax
    4010: 33           	xchw ax, bc
    4011: 13           	movw ax, bc
    4012: 31 2d        	shlw ax, 2
    4014: 12           	movw bc, ax
    4015: 07           	addw ax, hl
    4016: 37           	xchw ax, hl
    4017: a8 02        	movw ax, [sp+2]
    4019: 37           	xchw ax, hl
    401a: 14           	movw de, ax
    401b: 79 86 f0     	movw ax, 61574[bc]              ; 0xff086 <___malloc_av_+0x4>
    401e: 35           	xchw ax, de
    401f: b8 06        	movw [sp+6], ax
    4021: 35           	xchw ax, de
    4022: 12           	movw bc, ax
    4023: 45           	cmpw ax, de
    4024: df 13        	bnz $0x4039 <__free_r+0x1ff>
    4026: f7           	clrw bc
    4027: a8 08        	movw ax, [sp+8]
    4029: 31 3e        	shrw ax, 3
    402b: 14           	movw de, ax
    402c: e6           	onew ax
    402d: fd e6 06     	call !0x6e6 <___ashlsi3>
    4030: fd 43 41     	call !0x4143 <_OUTLINED_FUNCTION_1>
    4033: a8 06        	movw ax, [sp+6]
    4035: 14           	movw de, ax
    4036: 15           	movw ax, de
    4037: ef 23        	br $0x405c <__free_r+0x222>
    4039: a8 06        	movw ax, [sp+6]
    403b: 14           	movw de, ax
    403c: 13           	movw ax, bc
    403d: 45           	cmpw ax, de
    403e: dd 16        	bz $0x4056 <__free_r+0x21c>
    4040: c3           	push bc
    4041: c4           	pop de
    4042: aa 02        	movw ax, [de+2]
    4044: 08           	xch a, x
    4045: 5c fc        	and a, #252
    4047: 08           	xch a, x
    4048: 14           	movw de, ax
    4049: 17           	movw ax, hl
    404a: 45           	cmpw ax, de
    404b: c3           	push bc
    404c: c4           	pop de
    404d: de 07        	bnc $0x4056 <__free_r+0x21c>
    404f: c3           	push bc
    4050: c4           	pop de
    4051: aa 04        	movw ax, [de+4]
    4053: 12           	movw bc, ax
    4054: ef e3        	br $0x4039 <__free_r+0x1ff>
    4056: c5           	push de
    4057: c2           	pop bc
    4058: aa 06        	movw ax, [de+6]
    405a: 14           	movw de, ax
    405b: 13           	movw ax, bc
    405c: b8 06        	movw [sp+6], ax
    405e: 33           	xchw ax, bc
    405f: a8 00        	movw ax, [sp+0]
    4061: 33           	xchw ax, bc
    4062: c3           	push bc
    4063: c6           	pop hl
    4064: bc 04        	movw [hl+4], ax
    4066: 15           	movw ax, de
    4067: bc 06        	movw [hl+6], ax
    4069: 04 04 00     	addw ax, #4
    406c: 35           	xchw ax, de
    406d: a8 06        	movw ax, [sp+6]
    406f: 35           	xchw ax, de
    4070: 16           	movw hl, ax
    4071: 13           	movw ax, bc
    4072: bb           	movw [hl], ax
    4073: ba 06        	movw [de+6], ax
    4075: a8 04        	movw ax, [sp+4]
    4077: 10 0c        	addw sp, #12
    4079: ed 04 3e     	br !0x3e04 <___malloc_unlock>
    407c: 10 0c        	addw sp, #12
    407e: d7           	ret

0000407f <__malloc_trim_r>:
    407f: 20 08        	subw sp, #8
    4081: 33           	xchw ax, bc
    4082: b8 04        	movw [sp+4], ax
    4084: 33           	xchw ax, bc
    4085: b8 00        	movw [sp+0], ax
    4087: fd 03 3e     	call !0x3e03 <___malloc_lock>
    408a: fb 86 f0     	movw hl, !0xff086               ; 0xff086 <___malloc_av_+0x4>
    408d: ac 02        	movw ax, [hl+2]
    408f: 08           	xch a, x
    4090: 5c fc        	and a, #252
    4092: 08           	xch a, x
    4093: 16           	movw hl, ax
    4094: f6           	clrw ax
    4095: b8 02        	movw [sp+2], ax
    4097: a8 04        	movw ax, [sp+4]
    4099: 12           	movw bc, ax
    409a: 17           	movw ax, hl
    409b: 23           	subw ax, bc
    409c: f7           	clrw bc
    409d: 61 d8        	sknc
    409f: b3           	decw bc
    40a0: 04 77 00     	addw ax, #119
    40a3: 61 d8        	sknc
    40a5: a3           	incw bc
    40a6: 08           	xch a, x
    40a7: 5c 80        	and a, #128
    40a9: 08           	xch a, x
    40aa: 14           	movw de, ax
    40ab: 13           	movw ax, bc
    40ac: c5           	push de
    40ad: c2           	pop bc
    40ae: 44 00 00     	cmpw ax, #0
    40b1: 71 ff        	xor1 cy, a.7
    40b3: a8 00        	movw ax, [sp+0]
    40b5: 14           	movw de, ax
    40b6: 13           	movw ax, bc
    40b7: 61 f8        	sknz
    40b9: 44 00 01     	cmpw ax, #256
    40bc: 61 d8        	sknc
    40be: ee 72 00     	br $!0x4133 <__malloc_trim_r+0xb4>
    40c1: f6           	clrw ax
    40c2: b8 02        	movw [sp+2], ax
    40c4: 13           	movw ax, bc
    40c5: b8 06        	movw [sp+6], ax
    40c7: f7           	clrw bc
    40c8: 17           	movw ax, hl
    40c9: b8 04        	movw [sp+4], ax
    40cb: 15           	movw ax, de
    40cc: fd 05 3e     	call !0x3e05 <__sbrk_r>
    40cf: 14           	movw de, ax
    40d0: a8 04        	movw ax, [sp+4]
    40d2: 02 86 f0     	addw ax, !0xff086               ; 0xff086 <___malloc_av_+0x4>
    40d5: 12           	movw bc, ax
    40d6: 15           	movw ax, de
    40d7: 35           	xchw ax, de
    40d8: a8 00        	movw ax, [sp+0]
    40da: 35           	xchw ax, de
    40db: 43           	cmpw ax, bc
    40dc: a8 06        	movw ax, [sp+6]
    40de: 12           	movw bc, ax
    40df: df 52        	bnz $0x4133 <__malloc_trim_r+0xb4>
    40e1: 30 80 00     	movw ax, #128
    40e4: 23           	subw ax, bc
    40e5: 12           	movw bc, ax
    40e6: 15           	movw ax, de
    40e7: fd 05 3e     	call !0x3e05 <__sbrk_r>
    40ea: 44 ff ff     	cmpw ax, #65535
    40ed: df 28        	bnz $0x4117 <__malloc_trim_r+0x98>
    40ef: f7           	clrw bc
    40f0: f6           	clrw ax
    40f1: b8 02        	movw [sp+2], ax
    40f3: a8 00        	movw ax, [sp+0]
    40f5: fd 05 3e     	call !0x3e05 <__sbrk_r>
    40f8: fb 86 f0     	movw hl, !0xff086               ; 0xff086 <___malloc_av_+0x4>
    40fb: 12           	movw bc, ax
    40fc: 27           	subw ax, hl
    40fd: 44 08 00     	cmpw ax, #8
    4100: 71 ff        	xor1 cy, a.7
    4102: 35           	xchw ax, de
    4103: a8 00        	movw ax, [sp+0]
    4105: 35           	xchw ax, de
    4106: dc 2b        	bc $0x4133 <__malloc_trim_r+0xb4>
    4108: fd 3c 41     	call !0x413c <_OUTLINED_FUNCTION_0>
    410b: 13           	movw ax, bc
    410c: 22 92 f2     	subw ax, !0xff292               ; 0xff292 <___malloc_sbrk_base>
    410f: bf aa f4     	movw !0xff4aa, ax               ; 0xff4aa <___malloc_current_mallinfo>
    4112: f6           	clrw ax
    4113: b8 02        	movw [sp+2], ax
    4115: ef 1c        	br $0x4133 <__malloc_trim_r+0xb4>
    4117: a8 06        	movw ax, [sp+6]
    4119: 04 80 ff     	addw ax, #65408
    411c: 12           	movw bc, ax
    411d: a8 04        	movw ax, [sp+4]
    411f: fb 86 f0     	movw hl, !0xff086               ; 0xff086 <___malloc_av_+0x4>
    4122: 23           	subw ax, bc
    4123: fd 3c 41     	call !0x413c <_OUTLINED_FUNCTION_0>
    4126: af aa f4     	movw ax, !0xff4aa               ; 0xff4aa <___malloc_current_mallinfo>
    4129: 23           	subw ax, bc
    412a: bf aa f4     	movw !0xff4aa, ax               ; 0xff4aa <___malloc_current_mallinfo>
    412d: e6           	onew ax
    412e: b8 02        	movw [sp+2], ax
    4130: a8 00        	movw ax, [sp+0]
    4132: 14           	movw de, ax
    4133: 15           	movw ax, de
    4134: fd 04 3e     	call !0x3e04 <___malloc_unlock>
    4137: a8 02        	movw ax, [sp+2]
    4139: 10 08        	addw sp, #8
    413b: d7           	ret

0000413c <_OUTLINED_FUNCTION_0>:
    413c: 08           	xch a, x
    413d: 6c 01        	or a, #1
    413f: 08           	xch a, x
    4140: bc 02        	movw [hl+2], ax
    4142: d7           	ret

00004143 <_OUTLINED_FUNCTION_1>:
    4143: 6f 85 f0     	or a, !0xff085                  ; 0xff085 <___malloc_av_+0x3>
    4146: 08           	xch a, x
    4147: 6f 84 f0     	or a, !0xff084                  ; 0xff084 <___malloc_av_+0x2>
    414a: 08           	xch a, x
    414b: bf 84 f0     	movw !0xff084, ax               ; 0xff084 <___malloc_av_+0x2>
    414e: d7           	ret

0000414f <_siscanf>:
    414f: 20 42        	subw sp, #66
    4151: 33           	xchw ax, bc
    4152: b8 40        	movw [sp+64], ax
    4154: 33           	xchw ax, bc
    4155: 12           	movw bc, ax
    4156: fd 8c 41     	call !0x418c <_OUTLINED_FUNCTION_1>
    4159: fb 64 f3     	movw hl, !0xff364               ; 0xff364 <__impure_ptr>
    415c: fd 78 41     	call !0x4178 <_OUTLINED_FUNCTION_0>
    415f: ae f8        	movw ax, sp
    4161: 04 46 00     	addw ax, #70
    4164: b8 02        	movw [sp+2], ax
    4166: b8 00        	movw [sp+0], ax
    4168: a8 40        	movw ax, [sp+64]
    416a: 14           	movw de, ax
    416b: ae f8        	movw ax, sp
    416d: 04 04 00     	addw ax, #4
    4170: 12           	movw bc, ax
    4171: 17           	movw ax, hl
    4172: fd 40 45     	call !0x4540 <___ssvfiscanf_r>
    4175: 10 42        	addw sp, #66
    4177: d7           	ret

00004178 <_OUTLINED_FUNCTION_0>:
    4178: f6           	clrw ax
    4179: b8 2e        	movw [sp+46], ax
    417b: b8 22        	movw [sp+34], ax
    417d: 30 9b 41     	movw ax, #16795
    4180: b8 1a        	movw [sp+26], ax
    4182: 13           	movw ax, bc
    4183: b8 14        	movw [sp+20], ax
    4185: b8 0a        	movw [sp+10], ax
    4187: f6           	clrw ax
    4188: b1           	decw ax
    4189: b8 10        	movw [sp+16], ax
    418b: d7           	ret

0000418c <_OUTLINED_FUNCTION_1>:
    418c: 30 04 02     	movw ax, #516
    418f: b8 0e        	movw [sp+14], ax
    4191: 13           	movw ax, bc
    4192: b8 12        	movw [sp+18], ax
    4194: b8 08        	movw [sp+8], ax
    4196: fd 16 06     	call !0x616 <_strlen>
    4199: 12           	movw bc, ax
    419a: d7           	ret

0000419b <___seofread>:
    419b: f6           	clrw ax
    419c: d7           	ret

0000419d <__strtoul_r>:
    419d: c1           	push ax
    419e: 16           	movw hl, ax
    419f: a8 06        	movw ax, [sp+6]
    41a1: b8 00        	movw [sp+0], ax
    41a3: 17           	movw ax, hl
    41a4: fd a9 41     	call !0x41a9 <__strtoul_l>
    41a7: c6           	pop hl
    41a8: d7           	ret

000041a9 <__strtoul_l>:
    41a9: 20 1e        	subw sp, #30
    41ab: 35           	xchw ax, de
    41ac: b8 16        	movw [sp+22], ax
    41ae: 35           	xchw ax, de
    41af: c3           	push bc
    41b0: c4           	pop de
    41b1: b8 1c        	movw [sp+28], ax
    41b3: a8 22        	movw ax, [sp+34]
    41b5: b8 0a        	movw [sp+10], ax
    41b7: 35           	xchw ax, de
    41b8: b8 18        	movw [sp+24], ax
    41ba: 35           	xchw ax, de
    41bb: c5           	push de
    41bc: c6           	pop hl
    41bd: 37           	xchw ax, hl
    41be: b8 04        	movw [sp+4], ax
    41c0: 37           	xchw ax, hl
    41c1: a5           	incw de
    41c2: 8b           	mov a, [hl]
    41c3: 36 f5 65     	movw hl, #26101
    41c6: 72           	mov c, a
    41c7: f1           	clrb a
    41c8: 73           	mov b, a
    41c9: 13           	movw ax, bc
    41ca: 07           	addw ax, hl
    41cb: 16           	movw hl, ax
    41cc: 31 b3 ec     	bt [hl].3, $0x41bb <__strtoul_l+0x12>
    41cf: a8 04        	movw ax, [sp+4]
    41d1: 16           	movw hl, ax
    41d2: 15           	movw ax, de
    41d3: b8 08        	movw [sp+8], ax
    41d5: 33           	xchw ax, bc
    41d6: b8 1a        	movw [sp+26], ax
    41d8: 33           	xchw ax, bc
    41d9: 62           	mov a, c
    41da: 4c 2d        	cmp a, #45
    41dc: dd 09        	bz $0x41e7 <__strtoul_l+0x3e>
    41de: 33           	xchw ax, bc
    41df: b8 06        	movw [sp+6], ax
    41e1: 33           	xchw ax, bc
    41e2: 62           	mov a, c
    41e3: 4c 2b        	cmp a, #43
    41e5: df 0b        	bnz $0x41f2 <__strtoul_l+0x49>
    41e7: 17           	movw ax, hl
    41e8: a1           	incw ax
    41e9: a1           	incw ax
    41ea: b8 08        	movw [sp+8], ax
    41ec: 8c 01        	mov a, [hl+1]
    41ee: 31 8e        	shrw ax, 8
    41f0: b8 06        	movw [sp+6], ax
    41f2: a8 0a        	movw ax, [sp+10]
    41f4: 12           	movw bc, ax
    41f5: a8 08        	movw ax, [sp+8]
    41f7: 16           	movw hl, ax
    41f8: 13           	movw ax, bc
    41f9: 08           	xch a, x
    41fa: 6c 10        	or a, #16
    41fc: 08           	xch a, x
    41fd: 44 10 00     	cmpw ax, #16
    4200: df 2a        	bnz $0x422c <__strtoul_l+0x83>
    4202: a8 06        	movw ax, [sp+6]
    4204: 44 30 00     	cmpw ax, #48
    4207: df 23        	bnz $0x422c <__strtoul_l+0x83>
    4209: 51 20        	mov a, #32
    420b: 6d           	or a, [hl]
    420c: 4c 78        	cmp a, #120
    420e: dd 0d        	bz $0x421d <__strtoul_l+0x74>
    4210: fd a3 43     	call !0x43a3 <_OUTLINED_FUNCTION_1>
    4213: 61 e8        	skz
    4215: 34 00 00     	movw de, #0
    4218: a8 08        	movw ax, [sp+8]
    421a: 16           	movw hl, ax
    421b: ef 23        	br $0x4240 <__strtoul_l+0x97>
    421d: 32 10 00     	movw bc, #16
    4220: 17           	movw ax, hl
    4221: a1           	incw ax
    4222: a1           	incw ax
    4223: 14           	movw de, ax
    4224: 8c 01        	mov a, [hl+1]
    4226: 31 8e        	shrw ax, 8
    4228: b8 06        	movw [sp+6], ax
    422a: c5           	push de
    422b: c6           	pop hl
    422c: fd a3 43     	call !0x43a3 <_OUTLINED_FUNCTION_1>
    422f: 61 e8        	skz
    4231: 34 00 00     	movw de, #0
    4234: 30 0a 00     	movw ax, #10
    4237: b8 12        	movw [sp+18], ax
    4239: a8 06        	movw ax, [sp+6]
    423b: 44 30 00     	cmpw ax, #48
    423e: df 0a        	bnz $0x424a <__strtoul_l+0xa1>
    4240: 30 08 00     	movw ax, #8
    4243: b8 12        	movw [sp+18], ax
    4245: 30 30 00     	movw ax, #48
    4248: b8 06        	movw [sp+6], ax
    424a: 17           	movw ax, hl
    424b: b8 08        	movw [sp+8], ax
    424d: 64           	mov a, e
    424e: 31 03 03     	bt a.0, $0x4254 <__strtoul_l+0xab>
    4251: 13           	movw ax, bc
    4252: b8 12        	movw [sp+18], ax
    4254: a8 12        	movw ax, [sp+18]
    4256: 14           	movw de, ax
    4257: f7           	clrw bc
    4258: b3           	decw bc
    4259: 15           	movw ax, de
    425a: 31 ff        	sarw ax, 15
    425c: 16           	movw hl, ax
    425d: f6           	clrw ax
    425e: b1           	decw ax
    425f: ce fb 0b     	divwu
    4262: 00           	nop
    4263: b8 0c        	movw [sp+12], ax
    4265: 13           	movw ax, bc
    4266: b8 0e        	movw [sp+14], ax
    4268: 15           	movw ax, de
    4269: b8 14        	movw [sp+20], ax
    426b: 36 00 00     	movw hl, #0
    426e: f6           	clrw ax
    426f: b8 04        	movw [sp+4], ax
    4271: b8 0a        	movw [sp+10], ax
    4273: a8 08        	movw ax, [sp+8]
    4275: 12           	movw bc, ax
    4276: a8 06        	movw ax, [sp+6]
    4278: 14           	movw de, ax
    4279: 15           	movw ax, de
    427a: 04 d0 ff     	addw ax, #65488
    427d: 44 0a 00     	cmpw ax, #10
    4280: dc 20        	bc $0x42a2 <__strtoul_l+0xf9>
    4282: 15           	movw ax, de
    4283: 04 bf ff     	addw ax, #65471
    4286: 44 19 00     	cmpw ax, #25
    4289: 61 c3 06     	bh $0x4292 <__strtoul_l+0xe9>
    428c: 15           	movw ax, de
    428d: 04 c9 ff     	addw ax, #65481
    4290: ef 10        	br $0x42a2 <__strtoul_l+0xf9>
    4292: 15           	movw ax, de
    4293: 04 9f ff     	addw ax, #65439
    4296: 44 19 00     	cmpw ax, #25
    4299: 61 f3        	sknh
    429b: ee 96 00     	br $!0x4334 <__strtoul_l+0x18b>
    429e: 15           	movw ax, de
    429f: 04 a9 ff     	addw ax, #65449
    42a2: b8 10        	movw [sp+16], ax
    42a4: 35           	xchw ax, de
    42a5: a8 12        	movw ax, [sp+18]
    42a7: 35           	xchw ax, de
    42a8: 45           	cmpw ax, de
    42a9: 71 ff        	xor1 cy, a.7
    42ab: 65           	mov a, d
    42ac: 71 ff        	xor1 cy, a.7
    42ae: 61 c8        	skc
    42b0: ee 81 00     	br $!0x4334 <__strtoul_l+0x18b>
    42b3: 13           	movw ax, bc
    42b4: b8 08        	movw [sp+8], ax
    42b6: f6           	clrw ax
    42b7: b1           	decw ax
    42b8: b8 06        	movw [sp+6], ax
    42ba: a8 04        	movw ax, [sp+4]
    42bc: 35           	xchw ax, de
    42bd: a8 0a        	movw ax, [sp+10]
    42bf: b8 04        	movw [sp+4], ax
    42c1: 35           	xchw ax, de
    42c2: c7           	push hl
    42c3: c2           	pop bc
    42c4: 31 73 50     	bt a.7, $0x4317 <__strtoul_l+0x16e>
    42c7: fd 9a 43     	call !0x439a <_OUTLINED_FUNCTION_0>
    42ca: 35           	xchw ax, de
    42cb: b8 04        	movw [sp+4], ax
    42cd: 35           	xchw ax, de
    42ce: 15           	movw ax, de
    42cf: 61 f8        	sknz
    42d1: 43           	cmpw ax, bc
    42d2: c7           	push hl
    42d3: c2           	pop bc
    42d4: 61 c3 40     	bh $0x4317 <__strtoul_l+0x16e>
    42d7: fd 9a 43     	call !0x439a <_OUTLINED_FUNCTION_0>
    42da: 15           	movw ax, de
    42db: 61 f8        	sknz
    42dd: 43           	cmpw ax, bc
    42de: df 1a        	bnz $0x42fa <__strtoul_l+0x151>
    42e0: f6           	clrw ax
    42e1: b1           	decw ax
    42e2: b8 06        	movw [sp+6], ax
    42e4: a8 10        	movw ax, [sp+16]
    42e6: 33           	xchw ax, bc
    42e7: a8 14        	movw ax, [sp+20]
    42e9: 33           	xchw ax, bc
    42ea: 43           	cmpw ax, bc
    42eb: 71 ff        	xor1 cy, a.7
    42ed: 63           	mov a, b
    42ee: 71 ff        	xor1 cy, a.7
    42f0: a8 0c        	movw ax, [sp+12]
    42f2: b8 04        	movw [sp+4], ax
    42f4: a8 0e        	movw ax, [sp+14]
    42f6: 12           	movw bc, ax
    42f7: 61 c3 1d     	bh $0x4317 <__strtoul_l+0x16e>
    42fa: a8 12        	movw ax, [sp+18]
    42fc: b8 00        	movw [sp+0], ax
    42fe: 31 ff        	sarw ax, 15
    4300: b8 02        	movw [sp+2], ax
    4302: c7           	push hl
    4303: c2           	pop bc
    4304: 15           	movw ax, de
    4305: fd 3e 0a     	call !0xa3e <___mulsi3>
    4308: 35           	xchw ax, de
    4309: a8 10        	movw ax, [sp+16]
    430b: 35           	xchw ax, de
    430c: 05           	addw ax, de
    430d: 14           	movw de, ax
    430e: 61 d8        	sknc
    4310: a3           	incw bc
    4311: e6           	onew ax
    4312: b8 06        	movw [sp+6], ax
    4314: 15           	movw ax, de
    4315: b8 04        	movw [sp+4], ax
    4317: a8 08        	movw ax, [sp+8]
    4319: 16           	movw hl, ax
    431a: c7           	push hl
    431b: c4           	pop de
    431c: a5           	incw de
    431d: 8b           	mov a, [hl]
    431e: 37           	xchw ax, hl
    431f: a8 04        	movw ax, [sp+4]
    4321: 37           	xchw ax, hl
    4322: 70           	mov x, a
    4323: 37           	xchw ax, hl
    4324: b8 0a        	movw [sp+10], ax
    4326: 37           	xchw ax, hl
    4327: f1           	clrb a
    4328: c3           	push bc
    4329: c6           	pop hl
    432a: c5           	push de
    432b: c2           	pop bc
    432c: 14           	movw de, ax
    432d: a8 06        	movw ax, [sp+6]
    432f: b8 04        	movw [sp+4], ax
    4331: ee 45 ff     	br $!0x4279 <__strtoul_l+0xd0>
    4334: a8 04        	movw ax, [sp+4]
    4336: 31 75 0f     	bf a.7, $0x4348 <__strtoul_l+0x19f>
    4339: a8 1c        	movw ax, [sp+28]
    433b: 14           	movw de, ax
    433c: 36 ff ff     	movw hl, #65535
    433f: 30 22 00     	movw ax, #34
    4342: b9           	movw [de], ax
    4343: 34 ff ff     	movw de, #65535
    4346: ef 16        	br $0x435e <__strtoul_l+0x1b5>
    4348: a8 1a        	movw ax, [sp+26]
    434a: 35           	xchw ax, de
    434b: a8 0a        	movw ax, [sp+10]
    434d: 35           	xchw ax, de
    434e: 60           	mov a, x
    434f: 4c 2d        	cmp a, #45
    4351: df 0b        	bnz $0x435e <__strtoul_l+0x1b5>
    4353: f6           	clrw ax
    4354: 25           	subw ax, de
    4355: 14           	movw de, ax
    4356: f6           	clrw ax
    4357: 08           	xch a, x
    4358: 61 3e        	subc a, l
    435a: 08           	xch a, x
    435b: 61 3f        	subc a, h
    435d: 16           	movw hl, ax
    435e: a8 16        	movw ax, [sp+22]
    4360: 44 00 00     	cmpw ax, #0
    4363: dd 18        	bz $0x437d <__strtoul_l+0x1d4>
    4365: 15           	movw ax, de
    4366: b8 0a        	movw [sp+10], ax
    4368: a8 04        	movw ax, [sp+4]
    436a: 44 00 00     	cmpw ax, #0
    436d: dd 04        	bz $0x4373 <__strtoul_l+0x1ca>
    436f: b3           	decw bc
    4370: 13           	movw ax, bc
    4371: b8 18        	movw [sp+24], ax
    4373: a8 18        	movw ax, [sp+24]
    4375: 35           	xchw ax, de
    4376: a8 16        	movw ax, [sp+22]
    4378: 35           	xchw ax, de
    4379: b9           	movw [de], ax
    437a: a8 0a        	movw ax, [sp+10]
    437c: 14           	movw de, ax
    437d: 15           	movw ax, de
    437e: c7           	push hl
    437f: c2           	pop bc
    4380: 10 1e        	addw sp, #30
    4382: d7           	ret

00004383 <_strtoul>:
    4383: 20 04        	subw sp, #4
    4385: 33           	xchw ax, bc
    4386: b8 02        	movw [sp+2], ax
    4388: 33           	xchw ax, bc
    4389: fb 64 f3     	movw hl, !0xff364               ; 0xff364 <__impure_ptr>
    438c: 12           	movw bc, ax
    438d: 15           	movw ax, de
    438e: b8 00        	movw [sp+0], ax
    4390: a8 02        	movw ax, [sp+2]
    4392: 14           	movw de, ax
    4393: 17           	movw ax, hl
    4394: fd a9 41     	call !0x41a9 <__strtoul_l>
    4397: 10 04        	addw sp, #4
    4399: d7           	ret

0000439a <_OUTLINED_FUNCTION_0>:
    439a: a8 12        	movw ax, [sp+18]
    439c: 12           	movw bc, ax
    439d: 17           	movw ax, hl
    439e: 43           	cmpw ax, bc
    439f: a8 10        	movw ax, [sp+16]
    43a1: 12           	movw bc, ax
    43a2: d7           	ret

000043a3 <_OUTLINED_FUNCTION_1>:
    43a3: 34 01 00     	movw de, #1
    43a6: 13           	movw ax, bc
    43a7: 44 00 00     	cmpw ax, #0
    43aa: d7           	ret

000043ab <_malloc>:
    43ab: 12           	movw bc, ax
    43ac: af 64 f3     	movw ax, !0xff364               ; 0xff364 <__impure_ptr>
    43af: ed 92 37     	br !0x3792 <__malloc_r>

000043b2 <_free>:
    43b2: 12           	movw bc, ax
    43b3: af 64 f3     	movw ax, !0xff364               ; 0xff364 <__impure_ptr>
    43b6: ed 3a 3e     	br !0x3e3a <__free_r>

000043b9 <__sungetc_r>:
    43b9: 20 06        	subw sp, #6
    43bb: 16           	movw hl, ax
    43bc: 13           	movw ax, bc
    43bd: 44 ff ff     	cmpw ax, #65535
    43c0: df 05        	bnz $0x43c7 <__sungetc_r+0xe>
    43c2: f7           	clrw bc
    43c3: b3           	decw bc
    43c4: ee 94 00     	br $!0x445b <__sungetc_r+0xa2>
    43c7: 17           	movw ax, hl
    43c8: b8 04        	movw [sp+4], ax
    43ca: 15           	movw ax, de
    43cb: 04 06 00     	addw ax, #6
    43ce: 16           	movw hl, ax
    43cf: 71 d3        	clr1 [hl].5
    43d1: 08           	xch a, x
    43d2: 62           	mov a, c
    43d3: 08           	xch a, x
    43d4: b8 00        	movw [sp+0], ax
    43d6: 13           	movw ax, bc
    43d7: f1           	clrb a
    43d8: b8 02        	movw [sp+2], ax
    43da: c5           	push de
    43db: c6           	pop hl
    43dc: ac 1a        	movw ax, [hl+26]
    43de: 44 00 00     	cmpw ax, #0
    43e1: dd 30        	bz $0x4413 <__sungetc_r+0x5a>
    43e3: ac 02        	movw ax, [hl+2]
    43e5: 61 49 1c     	cmpw ax, [hl+28]
    43e8: 71 ff        	xor1 cy, a.7
    43ea: ac 1c        	movw ax, [hl+28]
    43ec: 71 ff        	xor1 cy, a.7
    43ee: dc 16        	bc $0x4406 <__sungetc_r+0x4d>
    43f0: c7           	push hl
    43f1: c2           	pop bc
    43f2: a8 04        	movw ax, [sp+4]
    43f4: 37           	xchw ax, hl
    43f5: b8 04        	movw [sp+4], ax
    43f7: 37           	xchw ax, hl
    43f8: fd 1e 57     	call !0x571e <___submore>
    43fb: 37           	xchw ax, hl
    43fc: a8 04        	movw ax, [sp+4]
    43fe: 37           	xchw ax, hl
    43ff: f7           	clrw bc
    4400: b3           	decw bc
    4401: 44 00 00     	cmpw ax, #0
    4404: df 55        	bnz $0x445b <__sungetc_r+0xa2>
    4406: f6           	clrw ax
    4407: b1           	decw ax
    4408: 61 09 00     	addw ax, [hl]
    440b: bb           	movw [hl], ax
    440c: 14           	movw de, ax
    440d: a8 00        	movw ax, [sp+0]
    440f: 60           	mov a, x
    4410: 99           	mov [de], a
    4411: ef 1d        	br $0x4430 <__sungetc_r+0x77>
    4413: ac 0a        	movw ax, [hl+10]
    4415: c7           	push hl
    4416: c4           	pop de
    4417: 12           	movw bc, ax
    4418: 44 00 00     	cmpw ax, #0
    441b: dd 18        	bz $0x4435 <__sungetc_r+0x7c>
    441d: c5           	push de
    441e: c6           	pop hl
    441f: ab           	movw ax, [hl]
    4420: 16           	movw hl, ax
    4421: 13           	movw ax, bc
    4422: 47           	cmpw ax, hl
    4423: de 10        	bnc $0x4435 <__sungetc_r+0x7c>
    4425: b7           	decw hl
    4426: a8 00        	movw ax, [sp+0]
    4428: 60           	mov a, x
    4429: 4d           	cmp a, [hl]
    442a: df 09        	bnz $0x4435 <__sungetc_r+0x7c>
    442c: 17           	movw ax, hl
    442d: c5           	push de
    442e: c6           	pop hl
    442f: bb           	movw [hl], ax
    4430: 61 79 02     	incw [hl+2]
    4433: ef 23        	br $0x4458 <__sungetc_r+0x9f>
    4435: a8 00        	movw ax, [sp+0]
    4437: 60           	mov a, x
    4438: c5           	push de
    4439: c6           	pop hl
    443a: 9c 24        	mov [hl+36], a
    443c: 30 03 00     	movw ax, #3
    443f: bc 1c        	movw [hl+28], ax
    4441: ac 02        	movw ax, [hl+2]
    4443: bc 20        	movw [hl+32], ax
    4445: ab           	movw ax, [hl]
    4446: 12           	movw bc, ax
    4447: 15           	movw ax, de
    4448: 04 24 00     	addw ax, #36
    444b: bb           	movw [hl], ax
    444c: 13           	movw ax, bc
    444d: bc 1e        	movw [hl+30], ax
    444f: 15           	movw ax, de
    4450: 04 22 00     	addw ax, #34
    4453: bc 1a        	movw [hl+26], ax
    4455: e6           	onew ax
    4456: bc 02        	movw [hl+2], ax
    4458: a8 02        	movw ax, [sp+2]
    445a: 12           	movw bc, ax
    445b: 13           	movw ax, bc
    445c: 10 06        	addw sp, #6
    445e: d7           	ret

0000445f <___ssrefill_r>:
    445f: c1           	push ax
    4460: c3           	push bc
    4461: c6           	pop hl
    4462: 14           	movw de, ax
    4463: ac 1a        	movw ax, [hl+26]
    4465: 12           	movw bc, ax
    4466: 44 00 00     	cmpw ax, #0
    4469: dd 26        	bz $0x4491 <___ssrefill_r+0x32>
    446b: 37           	xchw ax, hl
    446c: b8 00        	movw [sp+0], ax
    446e: 37           	xchw ax, hl
    446f: 17           	movw ax, hl
    4470: 04 22 00     	addw ax, #34
    4473: 16           	movw hl, ax
    4474: 13           	movw ax, bc
    4475: 47           	cmpw ax, hl
    4476: dd 04        	bz $0x447c <___ssrefill_r+0x1d>
    4478: 15           	movw ax, de
    4479: fd 3a 3e     	call !0x3e3a <__free_r>
    447c: a8 00        	movw ax, [sp+0]
    447e: 16           	movw hl, ax
    447f: f6           	clrw ax
    4480: bc 1a        	movw [hl+26], ax
    4482: ac 20        	movw ax, [hl+32]
    4484: 44 00 00     	cmpw ax, #0
    4487: bc 02        	movw [hl+2], ax
    4489: dd 06        	bz $0x4491 <___ssrefill_r+0x32>
    448b: ac 1e        	movw ax, [hl+30]
    448d: bb           	movw [hl], ax
    448e: f6           	clrw ax
    448f: ef 0f        	br $0x44a0 <___ssrefill_r+0x41>
    4491: f6           	clrw ax
    4492: bc 02        	movw [hl+2], ax
    4494: ac 0a        	movw ax, [hl+10]
    4496: bb           	movw [hl], ax
    4497: 17           	movw ax, hl
    4498: 04 06 00     	addw ax, #6
    449b: 16           	movw hl, ax
    449c: 71 d2        	set1 [hl].5
    449e: f6           	clrw ax
    449f: b1           	decw ax
    44a0: c6           	pop hl
    44a1: d7           	ret

000044a2 <__sfread_r>:
    44a2: 20 10        	subw sp, #16
    44a4: 33           	xchw ax, bc
    44a5: b8 04        	movw [sp+4], ax
    44a7: 33           	xchw ax, bc
    44a8: b8 08        	movw [sp+8], ax
    44aa: a8 16        	movw ax, [sp+22]
    44ac: b8 02        	movw [sp+2], ax
    44ae: 35           	xchw ax, de
    44af: b8 0c        	movw [sp+12], ax
    44b1: 35           	xchw ax, de
    44b2: a8 14        	movw ax, [sp+20]
    44b4: 12           	movw bc, ax
    44b5: 33           	xchw ax, bc
    44b6: b8 0a        	movw [sp+10], ax
    44b8: 33           	xchw ax, bc
    44b9: 15           	movw ax, de
    44ba: ce fb 01     	mulhu
    44bd: 44 00 00     	cmpw ax, #0
    44c0: b8 0e        	movw [sp+14], ax
    44c2: b8 00        	movw [sp+0], ax
    44c4: df 04        	bnz $0x44ca <__sfread_r+0x28>
    44c6: f6           	clrw ax
    44c7: ee 73 00     	br $!0x453d <__sfread_r+0x9b>
    44ca: a8 02        	movw ax, [sp+2]
    44cc: 16           	movw hl, ax
    44cd: ac 02        	movw ax, [hl+2]
    44cf: 12           	movw bc, ax
    44d0: a8 00        	movw ax, [sp+0]
    44d2: 43           	cmpw ax, bc
    44d3: 61 d3 45     	bnh $0x451b <__sfread_r+0x79>
    44d6: a8 02        	movw ax, [sp+2]
    44d8: 16           	movw hl, ax
    44d9: ab           	movw ax, [hl]
    44da: 33           	xchw ax, bc
    44db: b8 06        	movw [sp+6], ax
    44dd: 33           	xchw ax, bc
    44de: c3           	push bc
    44df: c4           	pop de
    44e0: 12           	movw bc, ax
    44e1: a8 04        	movw ax, [sp+4]
    44e3: fd 55 06     	call !0x655 <_memcpy>
    44e6: a8 02        	movw ax, [sp+2]
    44e8: 16           	movw hl, ax
    44e9: f6           	clrw ax
    44ea: bc 02        	movw [hl+2], ax
    44ec: a8 06        	movw ax, [sp+6]
    44ee: 14           	movw de, ax
    44ef: 15           	movw ax, de
    44f0: 61 09 00     	addw ax, [hl]
    44f3: c7           	push hl
    44f4: c2           	pop bc
    44f5: bb           	movw [hl], ax
    44f6: a8 00        	movw ax, [sp+0]
    44f8: 25           	subw ax, de
    44f9: b8 00        	movw [sp+0], ax
    44fb: a8 04        	movw ax, [sp+4]
    44fd: 05           	addw ax, de
    44fe: b8 04        	movw [sp+4], ax
    4500: a8 08        	movw ax, [sp+8]
    4502: fd 5f 44     	call !0x445f <___ssrefill_r>
    4505: 44 00 00     	cmpw ax, #0
    4508: dd c0        	bz $0x44ca <__sfread_r+0x28>
    450a: a8 0e        	movw ax, [sp+14]
    450c: 33           	xchw ax, bc
    450d: a8 00        	movw ax, [sp+0]
    450f: 33           	xchw ax, bc
    4510: 35           	xchw ax, de
    4511: a8 0c        	movw ax, [sp+12]
    4513: 35           	xchw ax, de
    4514: 23           	subw ax, bc
    4515: ce fb 03     	divhu
    4518: 00           	nop
    4519: ef 22        	br $0x453d <__sfread_r+0x9b>
    451b: a8 02        	movw ax, [sp+2]
    451d: 16           	movw hl, ax
    451e: ab           	movw ax, [hl]
    451f: 35           	xchw ax, de
    4520: a8 00        	movw ax, [sp+0]
    4522: 35           	xchw ax, de
    4523: 12           	movw bc, ax
    4524: a8 04        	movw ax, [sp+4]
    4526: fd 55 06     	call !0x655 <_memcpy>
    4529: a8 02        	movw ax, [sp+2]
    452b: 16           	movw hl, ax
    452c: a8 00        	movw ax, [sp+0]
    452e: 14           	movw de, ax
    452f: 15           	movw ax, de
    4530: 61 09 00     	addw ax, [hl]
    4533: bb           	movw [hl], ax
    4534: c7           	push hl
    4535: c2           	pop bc
    4536: ac 02        	movw ax, [hl+2]
    4538: 25           	subw ax, de
    4539: bc 02        	movw [hl+2], ax
    453b: a8 0a        	movw ax, [sp+10]
    453d: 10 10        	addw sp, #16
    453f: d7           	ret

00004540 <___ssvfiscanf_r>:
    4540: 20 fe        	subw sp, #254
    4542: 20 6e        	subw sp, #110
    4544: 35           	xchw ax, de
    4545: b8 10        	movw [sp+16], ax
    4547: 35           	xchw ax, de
    4548: b8 1e        	movw [sp+30], ax
    454a: f6           	clrw ax
    454b: b8 1a        	movw [sp+26], ax
    454d: b8 20        	movw [sp+32], ax
    454f: c3           	push bc
    4550: db f8 ff     	movw bc, sp
    4553: 79 72 01     	movw ax, 370[bc]                ; 0xf0172 <__frodata+0xe9a14>
    4556: c2           	pop bc
    4557: b8 0c        	movw [sp+12], ax
    4559: 33           	xchw ax, bc
    455a: b8 08        	movw [sp+8], ax
    455c: 33           	xchw ax, bc
    455d: c3           	push bc
    455e: c6           	pop hl
    455f: f7           	clrw bc
    4560: ac 06        	movw ax, [hl+6]
    4562: 33           	xchw ax, bc
    4563: fd 57 56     	call !0x5657 <_OUTLINED_FUNCTION_36>
    4566: b8 16        	movw [sp+22], ax
    4568: 33           	xchw ax, bc
    4569: 31 53 19     	bt a.5, $0x4585 <___ssvfiscanf_r+0x45>
    456c: 37           	xchw ax, hl
    456d: a8 08        	movw ax, [sp+8]
    456f: 37           	xchw ax, hl
    4570: 6c 20        	or a, #32
    4572: bc 06        	movw [hl+6], ax
    4574: 17           	movw ax, hl
    4575: 04 3b 00     	addw ax, #59
    4578: 16           	movw hl, ax
    4579: 71 d3        	clr1 [hl].5
    457b: f6           	clrw ax
    457c: b8 1a        	movw [sp+26], ax
    457e: b8 20        	movw [sp+32], ax
    4580: fd 57 56     	call !0x5657 <_OUTLINED_FUNCTION_36>
    4583: b8 16        	movw [sp+22], ax
    4585: a8 10        	movw ax, [sp+16]
    4587: 16           	movw hl, ax
    4588: 8b           	mov a, [hl]
    4589: 72           	mov c, a
    458a: f1           	clrb a
    458b: 73           	mov b, a
    458c: 13           	movw ax, bc
    458d: c3           	push bc
    458e: db f8 ff     	movw bc, sp
    4591: 78 5c 01     	movw 348[bc], ax                ; 0xf015c <__frodata+0xe99fe>
    4594: c2           	pop bc
    4595: 62           	mov a, c
    4596: d1           	cmp0 a
    4597: 61 f8        	sknz
    4599: ee 40 0e     	br $!0x53dc <___ssvfiscanf_r+0xe9c>
    459c: 34 f5 65     	movw de, #26101
    459f: 13           	movw ax, bc
    45a0: 05           	addw ax, de
    45a1: 35           	xchw ax, de
    45a2: a8 10        	movw ax, [sp+16]
    45a4: 35           	xchw ax, de
    45a5: 16           	movw hl, ax
    45a6: a5           	incw de
    45a7: 15           	movw ax, de
    45a8: b8 10        	movw [sp+16], ax
    45aa: a8 08        	movw ax, [sp+8]
    45ac: 31 b5 2b     	bf [hl].3, $0x45da <___ssvfiscanf_r+0x9a>
    45af: 16           	movw hl, ax
    45b0: ac 02        	movw ax, [hl+2]
    45b2: 01           	addw ax, ax
    45b3: 61 c3 05     	bh $0x45bb <___ssvfiscanf_r+0x7b>
    45b6: fd aa 54     	call !0x54aa <_OUTLINED_FUNCTION_4>
    45b9: df ca        	bnz $0x4585 <___ssvfiscanf_r+0x45>
    45bb: a8 08        	movw ax, [sp+8]
    45bd: 16           	movw hl, ax
    45be: ab           	movw ax, [hl]
    45bf: 12           	movw bc, ax
    45c0: c3           	push bc
    45c1: c6           	pop hl
    45c2: 34 f5 65     	movw de, #26101
    45c5: 8b           	mov a, [hl]
    45c6: 31 8e        	shrw ax, 8
    45c8: 05           	addw ax, de
    45c9: 16           	movw hl, ax
    45ca: 31 b5 b8     	bf [hl].3, $0x4585 <___ssvfiscanf_r+0x45>
    45cd: a8 08        	movw ax, [sp+8]
    45cf: 16           	movw hl, ax
    45d0: a3           	incw bc
    45d1: fd 16 57     	call !0x5716 <_OUTLINED_FUNCTION_59>
    45d4: a1           	incw ax
    45d5: b8 0e        	movw [sp+14], ax
    45d7: 17           	movw ax, hl
    45d8: ef d5        	br $0x45af <___ssvfiscanf_r+0x6f>
    45da: 62           	mov a, c
    45db: 4c 25        	cmp a, #37
    45dd: f7           	clrw bc
    45de: f6           	clrw ax
    45df: b8 06        	movw [sp+6], ax
    45e1: 61 e8        	skz
    45e3: ee e2 00     	br $!0x46c8 <___ssvfiscanf_r+0x188>
    45e6: a8 10        	movw ax, [sp+16]
    45e8: 16           	movw hl, ax
    45e9: c7           	push hl
    45ea: c4           	pop de
    45eb: a5           	incw de
    45ec: 8b           	mov a, [hl]
    45ed: 33           	xchw ax, bc
    45ee: b8 04        	movw [sp+4], ax
    45f0: 33           	xchw ax, bc
    45f1: 76           	mov l, a
    45f2: 0c d0        	add a, #208
    45f4: 4c 0a        	cmp a, #10
    45f6: 61 d8        	sknc
    45f8: ee 9f 01     	br $!0x479a <___ssvfiscanf_r+0x25a>
    45fb: 66           	mov a, l
    45fc: 4c 2a        	cmp a, #42
    45fe: 61 f8        	sknz
    4600: ee 05 01     	br $!0x4708 <___ssvfiscanf_r+0x1c8>
    4603: 66           	mov a, l
    4604: 4c 4c        	cmp a, #76
    4606: 61 f8        	sknz
    4608: ee 4c 01     	br $!0x4757 <___ssvfiscanf_r+0x217>
    460b: 66           	mov a, l
    460c: 4c 68        	cmp a, #104
    460e: 61 f8        	sknz
    4610: ee 52 01     	br $!0x4765 <___ssvfiscanf_r+0x225>
    4613: 66           	mov a, l
    4614: 4c 6a        	cmp a, #106
    4616: 61 f8        	sknz
    4618: ee 3c 01     	br $!0x4757 <___ssvfiscanf_r+0x217>
    461b: 66           	mov a, l
    461c: 4c 6c        	cmp a, #108
    461e: 61 f8        	sknz
    4620: ee 0c 01     	br $!0x472f <___ssvfiscanf_r+0x1ef>
    4623: 66           	mov a, l
    4624: 4c 6d        	cmp a, #109
    4626: 61 f8        	sknz
    4628: ee 61 01     	br $!0x478c <___ssvfiscanf_r+0x24c>
    462b: 66           	mov a, l
    462c: 4c 74        	cmp a, #116
    462e: 61 f8        	sknz
    4630: ee 4b 01     	br $!0x477e <___ssvfiscanf_r+0x23e>
    4633: 66           	mov a, l
    4634: 4c 7a        	cmp a, #122
    4636: 61 f8        	sknz
    4638: ee 43 01     	br $!0x477e <___ssvfiscanf_r+0x23e>
    463b: 66           	mov a, l
    463c: 4c 78        	cmp a, #120
    463e: 61 f8        	sknz
    4640: ee 96 01     	br $!0x47d9 <___ssvfiscanf_r+0x299>
    4643: 66           	mov a, l
    4644: 4c 43        	cmp a, #67
    4646: 61 f8        	sknz
    4648: ee b7 01     	br $!0x4802 <___ssvfiscanf_r+0x2c2>
    464b: 66           	mov a, l
    464c: 4c 44        	cmp a, #68
    464e: 61 f8        	sknz
    4650: ee 68 01     	br $!0x47bb <___ssvfiscanf_r+0x27b>
    4653: 66           	mov a, l
    4654: 4c 4f        	cmp a, #79
    4656: 61 f8        	sknz
    4658: ee 74 01     	br $!0x47cf <___ssvfiscanf_r+0x28f>
    465b: 66           	mov a, l
    465c: 4c 53        	cmp a, #83
    465e: 61 f8        	sknz
    4660: ee 7e 01     	br $!0x47e1 <___ssvfiscanf_r+0x2a1>
    4663: 66           	mov a, l
    4664: 4c 58        	cmp a, #88
    4666: 61 f8        	sknz
    4668: ee 6e 01     	br $!0x47d9 <___ssvfiscanf_r+0x299>
    466b: 66           	mov a, l
    466c: 4c 5b        	cmp a, #91
    466e: 61 f8        	sknz
    4670: ee 75 01     	br $!0x47e8 <___ssvfiscanf_r+0x2a8>
    4673: 66           	mov a, l
    4674: 4c 63        	cmp a, #99
    4676: 61 f8        	sknz
    4678: ee 8d 01     	br $!0x4808 <___ssvfiscanf_r+0x2c8>
    467b: 66           	mov a, l
    467c: 4c 64        	cmp a, #100
    467e: df 0d        	bnz $0x468d <___ssvfiscanf_r+0x14d>
    4680: fd 06 56     	call !0x5606 <_OUTLINED_FUNCTION_26>
    4683: b8 26        	movw [sp+38], ax
    4685: 30 d5 2f     	movw ax, #12245
    4688: b8 58        	movw [sp+88], ax
    468a: ee 07 02     	br $!0x4894 <___ssvfiscanf_r+0x354>
    468d: 66           	mov a, l
    468e: 4c 69        	cmp a, #105
    4690: 61 f8        	sknz
    4692: ee e1 01     	br $!0x4876 <___ssvfiscanf_r+0x336>
    4695: 66           	mov a, l
    4696: 4c 6e        	cmp a, #110
    4698: 61 f8        	sknz
    469a: ee 7e 01     	br $!0x481b <___ssvfiscanf_r+0x2db>
    469d: 66           	mov a, l
    469e: 4c 6f        	cmp a, #111
    46a0: 61 f8        	sknz
    46a2: ee da 01     	br $!0x487f <___ssvfiscanf_r+0x33f>
    46a5: 66           	mov a, l
    46a6: 4c 70        	cmp a, #112
    46a8: 61 f8        	sknz
    46aa: ee 64 01     	br $!0x4811 <___ssvfiscanf_r+0x2d1>
    46ad: 66           	mov a, l
    46ae: 4c 73        	cmp a, #115
    46b0: 61 f8        	sknz
    46b2: ee da 01     	br $!0x488f <___ssvfiscanf_r+0x34f>
    46b5: 66           	mov a, l
    46b6: 4c 75        	cmp a, #117
    46b8: 61 f8        	sknz
    46ba: ee cd 01     	br $!0x488a <___ssvfiscanf_r+0x34a>
    46bd: 15           	movw ax, de
    46be: b8 10        	movw [sp+16], ax
    46c0: 66           	mov a, l
    46c1: 4c 25        	cmp a, #37
    46c3: 61 e8        	skz
    46c5: ee 14 0d     	br $!0x53dc <___ssvfiscanf_r+0xe9c>
    46c8: a8 10        	movw ax, [sp+16]
    46ca: 14           	movw de, ax
    46cb: e1           	oneb a
    46cc: b5           	decw de
    46cd: 71 8c        	mov1 cy, a.0
    46cf: 61 c8        	skc
    46d1: ee b1 fe     	br $!0x4585 <___ssvfiscanf_r+0x45>
    46d4: a8 08        	movw ax, [sp+8]
    46d6: 16           	movw hl, ax
    46d7: ac 02        	movw ax, [hl+2]
    46d9: 01           	addw ax, ax
    46da: 61 c3 0d     	bh $0x46ea <___ssvfiscanf_r+0x1aa>
    46dd: c7           	push hl
    46de: c2           	pop bc
    46df: fd f8 55     	call !0x55f8 <_OUTLINED_FUNCTION_25>
    46e2: fd a2 54     	call !0x54a2 <_OUTLINED_FUNCTION_3>
    46e5: 61 e8        	skz
    46e7: ee e2 0c     	br $!0x53cc <___ssvfiscanf_r+0xe8c>
    46ea: ab           	movw ax, [hl]
    46eb: 12           	movw bc, ax
    46ec: c3           	push bc
    46ed: c6           	pop hl
    46ee: 8b           	mov a, [hl]
    46ef: c5           	push de
    46f0: c6           	pop hl
    46f1: 4d           	cmp a, [hl]
    46f2: 61 e8        	skz
    46f4: ee e5 0c     	br $!0x53dc <___ssvfiscanf_r+0xe9c>
    46f7: a8 08        	movw ax, [sp+8]
    46f9: 16           	movw hl, ax
    46fa: a3           	incw bc
    46fb: a5           	incw de
    46fc: fd 16 57     	call !0x5716 <_OUTLINED_FUNCTION_59>
    46ff: 12           	movw bc, ax
    4700: f1           	clrb a
    4701: a3           	incw bc
    4702: 33           	xchw ax, bc
    4703: b8 0e        	movw [sp+14], ax
    4705: 33           	xchw ax, bc
    4706: ef c5        	br $0x46cd <___ssvfiscanf_r+0x18d>
    4708: a8 06        	movw ax, [sp+6]
    470a: 16           	movw hl, ax
    470b: 13           	movw ax, bc
    470c: 08           	xch a, x
    470d: 5c 9f        	and a, #159
    470f: 08           	xch a, x
    4710: f1           	clrb a
    4711: 61 6f        	or a, h
    4713: 08           	xch a, x
    4714: 61 6e        	or a, l
    4716: 08           	xch a, x
    4717: 44 00 00     	cmpw ax, #0
    471a: e6           	onew ax
    471b: 61 e8        	skz
    471d: f6           	clrw ax
    471e: 60           	mov a, x
    471f: 4c 01        	cmp a, #1
    4721: 61 e8        	skz
    4723: ee b6 0c     	br $!0x53dc <___ssvfiscanf_r+0xe9c>
    4726: f6           	clrw ax
    4727: b8 06        	movw [sp+6], ax
    4729: 13           	movw ax, bc
    472a: 08           	xch a, x
    472b: 6c 10        	or a, #16
    472d: ef 20        	br $0x474f <___ssvfiscanf_r+0x20f>
    472f: fd 55 55     	call !0x5555 <_OUTLINED_FUNCTION_12>
    4732: 61 e8        	skz
    4734: ee a5 0c     	br $!0x53dc <___ssvfiscanf_r+0xe9c>
    4737: 89           	mov a, [de]
    4738: 4c 6c        	cmp a, #108
    473a: df 0f        	bnz $0x474b <___ssvfiscanf_r+0x20b>
    473c: 13           	movw ax, bc
    473d: 08           	xch a, x
    473e: 6c 02        	or a, #2
    4740: 08           	xch a, x
    4741: 12           	movw bc, ax
    4742: a8 10        	movw ax, [sp+16]
    4744: a1           	incw ax
    4745: a1           	incw ax
    4746: b8 10        	movw [sp+16], ax
    4748: ee 9b fe     	br $!0x45e6 <___ssvfiscanf_r+0xa6>
    474b: 13           	movw ax, bc
    474c: 08           	xch a, x
    474d: 6c 01        	or a, #1
    474f: 08           	xch a, x
    4750: 12           	movw bc, ax
    4751: 15           	movw ax, de
    4752: b8 10        	movw [sp+16], ax
    4754: ee 8f fe     	br $!0x45e6 <___ssvfiscanf_r+0xa6>
    4757: fd 55 55     	call !0x5555 <_OUTLINED_FUNCTION_12>
    475a: 61 e8        	skz
    475c: ee 7d 0c     	br $!0x53dc <___ssvfiscanf_r+0xe9c>
    475f: 13           	movw ax, bc
    4760: 08           	xch a, x
    4761: 6c 02        	or a, #2
    4763: ef ea        	br $0x474f <___ssvfiscanf_r+0x20f>
    4765: fd 55 55     	call !0x5555 <_OUTLINED_FUNCTION_12>
    4768: 61 e8        	skz
    476a: ee 6f 0c     	br $!0x53dc <___ssvfiscanf_r+0xe9c>
    476d: 89           	mov a, [de]
    476e: 4c 68        	cmp a, #104
    4770: df 06        	bnz $0x4778 <___ssvfiscanf_r+0x238>
    4772: 13           	movw ax, bc
    4773: 08           	xch a, x
    4774: 6c 08        	or a, #8
    4776: ef c8        	br $0x4740 <___ssvfiscanf_r+0x200>
    4778: 13           	movw ax, bc
    4779: 08           	xch a, x
    477a: 6c 04        	or a, #4
    477c: ef d1        	br $0x474f <___ssvfiscanf_r+0x20f>
    477e: 15           	movw ax, de
    477f: b8 10        	movw [sp+16], ax
    4781: fd 55 55     	call !0x5555 <_OUTLINED_FUNCTION_12>
    4784: 61 f8        	sknz
    4786: ee 5d fe     	br $!0x45e6 <___ssvfiscanf_r+0xa6>
    4789: ee 50 0c     	br $!0x53dc <___ssvfiscanf_r+0xe9c>
    478c: fd a1 56     	call !0x56a1 <_OUTLINED_FUNCTION_44>
    478f: 61 e8        	skz
    4791: ee 48 0c     	br $!0x53dc <___ssvfiscanf_r+0xe9c>
    4794: 13           	movw ax, bc
    4795: 08           	xch a, x
    4796: 6c 80        	or a, #128
    4798: ef b5        	br $0x474f <___ssvfiscanf_r+0x20f>
    479a: fd a1 56     	call !0x56a1 <_OUTLINED_FUNCTION_44>
    479d: 61 e8        	skz
    479f: ee 3a 0c     	br $!0x53dc <___ssvfiscanf_r+0xe9c>
    47a2: 32 0a 00     	movw bc, #10
    47a5: a8 06        	movw ax, [sp+6]
    47a7: ce fb 01     	mulhu
    47aa: 12           	movw bc, ax
    47ab: f1           	clrb a
    47ac: 77           	mov h, a
    47ad: 13           	movw ax, bc
    47ae: 33           	xchw ax, bc
    47af: a8 04        	movw ax, [sp+4]
    47b1: 33           	xchw ax, bc
    47b2: 07           	addw ax, hl
    47b3: 04 d0 ff     	addw ax, #65488
    47b6: b8 06        	movw [sp+6], ax
    47b8: ee 96 ff     	br $!0x4751 <___ssvfiscanf_r+0x211>
    47bb: fd 06 56     	call !0x5606 <_OUTLINED_FUNCTION_26>
    47be: b8 26        	movw [sp+38], ax
    47c0: 30 d5 2f     	movw ax, #12245
    47c3: b8 58        	movw [sp+88], ax
    47c5: 13           	movw ax, bc
    47c6: 08           	xch a, x
    47c7: 6c 01        	or a, #1
    47c9: 08           	xch a, x
    47ca: b8 04        	movw [sp+4], ax
    47cc: ee c5 00     	br $!0x4894 <___ssvfiscanf_r+0x354>
    47cf: fd c7 56     	call !0x56c7 <_OUTLINED_FUNCTION_48>
    47d2: b8 26        	movw [sp+38], ax
    47d4: 30 9d 41     	movw ax, #16797
    47d7: ef ea        	br $0x47c3 <___ssvfiscanf_r+0x283>
    47d9: fd 97 55     	call !0x5597 <_OUTLINED_FUNCTION_18>
    47dc: 13           	movw ax, bc
    47dd: 6c 02        	or a, #2
    47df: ef e9        	br $0x47ca <___ssvfiscanf_r+0x28a>
    47e1: 30 02 00     	movw ax, #2
    47e4: b8 0a        	movw [sp+10], ax
    47e6: ef dd        	br $0x47c5 <___ssvfiscanf_r+0x285>
    47e8: ae f8        	movw ax, sp
    47ea: 04 5a 00     	addw ax, #90
    47ed: c5           	push de
    47ee: c2           	pop bc
    47ef: fd 78 5c     	call !0x5c78 <___sccl>
    47f2: b8 10        	movw [sp+16], ax
    47f4: e6           	onew ax
    47f5: b8 0a        	movw [sp+10], ax
    47f7: a8 04        	movw ax, [sp+4]
    47f9: 08           	xch a, x
    47fa: 6c 40        	or a, #64
    47fc: 08           	xch a, x
    47fd: b8 04        	movw [sp+4], ax
    47ff: ee 95 00     	br $!0x4897 <___ssvfiscanf_r+0x357>
    4802: 13           	movw ax, bc
    4803: 08           	xch a, x
    4804: 6c 01        	or a, #1
    4806: 08           	xch a, x
    4807: 12           	movw bc, ax
    4808: f6           	clrw ax
    4809: b8 0a        	movw [sp+10], ax
    480b: 13           	movw ax, bc
    480c: 08           	xch a, x
    480d: 6c 40        	or a, #64
    480f: ef b8        	br $0x47c9 <___ssvfiscanf_r+0x289>
    4811: fd 97 55     	call !0x5597 <_OUTLINED_FUNCTION_18>
    4814: 13           	movw ax, bc
    4815: 08           	xch a, x
    4816: 6c 20        	or a, #32
    4818: 08           	xch a, x
    4819: ef c2        	br $0x47dd <___ssvfiscanf_r+0x29d>
    481b: 35           	xchw ax, de
    481c: b8 10        	movw [sp+16], ax
    481e: 35           	xchw ax, de
    481f: 62           	mov a, c
    4820: 71 cc        	mov1 cy, a.4
    4822: 61 d8        	sknc
    4824: ee 5e fd     	br $!0x4585 <___ssvfiscanf_r+0x45>
    4827: 62           	mov a, c
    4828: 31 35 0d     	bf a.3, $0x4838 <___ssvfiscanf_r+0x2f8>
    482b: a8 0c        	movw ax, [sp+12]
    482d: 12           	movw bc, ax
    482e: c3           	push bc
    482f: c6           	pop hl
    4830: ab           	movw ax, [hl]
    4831: 16           	movw hl, ax
    4832: a8 0e        	movw ax, [sp+14]
    4834: 60           	mov a, x
    4835: 9b           	mov [hl], a
    4836: ef 22        	br $0x485a <___ssvfiscanf_r+0x31a>
    4838: 62           	mov a, c
    4839: 08           	xch a, x
    483a: 62           	mov a, c
    483b: 33           	xchw ax, bc
    483c: a8 0c        	movw ax, [sp+12]
    483e: 33           	xchw ax, bc
    483f: 08           	xch a, x
    4840: 31 25 06     	bf a.2, $0x4849 <___ssvfiscanf_r+0x309>
    4843: c3           	push bc
    4844: c6           	pop hl
    4845: ab           	movw ax, [hl]
    4846: 16           	movw hl, ax
    4847: ef 0e        	br $0x4857 <___ssvfiscanf_r+0x317>
    4849: 60           	mov a, x
    484a: 31 05 17     	bf a.0, $0x4864 <___ssvfiscanf_r+0x324>
    484d: c3           	push bc
    484e: c6           	pop hl
    484f: ab           	movw ax, [hl]
    4850: 16           	movw hl, ax
    4851: a8 0e        	movw ax, [sp+14]
    4853: 31 ff        	sarw ax, 15
    4855: bc 02        	movw [hl+2], ax
    4857: a8 0e        	movw ax, [sp+14]
    4859: bb           	movw [hl], ax
    485a: 13           	movw ax, bc
    485b: fd e0 56     	call !0x56e0 <_OUTLINED_FUNCTION_51>
    485e: 15           	movw ax, de
    485f: b8 10        	movw [sp+16], ax
    4861: ee 21 fd     	br $!0x4585 <___ssvfiscanf_r+0x45>
    4864: 60           	mov a, x
    4865: 31 15 db     	bf a.1, $0x4843 <___ssvfiscanf_r+0x303>
    4868: c3           	push bc
    4869: c6           	pop hl
    486a: ab           	movw ax, [hl]
    486b: 16           	movw hl, ax
    486c: a8 0e        	movw ax, [sp+14]
    486e: 31 ff        	sarw ax, 15
    4870: bc 06        	movw [hl+6], ax
    4872: bc 04        	movw [hl+4], ax
    4874: ef df        	br $0x4855 <___ssvfiscanf_r+0x315>
    4876: 30 03 00     	movw ax, #3
    4879: b8 0a        	movw [sp+10], ax
    487b: f6           	clrw ax
    487c: ee 04 fe     	br $!0x4683 <___ssvfiscanf_r+0x143>
    487f: fd c7 56     	call !0x56c7 <_OUTLINED_FUNCTION_48>
    4882: b8 26        	movw [sp+38], ax
    4884: 30 9d 41     	movw ax, #16797
    4887: ee fe fd     	br $!0x4688 <___ssvfiscanf_r+0x148>
    488a: fd 06 56     	call !0x5606 <_OUTLINED_FUNCTION_26>
    488d: ef f3        	br $0x4882 <___ssvfiscanf_r+0x342>
    488f: 30 02 00     	movw ax, #2
    4892: b8 0a        	movw [sp+10], ax
    4894: 15           	movw ax, de
    4895: b8 10        	movw [sp+16], ax
    4897: a8 08        	movw ax, [sp+8]
    4899: 16           	movw hl, ax
    489a: ac 02        	movw ax, [hl+2]
    489c: 01           	addw ax, ax
    489d: 61 c3 0b     	bh $0x48ab <___ssvfiscanf_r+0x36b>
    48a0: a8 08        	movw ax, [sp+8]
    48a2: 12           	movw bc, ax
    48a3: fd 6c 54     	call !0x546c <_OUTLINED_FUNCTION_0>
    48a6: 61 e8        	skz
    48a8: ee 21 0b     	br $!0x53cc <___ssvfiscanf_r+0xe8c>
    48ab: a8 04        	movw ax, [sp+4]
    48ad: 60           	mov a, x
    48ae: 31 63 28     	bt a.6, $0x48d9 <___ssvfiscanf_r+0x399>
    48b1: fd 97 56     	call !0x5697 <_OUTLINED_FUNCTION_43>
    48b4: 33           	xchw ax, bc
    48b5: a8 08        	movw ax, [sp+8]
    48b7: 33           	xchw ax, bc
    48b8: 16           	movw hl, ax
    48b9: 31 b5 1d     	bf [hl].3, $0x48d9 <___ssvfiscanf_r+0x399>
    48bc: c3           	push bc
    48bd: c6           	pop hl
    48be: ac 02        	movw ax, [hl+2]
    48c0: 12           	movw bc, ax
    48c1: b1           	decw ax
    48c2: bc 02        	movw [hl+2], ax
    48c4: a8 0e        	movw ax, [sp+14]
    48c6: a1           	incw ax
    48c7: b8 0e        	movw [sp+14], ax
    48c9: fd 2e 56     	call !0x562e <_OUTLINED_FUNCTION_31>
    48cc: 61 e3        	skh
    48ce: ee f0 0a     	br $!0x53c1 <___ssvfiscanf_r+0xe81>
    48d1: a8 08        	movw ax, [sp+8]
    48d3: 16           	movw hl, ax
    48d4: a5           	incw de
    48d5: 15           	movw ax, de
    48d6: bb           	movw [hl], ax
    48d7: ef d8        	br $0x48b1 <___ssvfiscanf_r+0x371>
    48d9: a8 0a        	movw ax, [sp+10]
    48db: 44 03 00     	cmpw ax, #3
    48de: 61 f8        	sknz
    48e0: ee 0a 08     	br $!0x50ed <___ssvfiscanf_r+0xbad>
    48e3: 35           	xchw ax, de
    48e4: a8 08        	movw ax, [sp+8]
    48e6: 35           	xchw ax, de
    48e7: 37           	xchw ax, hl
    48e8: a8 06        	movw ax, [sp+6]
    48ea: 37           	xchw ax, hl
    48eb: 44 01 00     	cmpw ax, #1
    48ee: 61 f8        	sknz
    48f0: ee f5 02     	br $!0x4be8 <___ssvfiscanf_r+0x6a8>
    48f3: 33           	xchw ax, bc
    48f4: a8 20        	movw ax, [sp+32]
    48f6: 33           	xchw ax, bc
    48f7: 44 02 00     	cmpw ax, #2
    48fa: 17           	movw ax, hl
    48fb: 61 f8        	sknz
    48fd: ee 9e 05     	br $!0x4e9e <___ssvfiscanf_r+0x95e>
    4900: 44 01 00     	cmpw ax, #1
    4903: 61 e3        	skh
    4905: 36 01 00     	movw hl, #1
    4908: 17           	movw ax, hl
    4909: b8 06        	movw [sp+6], ax
    490b: a8 04        	movw ax, [sp+4]
    490d: 16           	movw hl, ax
    490e: 66           	mov a, l
    490f: 71 8c        	mov1 cy, a.0
    4911: 61 c8        	skc
    4913: ee c3 01     	br $!0x4ad9 <___ssvfiscanf_r+0x599>
    4916: 34 00 00     	movw de, #0
    4919: f6           	clrw ax
    491a: b8 22        	movw [sp+34], ax
    491c: b8 1c        	movw [sp+28], ax
    491e: 17           	movw ax, hl
    491f: 08           	xch a, x
    4920: 5c 10        	and a, #16
    4922: 08           	xch a, x
    4923: f1           	clrb a
    4924: b8 14        	movw [sp+20], ax
    4926: 35           	xchw ax, de
    4927: b8 18        	movw [sp+24], ax
    4929: 35           	xchw ax, de
    492a: 15           	movw ax, de
    492b: b8 0a        	movw [sp+10], ax
    492d: 66           	mov a, l
    492e: 71 cc        	mov1 cy, a.4
    4930: 61 d8        	sknc
    4932: ee 4a 00     	br $!0x497f <___ssvfiscanf_r+0x43f>
    4935: 66           	mov a, l
    4936: 71 fc        	mov1 cy, a.7
    4938: 61 c8        	skc
    493a: ee 30 00     	br $!0x496d <___ssvfiscanf_r+0x42d>
    493d: fd 8d 55     	call !0x558d <_OUTLINED_FUNCTION_17>
    4940: 61 f8        	sknz
    4942: ee 97 0a     	br $!0x53dc <___ssvfiscanf_r+0xe9c>
    4945: 30 40 00     	movw ax, #64
    4948: fd 6b 55     	call !0x556b <_OUTLINED_FUNCTION_14>
    494b: df 07        	bnz $0x4954 <___ssvfiscanf_r+0x414>
    494d: f6           	clrw ax
    494e: b1           	decw ax
    494f: b8 16        	movw [sp+22], ax
    4951: ee 88 0a     	br $!0x53dc <___ssvfiscanf_r+0xe9c>
    4954: b8 22        	movw [sp+34], ax
    4956: fd d5 54     	call !0x54d5 <_OUTLINED_FUNCTION_6>
    4959: dc 0b        	bc $0x4966 <___ssvfiscanf_r+0x426>
    495b: 15           	movw ax, de
    495c: fd 86 55     	call !0x5586 <_OUTLINED_FUNCTION_16>
    495f: dc ec        	bc $0x494d <___ssvfiscanf_r+0x40d>
    4961: fd 79 54     	call !0x5479 <_OUTLINED_FUNCTION_1>
    4964: dd e7        	bz $0x494d <___ssvfiscanf_r+0x40d>
    4966: fd b6 54     	call !0x54b6 <_OUTLINED_FUNCTION_5>
    4969: b8 0a        	movw [sp+10], ax
    496b: ef 12        	br $0x497f <___ssvfiscanf_r+0x43f>
    496d: f6           	clrw ax
    496e: b8 22        	movw [sp+34], ax
    4970: b8 1c        	movw [sp+28], ax
    4972: fd 47 56     	call !0x5647 <_OUTLINED_FUNCTION_34>
    4975: b8 0a        	movw [sp+10], ax
    4977: 17           	movw ax, hl
    4978: a1           	incw ax
    4979: a1           	incw ax
    497a: b8 0c        	movw [sp+12], ax
    497c: f6           	clrw ax
    497d: b8 18        	movw [sp+24], ax
    497f: 34 00 00     	movw de, #0
    4982: 13           	movw ax, bc
    4983: b8 20        	movw [sp+32], ax
    4985: fd 35 56     	call !0x5635 <_OUTLINED_FUNCTION_32>
    4988: 61 f8        	sknz
    498a: ee 16 01     	br $!0x4aa3 <___ssvfiscanf_r+0x563>
    498d: 15           	movw ax, de
    498e: b8 04        	movw [sp+4], ax
    4990: fd bb 25     	call !0x25bb <___locale_mb_cur_max>
    4993: 35           	xchw ax, de
    4994: a8 04        	movw ax, [sp+4]
    4996: 35           	xchw ax, de
    4997: 37           	xchw ax, hl
    4998: a8 08        	movw ax, [sp+8]
    499a: 37           	xchw ax, hl
    499b: 12           	movw bc, ax
    499c: 15           	movw ax, de
    499d: 43           	cmpw ax, bc
    499e: 61 f8        	sknz
    49a0: ee 29 0a     	br $!0x53cc <___ssvfiscanf_r+0xe8c>
    49a3: ae f8        	movw ax, sp
    49a5: 04 28 00     	addw ax, #40
    49a8: 05           	addw ax, de
    49a9: b8 12        	movw [sp+18], ax
    49ab: ab           	movw ax, [hl]
    49ac: c7           	push hl
    49ad: c2           	pop bc
    49ae: 14           	movw de, ax
    49af: 89           	mov a, [de]
    49b0: 37           	xchw ax, hl
    49b1: a8 12        	movw ax, [sp+18]
    49b3: 37           	xchw ax, hl
    49b4: a5           	incw de
    49b5: 9b           	mov [hl], a
    49b6: 15           	movw ax, de
    49b7: c3           	push bc
    49b8: c6           	pop hl
    49b9: fd c6 55     	call !0x55c6 <_OUTLINED_FUNCTION_21>
    49bc: df 05        	bnz $0x49c3 <___ssvfiscanf_r+0x483>
    49be: fd 0f 56     	call !0x560f <_OUTLINED_FUNCTION_27>
    49c1: dd 09        	bz $0x49cc <___ssvfiscanf_r+0x48c>
    49c3: 34 06 00     	movw de, #6
    49c6: f7           	clrw bc
    49c7: ae f8        	movw ax, sp
    49c9: fd 81 56     	call !0x5681 <_OUTLINED_FUNCTION_40>
    49cc: ae f8        	movw ax, sp
    49ce: 04 50 00     	addw ax, #80
    49d1: b8 02        	movw [sp+2], ax
    49d3: a8 04        	movw ax, [sp+4]
    49d5: a1           	incw ax
    49d6: b8 04        	movw [sp+4], ax
    49d8: b8 00        	movw [sp+0], ax
    49da: a8 0a        	movw ax, [sp+10]
    49dc: 12           	movw bc, ax
    49dd: ae f8        	movw ax, sp
    49df: 04 28 00     	addw ax, #40
    49e2: 14           	movw de, ax
    49e3: a8 1e        	movw ax, [sp+30]
    49e5: fd 41 5d     	call !0x5d41 <__mbrtowc_r>
    49e8: 35           	xchw ax, de
    49e9: a8 04        	movw ax, [sp+4]
    49eb: 35           	xchw ax, de
    49ec: fd 6d 56     	call !0x566d <_OUTLINED_FUNCTION_38>
    49ef: 61 f8        	sknz
    49f1: ee 91 00     	br $!0x4a85 <___ssvfiscanf_r+0x545>
    49f4: 44 00 00     	cmpw ax, #0
    49f7: dd 17        	bz $0x4a10 <___ssvfiscanf_r+0x4d0>
    49f9: 44 ff ff     	cmpw ax, #65535
    49fc: 61 f8        	sknz
    49fe: ee cb 09     	br $!0x53cc <___ssvfiscanf_r+0xe8c>
    4a01: fd eb 56     	call !0x56eb <_OUTLINED_FUNCTION_53>
    4a04: fd 15 56     	call !0x5615 <_OUTLINED_FUNCTION_28>
    4a07: df 1c        	bnz $0x4a25 <___ssvfiscanf_r+0x4e5>
    4a09: fd 0f 56     	call !0x560f <_OUTLINED_FUNCTION_27>
    4a0c: df 17        	bnz $0x4a25 <___ssvfiscanf_r+0x4e5>
    4a0e: ef 1a        	br $0x4a2a <___ssvfiscanf_r+0x4ea>
    4a10: fd 1b 56     	call !0x561b <_OUTLINED_FUNCTION_29>
    4a13: df 0d        	bnz $0x4a22 <___ssvfiscanf_r+0x4e2>
    4a15: f6           	clrw ax
    4a16: c5           	push de
    4a17: c2           	pop bc
    4a18: 35           	xchw ax, de
    4a19: a8 0a        	movw ax, [sp+10]
    4a1b: 35           	xchw ax, de
    4a1c: b9           	movw [de], ax
    4a1d: c3           	push bc
    4a1e: c4           	pop de
    4a1f: a8 08        	movw ax, [sp+8]
    4a21: 16           	movw hl, ax
    4a22: fd eb 56     	call !0x56eb <_OUTLINED_FUNCTION_53>
    4a25: a8 06        	movw ax, [sp+6]
    4a27: b1           	decw ax
    4a28: b8 06        	movw [sp+6], ax
    4a2a: 34 00 00     	movw de, #0
    4a2d: fd 1b 56     	call !0x561b <_OUTLINED_FUNCTION_29>
    4a30: df 53        	bnz $0x4a85 <___ssvfiscanf_r+0x545>
    4a32: a8 18        	movw ax, [sp+24]
    4a34: 35           	xchw ax, de
    4a35: a8 1c        	movw ax, [sp+28]
    4a37: fd 92 56     	call !0x5692 <_OUTLINED_FUNCTION_42>
    4a3a: dd 3d        	bz $0x4a79 <___ssvfiscanf_r+0x539>
    4a3c: a8 0a        	movw ax, [sp+10]
    4a3e: 33           	xchw ax, bc
    4a3f: a8 22        	movw ax, [sp+34]
    4a41: 33           	xchw ax, bc
    4a42: 23           	subw ax, bc
    4a43: 31 1f        	sarw ax, 1
    4a45: c5           	push de
    4a46: c2           	pop bc
    4a47: b3           	decw bc
    4a48: 43           	cmpw ax, bc
    4a49: de 03        	bnc $0x4a4e <___ssvfiscanf_r+0x50e>
    4a4b: 45           	cmpw ax, de
    4a4c: dc 2b        	bc $0x4a79 <___ssvfiscanf_r+0x539>
    4a4e: b8 04        	movw [sp+4], ax
    4a50: 15           	movw ax, de
    4a51: 31 2d        	shlw ax, 2
    4a53: 12           	movw bc, ax
    4a54: a8 22        	movw ax, [sp+34]
    4a56: 35           	xchw ax, de
    4a57: b8 1c        	movw [sp+28], ax
    4a59: 35           	xchw ax, de
    4a5a: fd e6 54     	call !0x54e6 <_OUTLINED_FUNCTION_7>
    4a5d: 61 f8        	sknz
    4a5f: ee eb fe     	br $!0x494d <___ssvfiscanf_r+0x40d>
    4a62: a8 18        	movw ax, [sp+24]
    4a64: 16           	movw hl, ax
    4a65: 13           	movw ax, bc
    4a66: bb           	movw [hl], ax
    4a67: a8 04        	movw ax, [sp+4]
    4a69: 33           	xchw ax, bc
    4a6a: b8 22        	movw [sp+34], ax
    4a6c: 33           	xchw ax, bc
    4a6d: 01           	addw ax, ax
    4a6e: 03           	addw ax, bc
    4a6f: b8 0a        	movw [sp+10], ax
    4a71: a8 1c        	movw ax, [sp+28]
    4a73: 37           	xchw ax, hl
    4a74: a8 08        	movw ax, [sp+8]
    4a76: 37           	xchw ax, hl
    4a77: 01           	addw ax, ax
    4a78: 14           	movw de, ax
    4a79: 15           	movw ax, de
    4a7a: b8 1c        	movw [sp+28], ax
    4a7c: 34 00 00     	movw de, #0
    4a7f: a8 0a        	movw ax, [sp+10]
    4a81: a1           	incw ax
    4a82: a1           	incw ax
    4a83: b8 0a        	movw [sp+10], ax
    4a85: ac 02        	movw ax, [hl+2]
    4a87: 01           	addw ax, ax
    4a88: 61 f3        	sknh
    4a8a: ee f8 fe     	br $!0x4985 <___ssvfiscanf_r+0x445>
    4a8d: c7           	push hl
    4a8e: c2           	pop bc
    4a8f: fd f8 55     	call !0x55f8 <_OUTLINED_FUNCTION_25>
    4a92: 44 00 00     	cmpw ax, #0
    4a95: 61 f8        	sknz
    4a97: ee eb fe     	br $!0x4985 <___ssvfiscanf_r+0x445>
    4a9a: 15           	movw ax, de
    4a9b: 44 00 00     	cmpw ax, #0
    4a9e: 61 e8        	skz
    4aa0: ee 29 09     	br $!0x53cc <___ssvfiscanf_r+0xe8c>
    4aa3: a8 18        	movw ax, [sp+24]
    4aa5: 44 00 00     	cmpw ax, #0
    4aa8: dd 1f        	bz $0x4ac9 <___ssvfiscanf_r+0x589>
    4aaa: a8 0a        	movw ax, [sp+10]
    4aac: 33           	xchw ax, bc
    4aad: a8 22        	movw ax, [sp+34]
    4aaf: 33           	xchw ax, bc
    4ab0: 35           	xchw ax, de
    4ab1: a8 1c        	movw ax, [sp+28]
    4ab3: 35           	xchw ax, de
    4ab4: 23           	subw ax, bc
    4ab5: 12           	movw bc, ax
    4ab6: 31 1f        	sarw ax, 1
    4ab8: 45           	cmpw ax, de
    4ab9: de 0e        	bnc $0x4ac9 <___ssvfiscanf_r+0x589>
    4abb: a8 18        	movw ax, [sp+24]
    4abd: 16           	movw hl, ax
    4abe: ab           	movw ax, [hl]
    4abf: fd 0f 57     	call !0x570f <_OUTLINED_FUNCTION_58>
    4ac2: dd 05        	bz $0x4ac9 <___ssvfiscanf_r+0x589>
    4ac4: 37           	xchw ax, hl
    4ac5: a8 18        	movw ax, [sp+24]
    4ac7: 37           	xchw ax, hl
    4ac8: bb           	movw [hl], ax
    4ac9: a8 14        	movw ax, [sp+20]
    4acb: 33           	xchw ax, bc
    4acc: a8 16        	movw ax, [sp+22]
    4ace: 33           	xchw ax, bc
    4acf: 31 4e        	shrw ax, 4
    4ad1: 08           	xch a, x
    4ad2: 7c 01        	xor a, #1
    4ad4: 08           	xch a, x
    4ad5: 03           	addw ax, bc
    4ad6: ee aa fa     	br $!0x4583 <___ssvfiscanf_r+0x43>
    4ad9: f6           	clrw ax
    4ada: b8 0a        	movw [sp+10], ax
    4adc: 66           	mov a, l
    4add: 31 45 53     	bf a.4, $0x4b33 <___ssvfiscanf_r+0x5f3>
    4ae0: c5           	push de
    4ae1: c6           	pop hl
    4ae2: ac 02        	movw ax, [hl+2]
    4ae4: 35           	xchw ax, de
    4ae5: a8 06        	movw ax, [sp+6]
    4ae7: 35           	xchw ax, de
    4ae8: 12           	movw bc, ax
    4ae9: 15           	movw ax, de
    4aea: 43           	cmpw ax, bc
    4aeb: 71 ff        	xor1 cy, a.7
    4aed: 63           	mov a, b
    4aee: 71 ff        	xor1 cy, a.7
    4af0: 61 d3 28     	bnh $0x4b1b <___ssvfiscanf_r+0x5db>
    4af3: 13           	movw ax, bc
    4af4: 61 09 00     	addw ax, [hl]
    4af7: bb           	movw [hl], ax
    4af8: 15           	movw ax, de
    4af9: 23           	subw ax, bc
    4afa: b8 06        	movw [sp+6], ax
    4afc: 13           	movw ax, bc
    4afd: 33           	xchw ax, bc
    4afe: a8 0a        	movw ax, [sp+10]
    4b00: 33           	xchw ax, bc
    4b01: 03           	addw ax, bc
    4b02: b8 0a        	movw [sp+10], ax
    4b04: c7           	push hl
    4b05: c2           	pop bc
    4b06: a8 1e        	movw ax, [sp+30]
    4b08: fd 5f 44     	call !0x445f <___ssrefill_r>
    4b0b: 35           	xchw ax, de
    4b0c: a8 08        	movw ax, [sp+8]
    4b0e: fd 92 56     	call !0x5692 <_OUTLINED_FUNCTION_42>
    4b11: dd cd        	bz $0x4ae0 <___ssvfiscanf_r+0x5a0>
    4b13: fd e5 56     	call !0x56e5 <_OUTLINED_FUNCTION_52>
    4b16: df 11        	bnz $0x4b29 <___ssvfiscanf_r+0x5e9>
    4b18: ee b1 08     	br $!0x53cc <___ssvfiscanf_r+0xe8c>
    4b1b: 13           	movw ax, bc
    4b1c: 25           	subw ax, de
    4b1d: bc 02        	movw [hl+2], ax
    4b1f: 15           	movw ax, de
    4b20: 61 09 00     	addw ax, [hl]
    4b23: bb           	movw [hl], ax
    4b24: a8 0a        	movw ax, [sp+10]
    4b26: 12           	movw bc, ax
    4b27: 15           	movw ax, de
    4b28: 03           	addw ax, bc
    4b29: 33           	xchw ax, bc
    4b2a: a8 0e        	movw ax, [sp+14]
    4b2c: 33           	xchw ax, bc
    4b2d: 03           	addw ax, bc
    4b2e: b8 0e        	movw [sp+14], ax
    4b30: ee 52 fa     	br $!0x4585 <___ssvfiscanf_r+0x45>
    4b33: 66           	mov a, l
    4b34: 31 75 55     	bf a.7, $0x4b8c <___ssvfiscanf_r+0x64c>
    4b37: a8 0c        	movw ax, [sp+12]
    4b39: 16           	movw hl, ax
    4b3a: ab           	movw ax, [hl]
    4b3b: 44 00 00     	cmpw ax, #0
    4b3e: b8 04        	movw [sp+4], ax
    4b40: 61 f8        	sknz
    4b42: ee 97 08     	br $!0x53dc <___ssvfiscanf_r+0xe9c>
    4b45: a8 06        	movw ax, [sp+6]
    4b47: fd ab 43     	call !0x43ab <_malloc>
    4b4a: 16           	movw hl, ax
    4b4b: 44 00 00     	cmpw ax, #0
    4b4e: 61 f8        	sknz
    4b50: ee 90 08     	br $!0x53e3 <___ssvfiscanf_r+0xea3>
    4b53: a8 04        	movw ax, [sp+4]
    4b55: 14           	movw de, ax
    4b56: 17           	movw ax, hl
    4b57: fd 5f 55     	call !0x555f <_OUTLINED_FUNCTION_13>
    4b5a: 17           	movw ax, hl
    4b5b: b8 0a        	movw [sp+10], ax
    4b5d: dc 12        	bc $0x4b71 <___ssvfiscanf_r+0x631>
    4b5f: a8 1a        	movw ax, [sp+26]
    4b61: fd 86 55     	call !0x5586 <_OUTLINED_FUNCTION_16>
    4b64: 61 d8        	sknc
    4b66: ee 7a 08     	br $!0x53e3 <___ssvfiscanf_r+0xea3>
    4b69: fd 8f 54     	call !0x548f <_OUTLINED_FUNCTION_2>
    4b6c: 61 f8        	sknz
    4b6e: ee 72 08     	br $!0x53e3 <___ssvfiscanf_r+0xea3>
    4b71: a8 24        	movw ax, [sp+36]
    4b73: 14           	movw de, ax
    4b74: 15           	movw ax, de
    4b75: a5           	incw de
    4b76: 01           	addw ax, ax
    4b77: 03           	addw ax, bc
    4b78: 16           	movw hl, ax
    4b79: a8 04        	movw ax, [sp+4]
    4b7b: bb           	movw [hl], ax
    4b7c: 13           	movw ax, bc
    4b7d: 33           	xchw ax, bc
    4b7e: a8 0a        	movw ax, [sp+10]
    4b80: 33           	xchw ax, bc
    4b81: 35           	xchw ax, de
    4b82: b8 24        	movw [sp+36], ax
    4b84: 35           	xchw ax, de
    4b85: b8 20        	movw [sp+32], ax
    4b87: a8 08        	movw ax, [sp+8]
    4b89: 14           	movw de, ax
    4b8a: ef 07        	br $0x4b93 <___ssvfiscanf_r+0x653>
    4b8c: f6           	clrw ax
    4b8d: b8 04        	movw [sp+4], ax
    4b8f: fd 47 56     	call !0x5647 <_OUTLINED_FUNCTION_34>
    4b92: 12           	movw bc, ax
    4b93: 15           	movw ax, de
    4b94: b8 02        	movw [sp+2], ax
    4b96: 34 01 00     	movw de, #1
    4b99: a8 06        	movw ax, [sp+6]
    4b9b: b8 00        	movw [sp+0], ax
    4b9d: a8 1e        	movw ax, [sp+30]
    4b9f: fd a2 44     	call !0x44a2 <__sfread_r>
    4ba2: 16           	movw hl, ax
    4ba3: 44 00 00     	cmpw ax, #0
    4ba6: 61 f8        	sknz
    4ba8: ee 21 08     	br $!0x53cc <___ssvfiscanf_r+0xe8c>
    4bab: a8 04        	movw ax, [sp+4]
    4bad: 44 00 00     	cmpw ax, #0
    4bb0: dd 22        	bz $0x4bd4 <___ssvfiscanf_r+0x694>
    4bb2: a8 06        	movw ax, [sp+6]
    4bb4: 12           	movw bc, ax
    4bb5: 17           	movw ax, hl
    4bb6: 43           	cmpw ax, bc
    4bb7: de 1b        	bnc $0x4bd4 <___ssvfiscanf_r+0x694>
    4bb9: a8 04        	movw ax, [sp+4]
    4bbb: 14           	movw de, ax
    4bbc: a9           	movw ax, [de]
    4bbd: c7           	push hl
    4bbe: c2           	pop bc
    4bbf: 37           	xchw ax, hl
    4bc0: b8 06        	movw [sp+6], ax
    4bc2: 37           	xchw ax, hl
    4bc3: fd 9c 5d     	call !0x5d9c <_realloc>
    4bc6: 37           	xchw ax, hl
    4bc7: a8 06        	movw ax, [sp+6]
    4bc9: 37           	xchw ax, hl
    4bca: 44 00 00     	cmpw ax, #0
    4bcd: dd 05        	bz $0x4bd4 <___ssvfiscanf_r+0x694>
    4bcf: 35           	xchw ax, de
    4bd0: a8 04        	movw ax, [sp+4]
    4bd2: 35           	xchw ax, de
    4bd3: b9           	movw [de], ax
    4bd4: a8 0e        	movw ax, [sp+14]
    4bd6: 12           	movw bc, ax
    4bd7: 17           	movw ax, hl
    4bd8: 03           	addw ax, bc
    4bd9: b8 0e        	movw [sp+14], ax
    4bdb: a8 16        	movw ax, [sp+22]
    4bdd: a1           	incw ax
    4bde: b8 16        	movw [sp+22], ax
    4be0: a8 0c        	movw ax, [sp+12]
    4be2: fd e0 56     	call !0x56e0 <_OUTLINED_FUNCTION_51>
    4be5: ee 9d f9     	br $!0x4585 <___ssvfiscanf_r+0x45>
    4be8: 17           	movw ax, hl
    4be9: fd f3 56     	call !0x56f3 <_OUTLINED_FUNCTION_54>
    4bec: a8 20        	movw ax, [sp+32]
    4bee: 12           	movw bc, ax
    4bef: dd 03        	bz $0x4bf4 <___ssvfiscanf_r+0x6b4>
    4bf1: 17           	movw ax, hl
    4bf2: b8 0a        	movw [sp+10], ax
    4bf4: a8 04        	movw ax, [sp+4]
    4bf6: 14           	movw de, ax
    4bf7: 64           	mov a, e
    4bf8: 71 8c        	mov1 cy, a.0
    4bfa: 61 c8        	skc
    4bfc: ee 82 01     	br $!0x4d81 <___ssvfiscanf_r+0x841>
    4bff: ae f8        	movw ax, sp
    4c01: 04 5a 01     	addw ax, #346
    4c04: b8 12        	movw [sp+18], ax
    4c06: f6           	clrw ax
    4c07: b8 1c        	movw [sp+28], ax
    4c09: b8 18        	movw [sp+24], ax
    4c0b: 64           	mov a, e
    4c0c: 34 00 00     	movw de, #0
    4c0f: 71 cc        	mov1 cy, a.4
    4c11: 61 d8        	sknc
    4c13: ee 4d 00     	br $!0x4c63 <___ssvfiscanf_r+0x723>
    4c16: a8 04        	movw ax, [sp+4]
    4c18: 60           	mov a, x
    4c19: 71 fc        	mov1 cy, a.7
    4c1b: 61 c8        	skc
    4c1d: ee 35 00     	br $!0x4c55 <___ssvfiscanf_r+0x715>
    4c20: fd 8d 55     	call !0x558d <_OUTLINED_FUNCTION_17>
    4c23: 61 f8        	sknz
    4c25: ee b4 07     	br $!0x53dc <___ssvfiscanf_r+0xe9c>
    4c28: 30 40 00     	movw ax, #64
    4c2b: fd 6b 55     	call !0x556b <_OUTLINED_FUNCTION_14>
    4c2e: 61 f8        	sknz
    4c30: ee 1a fd     	br $!0x494d <___ssvfiscanf_r+0x40d>
    4c33: b8 22        	movw [sp+34], ax
    4c35: fd d5 54     	call !0x54d5 <_OUTLINED_FUNCTION_6>
    4c38: dc 11        	bc $0x4c4b <___ssvfiscanf_r+0x70b>
    4c3a: 15           	movw ax, de
    4c3b: fd 86 55     	call !0x5586 <_OUTLINED_FUNCTION_16>
    4c3e: 61 d8        	sknc
    4c40: ee 0a fd     	br $!0x494d <___ssvfiscanf_r+0x40d>
    4c43: fd 79 54     	call !0x5479 <_OUTLINED_FUNCTION_1>
    4c46: 61 f8        	sknz
    4c48: ee 02 fd     	br $!0x494d <___ssvfiscanf_r+0x40d>
    4c4b: fd b6 54     	call !0x54b6 <_OUTLINED_FUNCTION_5>
    4c4e: 14           	movw de, ax
    4c4f: 35           	xchw ax, de
    4c50: b8 12        	movw [sp+18], ax
    4c52: 35           	xchw ax, de
    4c53: ef 0e        	br $0x4c63 <___ssvfiscanf_r+0x723>
    4c55: f6           	clrw ax
    4c56: b8 1c        	movw [sp+28], ax
    4c58: b8 18        	movw [sp+24], ax
    4c5a: fd 47 56     	call !0x5647 <_OUTLINED_FUNCTION_34>
    4c5d: b8 12        	movw [sp+18], ax
    4c5f: 17           	movw ax, hl
    4c60: fd e0 56     	call !0x56e0 <_OUTLINED_FUNCTION_51>
    4c63: 15           	movw ax, de
    4c64: b8 22        	movw [sp+34], ax
    4c66: 13           	movw ax, bc
    4c67: b8 20        	movw [sp+32], ax
    4c69: f6           	clrw ax
    4c6a: b8 06        	movw [sp+6], ax
    4c6c: fd e5 56     	call !0x56e5 <_OUTLINED_FUNCTION_52>
    4c6f: 61 f8        	sknz
    4c71: ee d0 00     	br $!0x4d44 <___ssvfiscanf_r+0x804>
    4c74: fd d0 56     	call !0x56d0 <_OUTLINED_FUNCTION_49>
    4c77: 61 f8        	sknz
    4c79: ee 50 07     	br $!0x53cc <___ssvfiscanf_r+0xe8c>
    4c7c: a8 06        	movw ax, [sp+6]
    4c7e: 12           	movw bc, ax
    4c7f: ae f8        	movw ax, sp
    4c81: fd 88 56     	call !0x5688 <_OUTLINED_FUNCTION_41>
    4c84: c3           	push bc
    4c85: c6           	pop hl
    4c86: fd 4c 56     	call !0x564c <_OUTLINED_FUNCTION_35>
    4c89: c3           	push bc
    4c8a: c6           	pop hl
    4c8b: fd c6 55     	call !0x55c6 <_OUTLINED_FUNCTION_21>
    4c8e: df 05        	bnz $0x4c95 <___ssvfiscanf_r+0x755>
    4c90: fd 0f 56     	call !0x560f <_OUTLINED_FUNCTION_27>
    4c93: dd 09        	bz $0x4c9e <___ssvfiscanf_r+0x75e>
    4c95: 34 06 00     	movw de, #6
    4c98: f7           	clrw bc
    4c99: ae f8        	movw ax, sp
    4c9b: fd 81 56     	call !0x5681 <_OUTLINED_FUNCTION_40>
    4c9e: ae f8        	movw ax, sp
    4ca0: fd a7 55     	call !0x55a7 <_OUTLINED_FUNCTION_19>
    4ca3: ae f8        	movw ax, sp
    4ca5: 04 28 00     	addw ax, #40
    4ca8: 14           	movw de, ax
    4ca9: a8 1e        	movw ax, [sp+30]
    4cab: fd 41 5d     	call !0x5d41 <__mbrtowc_r>
    4cae: fd 6d 56     	call !0x566d <_OUTLINED_FUNCTION_38>
    4cb1: 61 f8        	sknz
    4cb3: ee 76 00     	br $!0x4d2c <___ssvfiscanf_r+0x7ec>
    4cb6: 44 00 00     	cmpw ax, #0
    4cb9: dd 08        	bz $0x4cc3 <___ssvfiscanf_r+0x783>
    4cbb: 44 ff ff     	cmpw ax, #65535
    4cbe: df 06        	bnz $0x4cc6 <___ssvfiscanf_r+0x786>
    4cc0: ee 09 07     	br $!0x53cc <___ssvfiscanf_r+0xe8c>
    4cc3: fd 09 57     	call !0x5709 <_OUTLINED_FUNCTION_57>
    4cc6: a8 12        	movw ax, [sp+18]
    4cc8: 14           	movw de, ax
    4cc9: a9           	movw ax, [de]
    4cca: 12           	movw bc, ax
    4ccb: a8 1e        	movw ax, [sp+30]
    4ccd: fd 22 54     	call !0x5422 <___wctob>
    4cd0: 12           	movw bc, ax
    4cd1: ae f8        	movw ax, sp
    4cd3: 04 5a 00     	addw ax, #90
    4cd6: 03           	addw ax, bc
    4cd7: 16           	movw hl, ax
    4cd8: 8b           	mov a, [hl]
    4cd9: d1           	cmp0 a
    4cda: df 12        	bnz $0x4cee <___ssvfiscanf_r+0x7ae>
    4cdc: fd 35 56     	call !0x5635 <_OUTLINED_FUNCTION_32>
    4cdf: 61 f8        	sknz
    4ce1: ee 60 00     	br $!0x4d44 <___ssvfiscanf_r+0x804>
    4ce4: a8 06        	movw ax, [sp+6]
    4ce6: 12           	movw bc, ax
    4ce7: ae f8        	movw ax, sp
    4ce9: fd 3d 55     	call !0x553d <_OUTLINED_FUNCTION_11>
    4cec: ef ee        	br $0x4cdc <___ssvfiscanf_r+0x79c>
    4cee: fd 15 56     	call !0x5615 <_OUTLINED_FUNCTION_28>
    4cf1: df 05        	bnz $0x4cf8 <___ssvfiscanf_r+0x7b8>
    4cf3: fd 0f 56     	call !0x560f <_OUTLINED_FUNCTION_27>
    4cf6: dd 05        	bz $0x4cfd <___ssvfiscanf_r+0x7bd>
    4cf8: a8 0a        	movw ax, [sp+10]
    4cfa: b1           	decw ax
    4cfb: b8 0a        	movw [sp+10], ax
    4cfd: fd 72 55     	call !0x5572 <_OUTLINED_FUNCTION_15>
    4d00: 31 43 29     	bt a.4, $0x4d2c <___ssvfiscanf_r+0x7ec>
    4d03: fd e0 55     	call !0x55e0 <_OUTLINED_FUNCTION_23>
    4d06: df 05        	bnz $0x4d0d <___ssvfiscanf_r+0x7cd>
    4d08: f6           	clrw ax
    4d09: b8 06        	movw [sp+6], ax
    4d0b: ef 1f        	br $0x4d2c <___ssvfiscanf_r+0x7ec>
    4d0d: fd d0 55     	call !0x55d0 <_OUTLINED_FUNCTION_22>
    4d10: de 05        	bnc $0x4d17 <___ssvfiscanf_r+0x7d7>
    4d12: fd b5 56     	call !0x56b5 <_OUTLINED_FUNCTION_46>
    4d15: dc 15        	bc $0x4d2c <___ssvfiscanf_r+0x7ec>
    4d17: 15           	movw ax, de
    4d18: b8 06        	movw [sp+6], ax
    4d1a: a8 1c        	movw ax, [sp+28]
    4d1c: 31 2d        	shlw ax, 2
    4d1e: 12           	movw bc, ax
    4d1f: a8 22        	movw ax, [sp+34]
    4d21: fd e6 54     	call !0x54e6 <_OUTLINED_FUNCTION_7>
    4d24: 61 f8        	sknz
    4d26: ee 24 fc     	br $!0x494d <___ssvfiscanf_r+0x40d>
    4d29: fd ee 54     	call !0x54ee <_OUTLINED_FUNCTION_8>
    4d2c: ac 02        	movw ax, [hl+2]
    4d2e: 01           	addw ax, ax
    4d2f: 61 f3        	sknh
    4d31: ee 38 ff     	br $!0x4c6c <___ssvfiscanf_r+0x72c>
    4d34: fd aa 54     	call !0x54aa <_OUTLINED_FUNCTION_4>
    4d37: 61 f8        	sknz
    4d39: ee 30 ff     	br $!0x4c6c <___ssvfiscanf_r+0x72c>
    4d3c: fd 35 56     	call !0x5635 <_OUTLINED_FUNCTION_32>
    4d3f: 61 e8        	skz
    4d41: ee 88 06     	br $!0x53cc <___ssvfiscanf_r+0xe8c>
    4d44: a8 04        	movw ax, [sp+4]
    4d46: 60           	mov a, x
    4d47: 71 cc        	mov1 cy, a.4
    4d49: 61 d8        	sknc
    4d4b: ee 37 f8     	br $!0x4585 <___ssvfiscanf_r+0x45>
    4d4e: fd 09 57     	call !0x5709 <_OUTLINED_FUNCTION_57>
    4d51: a8 22        	movw ax, [sp+34]
    4d53: 12           	movw bc, ax
    4d54: 15           	movw ax, de
    4d55: 23           	subw ax, bc
    4d56: 31 1f        	sarw ax, 1
    4d58: 12           	movw bc, ax
    4d59: a8 18        	movw ax, [sp+24]
    4d5b: 44 00 00     	cmpw ax, #0
    4d5e: dd 1b        	bz $0x4d7b <___ssvfiscanf_r+0x83b>
    4d60: a8 1c        	movw ax, [sp+28]
    4d62: 14           	movw de, ax
    4d63: a3           	incw bc
    4d64: 13           	movw ax, bc
    4d65: 45           	cmpw ax, de
    4d66: de 13        	bnc $0x4d7b <___ssvfiscanf_r+0x83b>
    4d68: a8 18        	movw ax, [sp+24]
    4d6a: 16           	movw hl, ax
    4d6b: ab           	movw ax, [hl]
    4d6c: 14           	movw de, ax
    4d6d: 13           	movw ax, bc
    4d6e: 01           	addw ax, ax
    4d6f: 12           	movw bc, ax
    4d70: 15           	movw ax, de
    4d71: fd 0f 57     	call !0x570f <_OUTLINED_FUNCTION_58>
    4d74: dd 05        	bz $0x4d7b <___ssvfiscanf_r+0x83b>
    4d76: 37           	xchw ax, hl
    4d77: a8 18        	movw ax, [sp+24]
    4d79: 37           	xchw ax, hl
    4d7a: bb           	movw [hl], ax
    4d7b: a8 16        	movw ax, [sp+22]
    4d7d: a1           	incw ax
    4d7e: ee 02 f8     	br $!0x4583 <___ssvfiscanf_r+0x43>
    4d81: f6           	clrw ax
    4d82: b8 06        	movw [sp+6], ax
    4d84: 64           	mov a, e
    4d85: 31 45 2d     	bf a.4, $0x4db5 <___ssvfiscanf_r+0x875>
    4d88: a8 08        	movw ax, [sp+8]
    4d8a: 16           	movw hl, ax
    4d8b: ab           	movw ax, [hl]
    4d8c: 14           	movw de, ax
    4d8d: 89           	mov a, [de]
    4d8e: 73           	mov b, a
    4d8f: ae f8        	movw ax, sp
    4d91: fd d8 56     	call !0x56d8 <_OUTLINED_FUNCTION_50>
    4d94: dd 12        	bz $0x4da8 <___ssvfiscanf_r+0x868>
    4d96: fd 23 55     	call !0x5523 <_OUTLINED_FUNCTION_10>
    4d99: dd 15        	bz $0x4db0 <___ssvfiscanf_r+0x870>
    4d9b: fd 2e 56     	call !0x562e <_OUTLINED_FUNCTION_31>
    4d9e: 61 c3 e7     	bh $0x4d88 <___ssvfiscanf_r+0x848>
    4da1: fd aa 54     	call !0x54aa <_OUTLINED_FUNCTION_4>
    4da4: dd e2        	bz $0x4d88 <___ssvfiscanf_r+0x848>
    4da6: ef 08        	br $0x4db0 <___ssvfiscanf_r+0x870>
    4da8: fd 35 56     	call !0x5635 <_OUTLINED_FUNCTION_32>
    4dab: 61 f8        	sknz
    4dad: ee 2c 06     	br $!0x53dc <___ssvfiscanf_r+0xe9c>
    4db0: a8 06        	movw ax, [sp+6]
    4db2: ee 74 fd     	br $!0x4b29 <___ssvfiscanf_r+0x5e9>
    4db5: 64           	mov a, e
    4db6: 31 75 35     	bf a.7, $0x4dee <___ssvfiscanf_r+0x8ae>
    4db9: fd 77 56     	call !0x5677 <_OUTLINED_FUNCTION_39>
    4dbc: 61 f8        	sknz
    4dbe: ee 1b 06     	br $!0x53dc <___ssvfiscanf_r+0xe9c>
    4dc1: 30 20 00     	movw ax, #32
    4dc4: fd 6b 55     	call !0x556b <_OUTLINED_FUNCTION_14>
    4dc7: 61 f8        	sknz
    4dc9: ee 17 06     	br $!0x53e3 <___ssvfiscanf_r+0xea3>
    4dcc: b8 04        	movw [sp+4], ax
    4dce: 35           	xchw ax, de
    4dcf: a8 14        	movw ax, [sp+20]
    4dd1: 35           	xchw ax, de
    4dd2: fd 5f 55     	call !0x555f <_OUTLINED_FUNCTION_13>
    4dd5: dc 12        	bc $0x4de9 <___ssvfiscanf_r+0x8a9>
    4dd7: a8 1a        	movw ax, [sp+26]
    4dd9: fd 86 55     	call !0x5586 <_OUTLINED_FUNCTION_16>
    4ddc: 61 d8        	sknc
    4dde: ee 02 06     	br $!0x53e3 <___ssvfiscanf_r+0xea3>
    4de1: fd 8f 54     	call !0x548f <_OUTLINED_FUNCTION_2>
    4de4: 61 f8        	sknz
    4de6: ee fa 05     	br $!0x53e3 <___ssvfiscanf_r+0xea3>
    4de9: fd 09 55     	call !0x5509 <_OUTLINED_FUNCTION_9>
    4dec: ef 08        	br $0x4df6 <___ssvfiscanf_r+0x8b6>
    4dee: f6           	clrw ax
    4def: b8 12        	movw [sp+18], ax
    4df1: b8 14        	movw [sp+20], ax
    4df3: fd 47 56     	call !0x5647 <_OUTLINED_FUNCTION_34>
    4df6: b8 04        	movw [sp+4], ax
    4df8: fd 03 57     	call !0x5703 <_OUTLINED_FUNCTION_56>
    4dfb: ab           	movw ax, [hl]
    4dfc: 14           	movw de, ax
    4dfd: 89           	mov a, [de]
    4dfe: 73           	mov b, a
    4dff: ae f8        	movw ax, sp
    4e01: fd d8 56     	call !0x56d8 <_OUTLINED_FUNCTION_50>
    4e04: 61 f8        	sknz
    4e06: ee 51 00     	br $!0x4e5a <___ssvfiscanf_r+0x91a>
    4e09: a8 08        	movw ax, [sp+8]
    4e0b: 16           	movw hl, ax
    4e0c: 15           	movw ax, de
    4e0d: a1           	incw ax
    4e0e: fd ab 56     	call !0x56ab <_OUTLINED_FUNCTION_45>
    4e11: c7           	push hl
    4e12: c4           	pop de
    4e13: 99           	mov [de], a
    4e14: a8 04        	movw ax, [sp+4]
    4e16: 14           	movw de, ax
    4e17: a7           	incw hl
    4e18: 17           	movw ax, hl
    4e19: 25           	subw ax, de
    4e1a: 12           	movw bc, ax
    4e1b: fd 1b 56     	call !0x561b <_OUTLINED_FUNCTION_29>
    4e1e: dd 10        	bz $0x4e30 <___ssvfiscanf_r+0x8f0>
    4e20: fd 62 56     	call !0x5662 <_OUTLINED_FUNCTION_37>
    4e23: dc 0b        	bc $0x4e30 <___ssvfiscanf_r+0x8f0>
    4e25: fd b7 55     	call !0x55b7 <_OUTLINED_FUNCTION_20>
    4e28: 61 f8        	sknz
    4e2a: ee b6 05     	br $!0x53e3 <___ssvfiscanf_r+0xea3>
    4e2d: fd 3b 56     	call !0x563b <_OUTLINED_FUNCTION_33>
    4e30: 17           	movw ax, hl
    4e31: b8 06        	movw [sp+6], ax
    4e33: 15           	movw ax, de
    4e34: b8 04        	movw [sp+4], ax
    4e36: a8 0a        	movw ax, [sp+10]
    4e38: b1           	decw ax
    4e39: b8 0a        	movw [sp+10], ax
    4e3b: fd a2 54     	call !0x54a2 <_OUTLINED_FUNCTION_3>
    4e3e: dd 1a        	bz $0x4e5a <___ssvfiscanf_r+0x91a>
    4e40: ac 02        	movw ax, [hl+2]
    4e42: 01           	addw ax, ax
    4e43: 61 f3        	sknh
    4e45: ee b3 ff     	br $!0x4dfb <___ssvfiscanf_r+0x8bb>
    4e48: c7           	push hl
    4e49: c2           	pop bc
    4e4a: fd 6c 54     	call !0x546c <_OUTLINED_FUNCTION_0>
    4e4d: 61 f8        	sknz
    4e4f: ee a9 ff     	br $!0x4dfb <___ssvfiscanf_r+0x8bb>
    4e52: fd fb 56     	call !0x56fb <_OUTLINED_FUNCTION_55>
    4e55: 61 f8        	sknz
    4e57: ee 72 05     	br $!0x53cc <___ssvfiscanf_r+0xe8c>
    4e5a: fd fb 56     	call !0x56fb <_OUTLINED_FUNCTION_55>
    4e5d: 61 f8        	sknz
    4e5f: ee 7a 05     	br $!0x53dc <___ssvfiscanf_r+0xe9c>
    4e62: 14           	movw de, ax
    4e63: ca 00 00     	mov [de], #0
    4e66: 23           	subw ax, bc
    4e67: 16           	movw hl, ax
    4e68: fd 1b 56     	call !0x561b <_OUTLINED_FUNCTION_29>
    4e6b: 61 f8        	sknz
    4e6d: ee 64 fd     	br $!0x4bd4 <___ssvfiscanf_r+0x694>
    4e70: c7           	push hl
    4e71: c2           	pop bc
    4e72: a8 12        	movw ax, [sp+18]
    4e74: 14           	movw de, ax
    4e75: a3           	incw bc
    4e76: 13           	movw ax, bc
    4e77: 45           	cmpw ax, de
    4e78: 61 c8        	skc
    4e7a: ee 57 fd     	br $!0x4bd4 <___ssvfiscanf_r+0x694>
    4e7d: 17           	movw ax, hl
    4e7e: b8 04        	movw [sp+4], ax
    4e80: a8 14        	movw ax, [sp+20]
    4e82: 16           	movw hl, ax
    4e83: ab           	movw ax, [hl]
    4e84: fd 9c 5d     	call !0x5d9c <_realloc>
    4e87: 37           	xchw ax, hl
    4e88: a8 04        	movw ax, [sp+4]
    4e8a: 37           	xchw ax, hl
    4e8b: 44 00 00     	cmpw ax, #0
    4e8e: 61 f8        	sknz
    4e90: ee 41 fd     	br $!0x4bd4 <___ssvfiscanf_r+0x694>
    4e93: 37           	xchw ax, hl
    4e94: a8 14        	movw ax, [sp+20]
    4e96: 37           	xchw ax, hl
    4e97: bb           	movw [hl], ax
    4e98: a8 04        	movw ax, [sp+4]
    4e9a: 16           	movw hl, ax
    4e9b: ee 36 fd     	br $!0x4bd4 <___ssvfiscanf_r+0x694>
    4e9e: fd f3 56     	call !0x56f3 <_OUTLINED_FUNCTION_54>
    4ea1: dd 03        	bz $0x4ea6 <___ssvfiscanf_r+0x966>
    4ea3: 17           	movw ax, hl
    4ea4: b8 0a        	movw [sp+10], ax
    4ea6: a8 04        	movw ax, [sp+4]
    4ea8: 16           	movw hl, ax
    4ea9: 66           	mov a, l
    4eaa: 71 8c        	mov1 cy, a.0
    4eac: 61 c8        	skc
    4eae: ee 69 01     	br $!0x501a <___ssvfiscanf_r+0xada>
    4eb1: f6           	clrw ax
    4eb2: b8 1c        	movw [sp+28], ax
    4eb4: b8 18        	movw [sp+24], ax
    4eb6: ae f8        	movw ax, sp
    4eb8: 04 5a 01     	addw ax, #346
    4ebb: 14           	movw de, ax
    4ebc: 66           	mov a, l
    4ebd: 36 00 00     	movw hl, #0
    4ec0: 37           	xchw ax, hl
    4ec1: b8 22        	movw [sp+34], ax
    4ec3: 37           	xchw ax, hl
    4ec4: 71 cc        	mov1 cy, a.4
    4ec6: 61 d8        	sknc
    4ec8: ee 6a 00     	br $!0x4f35 <___ssvfiscanf_r+0x9f5>
    4ecb: a8 04        	movw ax, [sp+4]
    4ecd: 60           	mov a, x
    4ece: 71 fc        	mov1 cy, a.7
    4ed0: 61 c8        	skc
    4ed2: ee 4f 00     	br $!0x4f24 <___ssvfiscanf_r+0x9e4>
    4ed5: fd 8d 55     	call !0x558d <_OUTLINED_FUNCTION_17>
    4ed8: 61 f8        	sknz
    4eda: ee ff 04     	br $!0x53dc <___ssvfiscanf_r+0xe9c>
    4edd: 30 40 00     	movw ax, #64
    4ee0: fd 6b 55     	call !0x556b <_OUTLINED_FUNCTION_14>
    4ee3: 61 f8        	sknz
    4ee5: ee 65 fa     	br $!0x494d <___ssvfiscanf_r+0x40d>
    4ee8: b8 12        	movw [sp+18], ax
    4eea: fd d5 54     	call !0x54d5 <_OUTLINED_FUNCTION_6>
    4eed: dc 11        	bc $0x4f00 <___ssvfiscanf_r+0x9c0>
    4eef: 15           	movw ax, de
    4ef0: fd 86 55     	call !0x5586 <_OUTLINED_FUNCTION_16>
    4ef3: 61 d8        	sknc
    4ef5: ee 55 fa     	br $!0x494d <___ssvfiscanf_r+0x40d>
    4ef8: fd 79 54     	call !0x5479 <_OUTLINED_FUNCTION_1>
    4efb: 61 f8        	sknz
    4efd: ee 4d fa     	br $!0x494d <___ssvfiscanf_r+0x40d>
    4f00: 15           	movw ax, de
    4f01: b8 1a        	movw [sp+26], ax
    4f03: a8 24        	movw ax, [sp+36]
    4f05: 14           	movw de, ax
    4f06: 15           	movw ax, de
    4f07: a5           	incw de
    4f08: 01           	addw ax, ax
    4f09: 03           	addw ax, bc
    4f0a: 16           	movw hl, ax
    4f0b: a8 18        	movw ax, [sp+24]
    4f0d: bb           	movw [hl], ax
    4f0e: 30 20 00     	movw ax, #32
    4f11: b8 1c        	movw [sp+28], ax
    4f13: 15           	movw ax, de
    4f14: b8 24        	movw [sp+36], ax
    4f16: a8 0c        	movw ax, [sp+12]
    4f18: fd e0 56     	call !0x56e0 <_OUTLINED_FUNCTION_51>
    4f1b: a8 12        	movw ax, [sp+18]
    4f1d: 14           	movw de, ax
    4f1e: 35           	xchw ax, de
    4f1f: b8 22        	movw [sp+34], ax
    4f21: 35           	xchw ax, de
    4f22: ef 11        	br $0x4f35 <___ssvfiscanf_r+0x9f5>
    4f24: f6           	clrw ax
    4f25: b8 1c        	movw [sp+28], ax
    4f27: b8 18        	movw [sp+24], ax
    4f29: fd 47 56     	call !0x5647 <_OUTLINED_FUNCTION_34>
    4f2c: 14           	movw de, ax
    4f2d: 17           	movw ax, hl
    4f2e: a1           	incw ax
    4f2f: a1           	incw ax
    4f30: b8 0c        	movw [sp+12], ax
    4f32: f6           	clrw ax
    4f33: b8 22        	movw [sp+34], ax
    4f35: 15           	movw ax, de
    4f36: b8 12        	movw [sp+18], ax
    4f38: 13           	movw ax, bc
    4f39: b8 20        	movw [sp+32], ax
    4f3b: f6           	clrw ax
    4f3c: fd 03 57     	call !0x5703 <_OUTLINED_FUNCTION_56>
    4f3f: fd 21 56     	call !0x5621 <_OUTLINED_FUNCTION_30>
    4f42: 61 d8        	sknc
    4f44: ee fd fd     	br $!0x4d44 <___ssvfiscanf_r+0x804>
    4f47: fd e5 56     	call !0x56e5 <_OUTLINED_FUNCTION_52>
    4f4a: 61 f8        	sknz
    4f4c: ee f5 fd     	br $!0x4d44 <___ssvfiscanf_r+0x804>
    4f4f: fd d0 56     	call !0x56d0 <_OUTLINED_FUNCTION_49>
    4f52: 61 f8        	sknz
    4f54: ee 75 04     	br $!0x53cc <___ssvfiscanf_r+0xe8c>
    4f57: a8 06        	movw ax, [sp+6]
    4f59: 12           	movw bc, ax
    4f5a: ae f8        	movw ax, sp
    4f5c: fd 88 56     	call !0x5688 <_OUTLINED_FUNCTION_41>
    4f5f: c3           	push bc
    4f60: c6           	pop hl
    4f61: fd 4c 56     	call !0x564c <_OUTLINED_FUNCTION_35>
    4f64: c3           	push bc
    4f65: c6           	pop hl
    4f66: fd c6 55     	call !0x55c6 <_OUTLINED_FUNCTION_21>
    4f69: df 05        	bnz $0x4f70 <___ssvfiscanf_r+0xa30>
    4f6b: fd 0f 56     	call !0x560f <_OUTLINED_FUNCTION_27>
    4f6e: dd 09        	bz $0x4f79 <___ssvfiscanf_r+0xa39>
    4f70: 34 06 00     	movw de, #6
    4f73: f7           	clrw bc
    4f74: ae f8        	movw ax, sp
    4f76: fd 81 56     	call !0x5681 <_OUTLINED_FUNCTION_40>
    4f79: ae f8        	movw ax, sp
    4f7b: fd a7 55     	call !0x55a7 <_OUTLINED_FUNCTION_19>
    4f7e: ae f8        	movw ax, sp
    4f80: 04 28 00     	addw ax, #40
    4f83: 14           	movw de, ax
    4f84: a8 1e        	movw ax, [sp+30]
    4f86: fd 41 5d     	call !0x5d41 <__mbrtowc_r>
    4f89: b8 56        	movw [sp+86], ax
    4f8b: 37           	xchw ax, hl
    4f8c: a8 08        	movw ax, [sp+8]
    4f8e: 37           	xchw ax, hl
    4f8f: 44 fe ff     	cmpw ax, #65534
    4f92: 61 f8        	sknz
    4f94: ee 6e 00     	br $!0x5005 <___ssvfiscanf_r+0xac5>
    4f97: a8 56        	movw ax, [sp+86]
    4f99: 44 00 00     	cmpw ax, #0
    4f9c: dd 08        	bz $0x4fa6 <___ssvfiscanf_r+0xa66>
    4f9e: 44 ff ff     	cmpw ax, #65535
    4fa1: df 06        	bnz $0x4fa9 <___ssvfiscanf_r+0xa69>
    4fa3: ee 26 04     	br $!0x53cc <___ssvfiscanf_r+0xe8c>
    4fa6: fd 09 57     	call !0x5709 <_OUTLINED_FUNCTION_57>
    4fa9: a8 12        	movw ax, [sp+18]
    4fab: 14           	movw de, ax
    4fac: a9           	movw ax, [de]
    4fad: fd a5 5d     	call !0x5da5 <_iswspace>
    4fb0: 44 00 00     	cmpw ax, #0
    4fb3: dd 12        	bz $0x4fc7 <___ssvfiscanf_r+0xa87>
    4fb5: fd 35 56     	call !0x5635 <_OUTLINED_FUNCTION_32>
    4fb8: 61 f8        	sknz
    4fba: ee 87 fd     	br $!0x4d44 <___ssvfiscanf_r+0x804>
    4fbd: a8 06        	movw ax, [sp+6]
    4fbf: 12           	movw bc, ax
    4fc0: ae f8        	movw ax, sp
    4fc2: fd 3d 55     	call !0x553d <_OUTLINED_FUNCTION_11>
    4fc5: ef ee        	br $0x4fb5 <___ssvfiscanf_r+0xa75>
    4fc7: fd 15 56     	call !0x5615 <_OUTLINED_FUNCTION_28>
    4fca: df 05        	bnz $0x4fd1 <___ssvfiscanf_r+0xa91>
    4fcc: fd 0f 56     	call !0x560f <_OUTLINED_FUNCTION_27>
    4fcf: dd 05        	bz $0x4fd6 <___ssvfiscanf_r+0xa96>
    4fd1: a8 0a        	movw ax, [sp+10]
    4fd3: b1           	decw ax
    4fd4: b8 0a        	movw [sp+10], ax
    4fd6: fd 72 55     	call !0x5572 <_OUTLINED_FUNCTION_15>
    4fd9: 31 43 29     	bt a.4, $0x5005 <___ssvfiscanf_r+0xac5>
    4fdc: fd e0 55     	call !0x55e0 <_OUTLINED_FUNCTION_23>
    4fdf: df 05        	bnz $0x4fe6 <___ssvfiscanf_r+0xaa6>
    4fe1: f6           	clrw ax
    4fe2: b8 06        	movw [sp+6], ax
    4fe4: ef 1f        	br $0x5005 <___ssvfiscanf_r+0xac5>
    4fe6: fd d0 55     	call !0x55d0 <_OUTLINED_FUNCTION_22>
    4fe9: de 05        	bnc $0x4ff0 <___ssvfiscanf_r+0xab0>
    4feb: fd b5 56     	call !0x56b5 <_OUTLINED_FUNCTION_46>
    4fee: dc 15        	bc $0x5005 <___ssvfiscanf_r+0xac5>
    4ff0: 15           	movw ax, de
    4ff1: b8 06        	movw [sp+6], ax
    4ff3: a8 1c        	movw ax, [sp+28]
    4ff5: 31 2d        	shlw ax, 2
    4ff7: 12           	movw bc, ax
    4ff8: a8 22        	movw ax, [sp+34]
    4ffa: fd e6 54     	call !0x54e6 <_OUTLINED_FUNCTION_7>
    4ffd: 61 f8        	sknz
    4fff: ee 4b f9     	br $!0x494d <___ssvfiscanf_r+0x40d>
    5002: fd ee 54     	call !0x54ee <_OUTLINED_FUNCTION_8>
    5005: ac 02        	movw ax, [hl+2]
    5007: 01           	addw ax, ax
    5008: 61 f3        	sknh
    500a: ee 32 ff     	br $!0x4f3f <___ssvfiscanf_r+0x9ff>
    500d: c7           	push hl
    500e: c2           	pop bc
    500f: fd 6c 54     	call !0x546c <_OUTLINED_FUNCTION_0>
    5012: 61 e8        	skz
    5014: ee 25 fd     	br $!0x4d3c <___ssvfiscanf_r+0x7fc>
    5017: ee 25 ff     	br $!0x4f3f <___ssvfiscanf_r+0x9ff>
    501a: f6           	clrw ax
    501b: b8 06        	movw [sp+6], ax
    501d: 66           	mov a, l
    501e: 31 45 23     	bf a.4, $0x5044 <___ssvfiscanf_r+0xb04>
    5021: a8 08        	movw ax, [sp+8]
    5023: 16           	movw hl, ax
    5024: fd 21 56     	call !0x5621 <_OUTLINED_FUNCTION_30>
    5027: 61 d8        	sknc
    5029: ee 84 fd     	br $!0x4db0 <___ssvfiscanf_r+0x870>
    502c: fd 23 55     	call !0x5523 <_OUTLINED_FUNCTION_10>
    502f: 61 f8        	sknz
    5031: ee 7c fd     	br $!0x4db0 <___ssvfiscanf_r+0x870>
    5034: fd 2e 56     	call !0x562e <_OUTLINED_FUNCTION_31>
    5037: 61 c3 e7     	bh $0x5021 <___ssvfiscanf_r+0xae1>
    503a: fd aa 54     	call !0x54aa <_OUTLINED_FUNCTION_4>
    503d: 61 e8        	skz
    503f: ee 6e fd     	br $!0x4db0 <___ssvfiscanf_r+0x870>
    5042: ef dd        	br $0x5021 <___ssvfiscanf_r+0xae1>
    5044: 66           	mov a, l
    5045: 31 75 35     	bf a.7, $0x507d <___ssvfiscanf_r+0xb3d>
    5048: fd 77 56     	call !0x5677 <_OUTLINED_FUNCTION_39>
    504b: 61 f8        	sknz
    504d: ee 8c 03     	br $!0x53dc <___ssvfiscanf_r+0xe9c>
    5050: 30 20 00     	movw ax, #32
    5053: fd 6b 55     	call !0x556b <_OUTLINED_FUNCTION_14>
    5056: 61 f8        	sknz
    5058: ee 88 03     	br $!0x53e3 <___ssvfiscanf_r+0xea3>
    505b: b8 04        	movw [sp+4], ax
    505d: 35           	xchw ax, de
    505e: a8 14        	movw ax, [sp+20]
    5060: 35           	xchw ax, de
    5061: fd 5f 55     	call !0x555f <_OUTLINED_FUNCTION_13>
    5064: dc 12        	bc $0x5078 <___ssvfiscanf_r+0xb38>
    5066: a8 1a        	movw ax, [sp+26]
    5068: fd 86 55     	call !0x5586 <_OUTLINED_FUNCTION_16>
    506b: 61 d8        	sknc
    506d: ee 73 03     	br $!0x53e3 <___ssvfiscanf_r+0xea3>
    5070: fd 8f 54     	call !0x548f <_OUTLINED_FUNCTION_2>
    5073: 61 f8        	sknz
    5075: ee 6b 03     	br $!0x53e3 <___ssvfiscanf_r+0xea3>
    5078: fd 09 55     	call !0x5509 <_OUTLINED_FUNCTION_9>
    507b: ef 08        	br $0x5085 <___ssvfiscanf_r+0xb45>
    507d: f6           	clrw ax
    507e: b8 12        	movw [sp+18], ax
    5080: b8 14        	movw [sp+20], ax
    5082: fd 47 56     	call !0x5647 <_OUTLINED_FUNCTION_34>
    5085: b8 04        	movw [sp+4], ax
    5087: fd 03 57     	call !0x5703 <_OUTLINED_FUNCTION_56>
    508a: fd 97 56     	call !0x5697 <_OUTLINED_FUNCTION_43>
    508d: c7           	push hl
    508e: c2           	pop bc
    508f: 16           	movw hl, ax
    5090: 71 b4        	mov1 cy, [hl].3
    5092: 61 d8        	sknc
    5094: ee 49 00     	br $!0x50e0 <___ssvfiscanf_r+0xba0>
    5097: 15           	movw ax, de
    5098: a1           	incw ax
    5099: c3           	push bc
    509a: c6           	pop hl
    509b: fd ab 56     	call !0x56ab <_OUTLINED_FUNCTION_45>
    509e: c7           	push hl
    509f: c4           	pop de
    50a0: 99           	mov [de], a
    50a1: a8 04        	movw ax, [sp+4]
    50a3: 14           	movw de, ax
    50a4: a7           	incw hl
    50a5: 17           	movw ax, hl
    50a6: 25           	subw ax, de
    50a7: 12           	movw bc, ax
    50a8: fd 1b 56     	call !0x561b <_OUTLINED_FUNCTION_29>
    50ab: dd 10        	bz $0x50bd <___ssvfiscanf_r+0xb7d>
    50ad: fd 62 56     	call !0x5662 <_OUTLINED_FUNCTION_37>
    50b0: dc 0b        	bc $0x50bd <___ssvfiscanf_r+0xb7d>
    50b2: fd b7 55     	call !0x55b7 <_OUTLINED_FUNCTION_20>
    50b5: 61 f8        	sknz
    50b7: ee 29 03     	br $!0x53e3 <___ssvfiscanf_r+0xea3>
    50ba: fd 3b 56     	call !0x563b <_OUTLINED_FUNCTION_33>
    50bd: 17           	movw ax, hl
    50be: b8 06        	movw [sp+6], ax
    50c0: 15           	movw ax, de
    50c1: b8 04        	movw [sp+4], ax
    50c3: a8 0a        	movw ax, [sp+10]
    50c5: b1           	decw ax
    50c6: b8 0a        	movw [sp+10], ax
    50c8: fd a2 54     	call !0x54a2 <_OUTLINED_FUNCTION_3>
    50cb: dd 13        	bz $0x50e0 <___ssvfiscanf_r+0xba0>
    50cd: ac 02        	movw ax, [hl+2]
    50cf: 01           	addw ax, ax
    50d0: 61 f3        	sknh
    50d2: ee b5 ff     	br $!0x508a <___ssvfiscanf_r+0xb4a>
    50d5: a8 08        	movw ax, [sp+8]
    50d7: 12           	movw bc, ax
    50d8: fd 6c 54     	call !0x546c <_OUTLINED_FUNCTION_0>
    50db: 61 f8        	sknz
    50dd: ee aa ff     	br $!0x508a <___ssvfiscanf_r+0xb4a>
    50e0: a8 06        	movw ax, [sp+6]
    50e2: 14           	movw de, ax
    50e3: ca 00 00     	mov [de], #0
    50e6: 33           	xchw ax, bc
    50e7: a8 04        	movw ax, [sp+4]
    50e9: 33           	xchw ax, bc
    50ea: ee 79 fd     	br $!0x4e66 <___ssvfiscanf_r+0x926>
    50ed: a8 06        	movw ax, [sp+6]
    50ef: 14           	movw de, ax
    50f0: a8 26        	movw ax, [sp+38]
    50f2: 16           	movw hl, ax
    50f3: 15           	movw ax, de
    50f4: 04 d8 ff     	addw ax, #65496
    50f7: 12           	movw bc, ax
    50f8: 15           	movw ax, de
    50f9: 04 d9 ff     	addw ax, #65497
    50fc: 14           	movw de, ax
    50fd: 13           	movw ax, bc
    50fe: 44 d9 ff     	cmpw ax, #65497
    5101: 61 c8        	skc
    5103: 34 00 00     	movw de, #0
    5106: 15           	movw ax, de
    5107: b8 14        	movw [sp+20], ax
    5109: 13           	movw ax, bc
    510a: 44 d9 ff     	cmpw ax, #65497
    510d: 32 27 00     	movw bc, #39
    5110: dc 03        	bc $0x5115 <___ssvfiscanf_r+0xbd5>
    5112: a8 06        	movw ax, [sp+6]
    5114: 12           	movw bc, ax
    5115: f6           	clrw ax
    5116: b8 12        	movw [sp+18], ax
    5118: ae f8        	movw ax, sp
    511a: 04 28 00     	addw ax, #40
    511d: b8 06        	movw [sp+6], ax
    511f: a8 04        	movw ax, [sp+4]
    5121: 08           	xch a, x
    5122: 6c 80        	or a, #128
    5124: 08           	xch a, x
    5125: 6c 0d        	or a, #13
    5127: b8 04        	movw [sp+4], ax
    5129: 33           	xchw ax, bc
    512a: b8 26        	movw [sp+38], ax
    512c: 33           	xchw ax, bc
    512d: 13           	movw ax, bc
    512e: 44 00 00     	cmpw ax, #0
    5131: 61 f8        	sknz
    5133: ee 67 01     	br $!0x529d <___ssvfiscanf_r+0xd5d>
    5136: c7           	push hl
    5137: c2           	pop bc
    5138: a8 08        	movw ax, [sp+8]
    513a: 16           	movw hl, ax
    513b: ab           	movw ax, [hl]
    513c: 14           	movw de, ax
    513d: 89           	mov a, [de]
    513e: 74           	mov e, a
    513f: 0c cf        	add a, #207
    5141: 4c 07        	cmp a, #7
    5143: 61 d8        	sknc
    5145: ee bc 00     	br $!0x5204 <___ssvfiscanf_r+0xcc4>
    5148: 64           	mov a, e
    5149: 0c bf        	add a, #191
    514b: 4c 06        	cmp a, #6
    514d: c3           	push bc
    514e: c6           	pop hl
    514f: 61 d8        	sknc
    5151: ee d7 00     	br $!0x522b <___ssvfiscanf_r+0xceb>
    5154: 64           	mov a, e
    5155: 0c 9f        	add a, #159
    5157: 4c 06        	cmp a, #6
    5159: 61 d8        	sknc
    515b: ee cd 00     	br $!0x522b <___ssvfiscanf_r+0xceb>
    515e: 64           	mov a, e
    515f: 0c c8        	add a, #200
    5161: 4c 02        	cmp a, #2
    5163: 61 d8        	sknc
    5165: ee aa 00     	br $!0x5212 <___ssvfiscanf_r+0xcd2>
    5168: 64           	mov a, e
    5169: 4c 2b        	cmp a, #43
    516b: 61 f8        	sknz
    516d: ee cb 00     	br $!0x523b <___ssvfiscanf_r+0xcfb>
    5170: 64           	mov a, e
    5171: 4c 2d        	cmp a, #45
    5173: 61 f8        	sknz
    5175: ee c3 00     	br $!0x523b <___ssvfiscanf_r+0xcfb>
    5178: 64           	mov a, e
    5179: 4c 78        	cmp a, #120
    517b: 61 f8        	sknz
    517d: ee c9 00     	br $!0x5249 <___ssvfiscanf_r+0xd09>
    5180: 64           	mov a, e
    5181: 4c 58        	cmp a, #88
    5183: 61 f8        	sknz
    5185: ee c1 00     	br $!0x5249 <___ssvfiscanf_r+0xd09>
    5188: 64           	mov a, e
    5189: 4c 30        	cmp a, #48
    518b: 61 e8        	skz
    518d: ee 0d 01     	br $!0x529d <___ssvfiscanf_r+0xd5d>
    5190: a8 04        	movw ax, [sp+4]
    5192: 71 bc        	mov1 cy, a.3
    5194: 61 c8        	skc
    5196: ee c6 00     	br $!0x525f <___ssvfiscanf_r+0xd1f>
    5199: a8 04        	movw ax, [sp+4]
    519b: 12           	movw bc, ax
    519c: 13           	movw ax, bc
    519d: 6c 02        	or a, #2
    519f: b8 0a        	movw [sp+10], ax
    51a1: 17           	movw ax, hl
    51a2: 44 00 00     	cmpw ax, #0
    51a5: dd 03        	bz $0x51aa <___ssvfiscanf_r+0xc6a>
    51a7: 13           	movw ax, bc
    51a8: b8 0a        	movw [sp+10], ax
    51aa: 32 08 00     	movw bc, #8
    51ad: 17           	movw ax, hl
    51ae: 44 00 00     	cmpw ax, #0
    51b1: dd 02        	bz $0x51b5 <___ssvfiscanf_r+0xc75>
    51b3: c7           	push hl
    51b4: c2           	pop bc
    51b5: a8 0a        	movw ax, [sp+10]
    51b7: 31 25 0d     	bf a.2, $0x51c7 <___ssvfiscanf_r+0xc87>
    51ba: 08           	xch a, x
    51bb: 5c 7f        	and a, #127
    51bd: 08           	xch a, x
    51be: 5c fa        	and a, #250
    51c0: b8 04        	movw [sp+4], ax
    51c2: c3           	push bc
    51c3: c6           	pop hl
    51c4: ee 98 00     	br $!0x525f <___ssvfiscanf_r+0xd1f>
    51c7: 34 01 00     	movw de, #1
    51ca: fd 1b 56     	call !0x561b <_OUTLINED_FUNCTION_29>
    51cd: 61 f8        	sknz
    51cf: 34 00 00     	movw de, #0
    51d2: a8 26        	movw ax, [sp+38]
    51d4: 05           	addw ax, de
    51d5: b8 26        	movw [sp+38], ax
    51d7: a8 14        	movw ax, [sp+20]
    51d9: 16           	movw hl, ax
    51da: c7           	push hl
    51db: c4           	pop de
    51dc: b5           	decw de
    51dd: 15           	movw ax, de
    51de: 47           	cmpw ax, hl
    51df: e6           	onew ax
    51e0: 61 e3        	skh
    51e2: f6           	clrw ax
    51e3: 44 00 00     	cmpw ax, #0
    51e6: f6           	clrw ax
    51e7: b8 14        	movw [sp+20], ax
    51e9: a8 0a        	movw ax, [sp+10]
    51eb: 16           	movw hl, ax
    51ec: df 03        	bnz $0x51f1 <___ssvfiscanf_r+0xcb1>
    51ee: 15           	movw ax, de
    51ef: b8 14        	movw [sp+20], ax
    51f1: a8 12        	movw ax, [sp+18]
    51f3: a1           	incw ax
    51f4: b8 12        	movw [sp+18], ax
    51f6: 17           	movw ax, hl
    51f7: 08           	xch a, x
    51f8: 5c 7f        	and a, #127
    51fa: 08           	xch a, x
    51fb: 5c fc        	and a, #252
    51fd: b8 04        	movw [sp+4], ax
    51ff: c3           	push bc
    5200: c4           	pop de
    5201: ee 67 00     	br $!0x526b <___ssvfiscanf_r+0xd2b>
    5204: fd ef 55     	call !0x55ef <_OUTLINED_FUNCTION_24>
    5207: b8 04        	movw [sp+4], ax
    5209: 13           	movw ax, bc
    520a: 01           	addw ax, ax
    520b: 12           	movw bc, ax
    520c: 79 3c 67     	movw ax, 26428[bc]              ; 0xf673c <__frodata+0xeffde>
    520f: 16           	movw hl, ax
    5210: ef 4d        	br $0x525f <___ssvfiscanf_r+0xd1f>
    5212: 17           	movw ax, hl
    5213: b7           	decw hl
    5214: 01           	addw ax, ax
    5215: 12           	movw bc, ax
    5216: 79 3c 67     	movw ax, 26428[bc]              ; 0xf673c <__frodata+0xeffde>
    5219: 12           	movw bc, ax
    521a: 17           	movw ax, hl
    521b: 44 08 00     	cmpw ax, #8
    521e: c3           	push bc
    521f: c6           	pop hl
    5220: 61 d8        	sknc
    5222: ee 78 00     	br $!0x529d <___ssvfiscanf_r+0xd5d>
    5225: fd ef 55     	call !0x55ef <_OUTLINED_FUNCTION_24>
    5228: ee 95 ff     	br $!0x51c0 <___ssvfiscanf_r+0xc80>
    522b: 17           	movw ax, hl
    522c: 44 0b 00     	cmpw ax, #11
    522f: 71 ff        	xor1 cy, a.7
    5231: 61 d8        	sknc
    5233: ee 67 00     	br $!0x529d <___ssvfiscanf_r+0xd5d>
    5236: fd ef 55     	call !0x55ef <_OUTLINED_FUNCTION_24>
    5239: ef 22        	br $0x525d <___ssvfiscanf_r+0xd1d>
    523b: a8 04        	movw ax, [sp+4]
    523d: 60           	mov a, x
    523e: 31 75 5c     	bf a.7, $0x529d <___ssvfiscanf_r+0xd5d>
    5241: a8 04        	movw ax, [sp+4]
    5243: 08           	xch a, x
    5244: 5c 7f        	and a, #127
    5246: 08           	xch a, x
    5247: ef 14        	br $0x525d <___ssvfiscanf_r+0xd1d>
    5249: a8 04        	movw ax, [sp+4]
    524b: f0           	clrb x
    524c: 5c 06        	and a, #6
    524e: 44 00 02     	cmpw ax, #512
    5251: df 4a        	bnz $0x529d <___ssvfiscanf_r+0xd5d>
    5253: 36 10 00     	movw hl, #16
    5256: a8 04        	movw ax, [sp+4]
    5258: 5c f8        	and a, #248
    525a: 04 00 05     	addw ax, #1280
    525d: b8 04        	movw [sp+4], ax
    525f: 64           	mov a, e
    5260: 35           	xchw ax, de
    5261: a8 06        	movw ax, [sp+6]
    5263: 35           	xchw ax, de
    5264: 99           	mov [de], a
    5265: a5           	incw de
    5266: 15           	movw ax, de
    5267: b8 06        	movw [sp+6], ax
    5269: c7           	push hl
    526a: c4           	pop de
    526b: a8 08        	movw ax, [sp+8]
    526d: 16           	movw hl, ax
    526e: ac 02        	movw ax, [hl+2]
    5270: 12           	movw bc, ax
    5271: b1           	decw ax
    5272: bc 02        	movw [hl+2], ax
    5274: fd 2e 56     	call !0x562e <_OUTLINED_FUNCTION_31>
    5277: 61 d3 05     	bnh $0x527f <___ssvfiscanf_r+0xd3f>
    527a: 61 79 00     	incw [hl+0]
    527d: ef 15        	br $0x5294 <___ssvfiscanf_r+0xd54>
    527f: c7           	push hl
    5280: c2           	pop bc
    5281: a8 1e        	movw ax, [sp+30]
    5283: 35           	xchw ax, de
    5284: b8 0a        	movw [sp+10], ax
    5286: 35           	xchw ax, de
    5287: fd 5f 44     	call !0x445f <___ssrefill_r>
    528a: 35           	xchw ax, de
    528b: a8 0a        	movw ax, [sp+10]
    528d: fd 92 56     	call !0x5692 <_OUTLINED_FUNCTION_42>
    5290: c5           	push de
    5291: c6           	pop hl
    5292: df 09        	bnz $0x529d <___ssvfiscanf_r+0xd5d>
    5294: a8 26        	movw ax, [sp+38]
    5296: 12           	movw bc, ax
    5297: b3           	decw bc
    5298: c5           	push de
    5299: c6           	pop hl
    529a: ee 8c fe     	br $!0x5129 <___ssvfiscanf_r+0xbe9>
    529d: 17           	movw ax, hl
    529e: b8 26        	movw [sp+38], ax
    52a0: a8 04        	movw ax, [sp+4]
    52a2: 16           	movw hl, ax
    52a3: a8 06        	movw ax, [sp+6]
    52a5: 14           	movw de, ax
    52a6: 67           	mov a, h
    52a7: 31 05 30     	bf a.0, $0x52da <___ssvfiscanf_r+0xd9a>
    52aa: ae f8        	movw ax, sp
    52ac: 04 28 00     	addw ax, #40
    52af: 12           	movw bc, ax
    52b0: 15           	movw ax, de
    52b1: 43           	cmpw ax, bc
    52b2: 61 d3 18     	bnh $0x52cd <___ssvfiscanf_r+0xd8d>
    52b5: b5           	decw de
    52b6: 35           	xchw ax, de
    52b7: b8 06        	movw [sp+6], ax
    52b9: 35           	xchw ax, de
    52ba: 89           	mov a, [de]
    52bb: 35           	xchw ax, de
    52bc: a8 08        	movw ax, [sp+8]
    52be: 35           	xchw ax, de
    52bf: 31 8f        	sarw ax, 8
    52c1: 12           	movw bc, ax
    52c2: a8 1e        	movw ax, [sp+30]
    52c4: fd b9 43     	call !0x43b9 <__sungetc_r>
    52c7: a8 04        	movw ax, [sp+4]
    52c9: 16           	movw hl, ax
    52ca: a8 06        	movw ax, [sp+6]
    52cc: 14           	movw de, ax
    52cd: ae f8        	movw ax, sp
    52cf: 04 28 00     	addw ax, #40
    52d2: 12           	movw bc, ax
    52d3: 15           	movw ax, de
    52d4: 43           	cmpw ax, bc
    52d5: 61 f8        	sknz
    52d7: ee 02 01     	br $!0x53dc <___ssvfiscanf_r+0xe9c>
    52da: 66           	mov a, l
    52db: 71 cc        	mov1 cy, a.4
    52dd: 61 d8        	sknc
    52df: ee cd 00     	br $!0x53af <___ssvfiscanf_r+0xe6f>
    52e2: 35           	xchw ax, de
    52e3: b8 06        	movw [sp+6], ax
    52e5: 35           	xchw ax, de
    52e6: ca 00 00     	mov [de], #0
    52e9: 34 00 00     	movw de, #0
    52ec: a8 26        	movw ax, [sp+38]
    52ee: b8 00        	movw [sp+0], ax
    52f0: ae f8        	movw ax, sp
    52f2: 04 28 00     	addw ax, #40
    52f5: 12           	movw bc, ax
    52f6: a8 1e        	movw ax, [sp+30]
    52f8: 37           	xchw ax, hl
    52f9: a8 58        	movw ax, [sp+88]
    52fb: 37           	xchw ax, hl
    52fc: 61 fa        	call hl
    52fe: 37           	xchw ax, hl
    52ff: a8 04        	movw ax, [sp+4]
    5301: 37           	xchw ax, hl
    5302: 14           	movw de, ax
    5303: 66           	mov a, l
    5304: 71 dc        	mov1 cy, a.5
    5306: 61 d8        	sknc
    5308: ee 8f 00     	br $!0x539a <___ssvfiscanf_r+0xe5a>
    530b: 66           	mov a, l
    530c: 31 35 0c     	bf a.3, $0x531b <___ssvfiscanf_r+0xddb>
    530f: a8 0c        	movw ax, [sp+12]
    5311: 12           	movw bc, ax
    5312: c3           	push bc
    5313: c6           	pop hl
    5314: ab           	movw ax, [hl]
    5315: 16           	movw hl, ax
    5316: 64           	mov a, e
    5317: 9b           	mov [hl], a
    5318: ee 88 00     	br $!0x53a3 <___ssvfiscanf_r+0xe63>
    531b: 66           	mov a, l
    531c: 71 ac        	mov1 cy, a.2
    531e: 61 d8        	sknc
    5320: ee 77 00     	br $!0x539a <___ssvfiscanf_r+0xe5a>
    5323: 66           	mov a, l
    5324: 31 05 15     	bf a.0, $0x533c <___ssvfiscanf_r+0xdfc>
    5327: fd 47 56     	call !0x5647 <_OUTLINED_FUNCTION_34>
    532a: b8 04        	movw [sp+4], ax
    532c: 13           	movw ax, bc
    532d: c7           	push hl
    532e: c2           	pop bc
    532f: 37           	xchw ax, hl
    5330: a8 04        	movw ax, [sp+4]
    5332: 37           	xchw ax, hl
    5333: bc 02        	movw [hl+2], ax
    5335: a8 04        	movw ax, [sp+4]
    5337: 16           	movw hl, ax
    5338: 15           	movw ax, de
    5339: ee 66 00     	br $!0x53a2 <___ssvfiscanf_r+0xe62>
    533c: 66           	mov a, l
    533d: 31 15 5a     	bf a.1, $0x539a <___ssvfiscanf_r+0xe5a>
    5340: 32 9d 41     	movw bc, #16797
    5343: a8 58        	movw ax, [sp+88]
    5345: 43           	cmpw ax, bc
    5346: a8 26        	movw ax, [sp+38]
    5348: df 15        	bnz $0x535f <___ssvfiscanf_r+0xe1f>
    534a: fd be 56     	call !0x56be <_OUTLINED_FUNCTION_47>
    534d: ae f8        	movw ax, sp
    534f: 04 28 00     	addw ax, #40
    5352: 14           	movw de, ax
    5353: ae f8        	movw ax, sp
    5355: 04 5c 01     	addw ax, #348
    5358: b8 14        	movw [sp+20], ax
    535a: fd bd 5d     	call !0x5dbd <__strtoull_r>
    535d: ef 13        	br $0x5372 <___ssvfiscanf_r+0xe32>
    535f: fd be 56     	call !0x56be <_OUTLINED_FUNCTION_47>
    5362: ae f8        	movw ax, sp
    5364: 04 28 00     	addw ax, #40
    5367: 14           	movw de, ax
    5368: ae f8        	movw ax, sp
    536a: 04 64 01     	addw ax, #356
    536d: b8 14        	movw [sp+20], ax
    536f: fd 0e 22     	call !0x220e <__strtoll_r>
    5372: fd 47 56     	call !0x5647 <_OUTLINED_FUNCTION_34>
    5375: 37           	xchw ax, hl
    5376: a8 14        	movw ax, [sp+20]
    5378: 37           	xchw ax, hl
    5379: 12           	movw bc, ax
    537a: ac 02        	movw ax, [hl+2]
    537c: b8 04        	movw [sp+4], ax
    537e: ab           	movw ax, [hl]
    537f: b8 0a        	movw [sp+10], ax
    5381: ac 06        	movw ax, [hl+6]
    5383: 14           	movw de, ax
    5384: ac 04        	movw ax, [hl+4]
    5386: c3           	push bc
    5387: c6           	pop hl
    5388: bc 04        	movw [hl+4], ax
    538a: 15           	movw ax, de
    538b: bc 06        	movw [hl+6], ax
    538d: a8 0a        	movw ax, [sp+10]
    538f: bb           	movw [hl], ax
    5390: a8 04        	movw ax, [sp+4]
    5392: 33           	xchw ax, bc
    5393: a8 0c        	movw ax, [sp+12]
    5395: 33           	xchw ax, bc
    5396: bc 02        	movw [hl+2], ax
    5398: ef 09        	br $0x53a3 <___ssvfiscanf_r+0xe63>
    539a: a8 0c        	movw ax, [sp+12]
    539c: 12           	movw bc, ax
    539d: c3           	push bc
    539e: c6           	pop hl
    539f: ab           	movw ax, [hl]
    53a0: 16           	movw hl, ax
    53a1: 15           	movw ax, de
    53a2: bb           	movw [hl], ax
    53a3: a8 16        	movw ax, [sp+22]
    53a5: a1           	incw ax
    53a6: b8 16        	movw [sp+22], ax
    53a8: 13           	movw ax, bc
    53a9: fd e0 56     	call !0x56e0 <_OUTLINED_FUNCTION_51>
    53ac: a8 06        	movw ax, [sp+6]
    53ae: 14           	movw de, ax
    53af: ae f8        	movw ax, sp
    53b1: 04 28 00     	addw ax, #40
    53b4: 12           	movw bc, ax
    53b5: a8 0e        	movw ax, [sp+14]
    53b7: 23           	subw ax, bc
    53b8: 33           	xchw ax, bc
    53b9: a8 12        	movw ax, [sp+18]
    53bb: 33           	xchw ax, bc
    53bc: 03           	addw ax, bc
    53bd: 05           	addw ax, de
    53be: ee 6d f7     	br $!0x4b2e <___ssvfiscanf_r+0x5ee>
    53c1: a8 08        	movw ax, [sp+8]
    53c3: 12           	movw bc, ax
    53c4: fd 6c 54     	call !0x546c <_OUTLINED_FUNCTION_0>
    53c7: 61 f8        	sknz
    53c9: ee e5 f4     	br $!0x48b1 <___ssvfiscanf_r+0x371>
    53cc: a8 16        	movw ax, [sp+22]
    53ce: 44 00 00     	cmpw ax, #0
    53d1: dd 10        	bz $0x53e3 <___ssvfiscanf_r+0xea3>
    53d3: a8 08        	movw ax, [sp+8]
    53d5: 04 06 00     	addw ax, #6
    53d8: 16           	movw hl, ax
    53d9: 31 e3 07     	bt [hl].6, $0x53e3 <___ssvfiscanf_r+0xea3>
    53dc: a8 16        	movw ax, [sp+22]
    53de: 44 ff ff     	cmpw ax, #65535
    53e1: df 0e        	bnz $0x53f1 <___ssvfiscanf_r+0xeb1>
    53e3: 34 00 00     	movw de, #0
    53e6: a8 24        	movw ax, [sp+36]
    53e8: 12           	movw bc, ax
    53e9: 15           	movw ax, de
    53ea: 43           	cmpw ax, bc
    53eb: df 15        	bnz $0x5402 <___ssvfiscanf_r+0xec2>
    53ed: f6           	clrw ax
    53ee: b1           	decw ax
    53ef: b8 16        	movw [sp+22], ax
    53f1: a8 20        	movw ax, [sp+32]
    53f3: 44 00 00     	cmpw ax, #0
    53f6: 61 e8        	skz
    53f8: fd b2 43     	call !0x43b2 <_free>
    53fb: a8 16        	movw ax, [sp+22]
    53fd: 10 fe        	addw sp, #254
    53ff: 10 6e        	addw sp, #110
    5401: d7           	ret
    5402: a8 20        	movw ax, [sp+32]
    5404: 12           	movw bc, ax
    5405: 15           	movw ax, de
    5406: 01           	addw ax, ax
    5407: 03           	addw ax, bc
    5408: b8 0e        	movw [sp+14], ax
    540a: 16           	movw hl, ax
    540b: ab           	movw ax, [hl]
    540c: 35           	xchw ax, de
    540d: b8 08        	movw [sp+8], ax
    540f: 35           	xchw ax, de
    5410: 14           	movw de, ax
    5411: a9           	movw ax, [de]
    5412: fd b2 43     	call !0x43b2 <_free>
    5415: a8 08        	movw ax, [sp+8]
    5417: 14           	movw de, ax
    5418: a8 0e        	movw ax, [sp+14]
    541a: 16           	movw hl, ax
    541b: a5           	incw de
    541c: ab           	movw ax, [hl]
    541d: 16           	movw hl, ax
    541e: f6           	clrw ax
    541f: bb           	movw [hl], ax
    5420: ef c4        	br $0x53e6 <___ssvfiscanf_r+0xea6>

00005422 <___wctob>:
    5422: 20 10        	subw sp, #16
    5424: c3           	push bc
    5425: c4           	pop de
    5426: 12           	movw bc, ax
    5427: 15           	movw ax, de
    5428: 44 ff ff     	cmpw ax, #65535
    542b: df 04        	bnz $0x5431 <___wctob+0xf>
    542d: f7           	clrw bc
    542e: b3           	decw bc
    542f: ef 37        	br $0x5468 <___wctob+0x46>
    5431: ae f8        	movw ax, sp
    5433: 04 02 00     	addw ax, #2
    5436: b8 0e        	movw [sp+14], ax
    5438: 35           	xchw ax, de
    5439: b8 0c        	movw [sp+12], ax
    543b: 35           	xchw ax, de
    543c: 33           	xchw ax, bc
    543d: b8 0a        	movw [sp+10], ax
    543f: 33           	xchw ax, bc
    5440: 34 06 00     	movw de, #6
    5443: f7           	clrw bc
    5444: fd 08 06     	call !0x608 <_memset>
    5447: fb e0 ef     	movw hl, !0xfefe0               ; 0xfefe0 <__datastart+0xe0>
    544a: a8 0e        	movw ax, [sp+14]
    544c: b8 00        	movw [sp+0], ax
    544e: a8 0c        	movw ax, [sp+12]
    5450: 14           	movw de, ax
    5451: ae f8        	movw ax, sp
    5453: 04 08 00     	addw ax, #8
    5456: 12           	movw bc, ax
    5457: a8 0a        	movw ax, [sp+10]
    5459: 61 fa        	call hl
    545b: 14           	movw de, ax
    545c: 88 08        	mov a, [sp+8]
    545e: 72           	mov c, a
    545f: f1           	clrb a
    5460: 73           	mov b, a
    5461: 15           	movw ax, de
    5462: 44 01 00     	cmpw ax, #1
    5465: 61 e8        	skz
    5467: f7           	clrw bc
    5468: 13           	movw ax, bc
    5469: 10 10        	addw sp, #16
    546b: d7           	ret

0000546c <_OUTLINED_FUNCTION_0>:
    546c: a8 22        	movw ax, [sp+34]
    546e: fd 5f 44     	call !0x445f <___ssrefill_r>
    5471: 37           	xchw ax, hl
    5472: a8 0c        	movw ax, [sp+12]
    5474: 37           	xchw ax, hl
    5475: 44 00 00     	cmpw ax, #0
    5478: d7           	ret

00005479 <_OUTLINED_FUNCTION_1>:
    5479: 15           	movw ax, de
    547a: 04 08 00     	addw ax, #8
    547d: b8 1e        	movw [sp+30], ax
    547f: 01           	addw ax, ax
    5480: 12           	movw bc, ax
    5481: a8 24        	movw ax, [sp+36]
    5483: fd 9c 5d     	call !0x5d9c <_realloc>
    5486: 35           	xchw ax, de
    5487: a8 1e        	movw ax, [sp+30]
    5489: 35           	xchw ax, de
    548a: 12           	movw bc, ax
    548b: 44 00 00     	cmpw ax, #0
    548e: d7           	ret

0000548f <_OUTLINED_FUNCTION_2>:
    548f: a8 1e        	movw ax, [sp+30]
    5491: 04 08 00     	addw ax, #8
    5494: b8 1e        	movw [sp+30], ax
    5496: 01           	addw ax, ax
    5497: 12           	movw bc, ax
    5498: a8 24        	movw ax, [sp+36]
    549a: fd 9c 5d     	call !0x5d9c <_realloc>
    549d: 12           	movw bc, ax
    549e: 44 00 00     	cmpw ax, #0
    54a1: d7           	ret

000054a2 <_OUTLINED_FUNCTION_3>:
    54a2: 37           	xchw ax, hl
    54a3: a8 0c        	movw ax, [sp+12]
    54a5: 37           	xchw ax, hl
    54a6: 44 00 00     	cmpw ax, #0
    54a9: d7           	ret

000054aa <_OUTLINED_FUNCTION_4>:
    54aa: a8 0c        	movw ax, [sp+12]
    54ac: 12           	movw bc, ax
    54ad: a8 22        	movw ax, [sp+34]
    54af: fd 5f 44     	call !0x445f <___ssrefill_r>
    54b2: 44 00 00     	cmpw ax, #0
    54b5: d7           	ret

000054b6 <_OUTLINED_FUNCTION_5>:
    54b6: 15           	movw ax, de
    54b7: b8 1e        	movw [sp+30], ax
    54b9: a8 28        	movw ax, [sp+40]
    54bb: 14           	movw de, ax
    54bc: 15           	movw ax, de
    54bd: a5           	incw de
    54be: 01           	addw ax, ax
    54bf: 03           	addw ax, bc
    54c0: 16           	movw hl, ax
    54c1: a8 1c        	movw ax, [sp+28]
    54c3: bb           	movw [hl], ax
    54c4: 30 20 00     	movw ax, #32
    54c7: b8 20        	movw [sp+32], ax
    54c9: 15           	movw ax, de
    54ca: b8 28        	movw [sp+40], ax
    54cc: a8 10        	movw ax, [sp+16]
    54ce: a1           	incw ax
    54cf: a1           	incw ax
    54d0: b8 10        	movw [sp+16], ax
    54d2: a8 26        	movw ax, [sp+38]
    54d4: d7           	ret

000054d5 <_OUTLINED_FUNCTION_6>:
    54d5: 35           	xchw ax, de
    54d6: a8 1c        	movw ax, [sp+28]
    54d8: 35           	xchw ax, de
    54d9: b9           	movw [de], ax
    54da: a8 28        	movw ax, [sp+40]
    54dc: 35           	xchw ax, de
    54dd: a8 1e        	movw ax, [sp+30]
    54df: 35           	xchw ax, de
    54e0: 33           	xchw ax, bc
    54e1: a8 24        	movw ax, [sp+36]
    54e3: 33           	xchw ax, bc
    54e4: 45           	cmpw ax, de
    54e5: d7           	ret

000054e6 <_OUTLINED_FUNCTION_7>:
    54e6: fd 9c 5d     	call !0x5d9c <_realloc>
    54e9: 12           	movw bc, ax
    54ea: 44 00 00     	cmpw ax, #0
    54ed: d7           	ret

000054ee <_OUTLINED_FUNCTION_8>:
    54ee: a8 1c        	movw ax, [sp+28]
    54f0: 16           	movw hl, ax
    54f1: 13           	movw ax, bc
    54f2: bb           	movw [hl], ax
    54f3: a8 0a        	movw ax, [sp+10]
    54f5: 33           	xchw ax, bc
    54f6: b8 26        	movw [sp+38], ax
    54f8: 33           	xchw ax, bc
    54f9: 01           	addw ax, ax
    54fa: 03           	addw ax, bc
    54fb: b8 16        	movw [sp+22], ax
    54fd: f6           	clrw ax
    54fe: b8 0a        	movw [sp+10], ax
    5500: a8 20        	movw ax, [sp+32]
    5502: 01           	addw ax, ax
    5503: b8 20        	movw [sp+32], ax
    5505: a8 0c        	movw ax, [sp+12]
    5507: 16           	movw hl, ax
    5508: d7           	ret

00005509 <_OUTLINED_FUNCTION_9>:
    5509: a8 28        	movw ax, [sp+40]
    550b: 14           	movw de, ax
    550c: 15           	movw ax, de
    550d: a5           	incw de
    550e: 01           	addw ax, ax
    550f: 03           	addw ax, bc
    5510: 16           	movw hl, ax
    5511: a8 18        	movw ax, [sp+24]
    5513: bb           	movw [hl], ax
    5514: 30 20 00     	movw ax, #32
    5517: b8 16        	movw [sp+22], ax
    5519: 15           	movw ax, de
    551a: b8 28        	movw [sp+40], ax
    551c: a8 08        	movw ax, [sp+8]
    551e: 33           	xchw ax, bc
    551f: b8 24        	movw [sp+36], ax
    5521: 33           	xchw ax, bc
    5522: d7           	ret

00005523 <_OUTLINED_FUNCTION_10>:
    5523: a8 0c        	movw ax, [sp+12]
    5525: 16           	movw hl, ax
    5526: a5           	incw de
    5527: 15           	movw ax, de
    5528: bb           	movw [hl], ax
    5529: ac 02        	movw ax, [hl+2]
    552b: 12           	movw bc, ax
    552c: b1           	decw ax
    552d: bc 02        	movw [hl+2], ax
    552f: a8 0a        	movw ax, [sp+10]
    5531: a1           	incw ax
    5532: b8 0a        	movw [sp+10], ax
    5534: a8 0e        	movw ax, [sp+14]
    5536: b1           	decw ax
    5537: 44 00 00     	cmpw ax, #0
    553a: b8 0e        	movw [sp+14], ax
    553c: d7           	ret

0000553d <_OUTLINED_FUNCTION_11>:
    553d: 04 28 00     	addw ax, #40
    5540: b3           	decw bc
    5541: 33           	xchw ax, bc
    5542: b8 0a        	movw [sp+10], ax
    5544: 33           	xchw ax, bc
    5545: 03           	addw ax, bc
    5546: 16           	movw hl, ax
    5547: 8b           	mov a, [hl]
    5548: 31 8e        	shrw ax, 8
    554a: 35           	xchw ax, de
    554b: a8 0c        	movw ax, [sp+12]
    554d: 35           	xchw ax, de
    554e: 12           	movw bc, ax
    554f: a8 22        	movw ax, [sp+34]
    5551: fd b9 43     	call !0x43b9 <__sungetc_r>
    5554: d7           	ret

00005555 <_OUTLINED_FUNCTION_12>:
    5555: 13           	movw ax, bc
    5556: 08           	xch a, x
    5557: 5c 0f        	and a, #15
    5559: 08           	xch a, x
    555a: f1           	clrb a
    555b: 44 00 00     	cmpw ax, #0
    555e: d7           	ret

0000555f <_OUTLINED_FUNCTION_13>:
    555f: b9           	movw [de], ax
    5560: a8 28        	movw ax, [sp+40]
    5562: 33           	xchw ax, bc
    5563: a8 1e        	movw ax, [sp+30]
    5565: 33           	xchw ax, bc
    5566: 43           	cmpw ax, bc
    5567: a8 24        	movw ax, [sp+36]
    5569: 12           	movw bc, ax
    556a: d7           	ret

0000556b <_OUTLINED_FUNCTION_14>:
    556b: fd ab 43     	call !0x43ab <_malloc>
    556e: 44 00 00     	cmpw ax, #0
    5571: d7           	ret

00005572 <_OUTLINED_FUNCTION_15>:
    5572: a8 0a        	movw ax, [sp+10]
    5574: 33           	xchw ax, bc
    5575: a8 12        	movw ax, [sp+18]
    5577: 33           	xchw ax, bc
    5578: 03           	addw ax, bc
    5579: b8 12        	movw [sp+18], ax
    557b: f6           	clrw ax
    557c: b8 0a        	movw [sp+10], ax
    557e: a8 08        	movw ax, [sp+8]
    5580: 37           	xchw ax, hl
    5581: a8 0c        	movw ax, [sp+12]
    5583: 37           	xchw ax, hl
    5584: 60           	mov a, x
    5585: d7           	ret

00005586 <_OUTLINED_FUNCTION_16>:
    5586: 04 09 00     	addw ax, #9
    5589: 44 02 00     	cmpw ax, #2
    558c: d7           	ret

0000558d <_OUTLINED_FUNCTION_17>:
    558d: a8 10        	movw ax, [sp+16]
    558f: 16           	movw hl, ax
    5590: ab           	movw ax, [hl]
    5591: 44 00 00     	cmpw ax, #0
    5594: b8 1c        	movw [sp+28], ax
    5596: d7           	ret

00005597 <_OUTLINED_FUNCTION_18>:
    5597: 30 03 00     	movw ax, #3
    559a: b8 0e        	movw [sp+14], ax
    559c: 30 10 00     	movw ax, #16
    559f: b8 2a        	movw [sp+42], ax
    55a1: 30 9d 41     	movw ax, #16797
    55a4: b8 5c        	movw [sp+92], ax
    55a6: d7           	ret

000055a7 <_OUTLINED_FUNCTION_19>:
    55a7: 04 50 00     	addw ax, #80
    55aa: b8 06        	movw [sp+6], ax
    55ac: a8 0a        	movw ax, [sp+10]
    55ae: a1           	incw ax
    55af: b8 0a        	movw [sp+10], ax
    55b1: b8 04        	movw [sp+4], ax
    55b3: a8 16        	movw ax, [sp+22]
    55b5: 12           	movw bc, ax
    55b6: d7           	ret

000055b7 <_OUTLINED_FUNCTION_20>:
    55b7: a8 16        	movw ax, [sp+22]
    55b9: 01           	addw ax, ax
    55ba: b8 16        	movw [sp+22], ax
    55bc: 12           	movw bc, ax
    55bd: 15           	movw ax, de
    55be: fd 9c 5d     	call !0x5d9c <_realloc>
    55c1: 14           	movw de, ax
    55c2: 44 00 00     	cmpw ax, #0
    55c5: d7           	ret

000055c6 <_OUTLINED_FUNCTION_21>:
    55c6: bb           	movw [hl], ax
    55c7: 61 89 02     	decw [hl+2]
    55ca: a8 5a        	movw ax, [sp+90]
    55cc: 44 03 00     	cmpw ax, #3
    55cf: d7           	ret

000055d0 <_OUTLINED_FUNCTION_22>:
    55d0: 13           	movw ax, bc
    55d1: 33           	xchw ax, bc
    55d2: a8 26        	movw ax, [sp+38]
    55d4: 33           	xchw ax, bc
    55d5: 23           	subw ax, bc
    55d6: 33           	xchw ax, bc
    55d7: a8 20        	movw ax, [sp+32]
    55d9: 33           	xchw ax, bc
    55da: 31 1f        	sarw ax, 1
    55dc: 14           	movw de, ax
    55dd: b3           	decw bc
    55de: 43           	cmpw ax, bc
    55df: d7           	ret

000055e0 <_OUTLINED_FUNCTION_23>:
    55e0: a8 16        	movw ax, [sp+22]
    55e2: a1           	incw ax
    55e3: a1           	incw ax
    55e4: 12           	movw bc, ax
    55e5: a8 1c        	movw ax, [sp+28]
    55e7: 33           	xchw ax, bc
    55e8: b8 16        	movw [sp+22], ax
    55ea: 33           	xchw ax, bc
    55eb: 44 00 00     	cmpw ax, #0
    55ee: d7           	ret

000055ef <_OUTLINED_FUNCTION_24>:
    55ef: a8 08        	movw ax, [sp+8]
    55f1: 08           	xch a, x
    55f2: 5c 7f        	and a, #127
    55f4: 08           	xch a, x
    55f5: 5c f4        	and a, #244
    55f7: d7           	ret

000055f8 <_OUTLINED_FUNCTION_25>:
    55f8: a8 22        	movw ax, [sp+34]
    55fa: 35           	xchw ax, de
    55fb: b8 08        	movw [sp+8], ax
    55fd: 35           	xchw ax, de
    55fe: fd 5f 44     	call !0x445f <___ssrefill_r>
    5601: 35           	xchw ax, de
    5602: a8 08        	movw ax, [sp+8]
    5604: 35           	xchw ax, de
    5605: d7           	ret

00005606 <_OUTLINED_FUNCTION_26>:
    5606: 30 03 00     	movw ax, #3
    5609: b8 0e        	movw [sp+14], ax
    560b: 30 0a 00     	movw ax, #10
    560e: d7           	ret

0000560f <_OUTLINED_FUNCTION_27>:
    560f: a8 54        	movw ax, [sp+84]
    5611: 44 04 00     	cmpw ax, #4
    5614: d7           	ret

00005615 <_OUTLINED_FUNCTION_28>:
    5615: a8 5a        	movw ax, [sp+90]
    5617: 44 03 00     	cmpw ax, #3
    561a: d7           	ret

0000561b <_OUTLINED_FUNCTION_29>:
    561b: a8 18        	movw ax, [sp+24]
    561d: 44 00 00     	cmpw ax, #0
    5620: d7           	ret

00005621 <_OUTLINED_FUNCTION_30>:
    5621: 32 f5 65     	movw bc, #26101
    5624: ab           	movw ax, [hl]
    5625: 14           	movw de, ax
    5626: 89           	mov a, [de]
    5627: 31 8e        	shrw ax, 8
    5629: 03           	addw ax, bc
    562a: 16           	movw hl, ax
    562b: 71 b4        	mov1 cy, [hl].3
    562d: d7           	ret

0000562e <_OUTLINED_FUNCTION_31>:
    562e: 13           	movw ax, bc
    562f: 44 01 00     	cmpw ax, #1
    5632: 71 ff        	xor1 cy, a.7
    5634: d7           	ret

00005635 <_OUTLINED_FUNCTION_32>:
    5635: a8 0a        	movw ax, [sp+10]
    5637: 44 00 00     	cmpw ax, #0
    563a: d7           	ret

0000563b <_OUTLINED_FUNCTION_33>:
    563b: a8 18        	movw ax, [sp+24]
    563d: 16           	movw hl, ax
    563e: 15           	movw ax, de
    563f: bb           	movw [hl], ax
    5640: 33           	xchw ax, bc
    5641: a8 0a        	movw ax, [sp+10]
    5643: 33           	xchw ax, bc
    5644: 03           	addw ax, bc
    5645: 16           	movw hl, ax
    5646: d7           	ret

00005647 <_OUTLINED_FUNCTION_34>:
    5647: a8 10        	movw ax, [sp+16]
    5649: 16           	movw hl, ax
    564a: ab           	movw ax, [hl]
    564b: d7           	ret

0000564c <_OUTLINED_FUNCTION_35>:
    564c: ab           	movw ax, [hl]
    564d: 14           	movw de, ax
    564e: 89           	mov a, [de]
    564f: 37           	xchw ax, hl
    5650: a8 18        	movw ax, [sp+24]
    5652: 37           	xchw ax, hl
    5653: a5           	incw de
    5654: 9b           	mov [hl], a
    5655: 15           	movw ax, de
    5656: d7           	ret

00005657 <_OUTLINED_FUNCTION_36>:
    5657: b8 28        	movw [sp+40], ax
    5659: b8 5c        	movw [sp+92], ax
    565b: b8 5a        	movw [sp+90], ax
    565d: b8 2a        	movw [sp+42], ax
    565f: b8 12        	movw [sp+18], ax
    5661: d7           	ret

00005662 <_OUTLINED_FUNCTION_37>:
    5662: 33           	xchw ax, bc
    5663: b8 0a        	movw [sp+10], ax
    5665: 33           	xchw ax, bc
    5666: 13           	movw ax, bc
    5667: 33           	xchw ax, bc
    5668: a8 16        	movw ax, [sp+22]
    566a: 33           	xchw ax, bc
    566b: 43           	cmpw ax, bc
    566c: d7           	ret

0000566d <_OUTLINED_FUNCTION_38>:
    566d: 37           	xchw ax, hl
    566e: a8 0c        	movw ax, [sp+12]
    5670: 37           	xchw ax, hl
    5671: 44 fe ff     	cmpw ax, #65534
    5674: b8 5a        	movw [sp+90], ax
    5676: d7           	ret

00005677 <_OUTLINED_FUNCTION_39>:
    5677: a8 10        	movw ax, [sp+16]
    5679: 16           	movw hl, ax
    567a: ab           	movw ax, [hl]
    567b: 44 00 00     	cmpw ax, #0
    567e: b8 18        	movw [sp+24], ax
    5680: d7           	ret

00005681 <_OUTLINED_FUNCTION_40>:
    5681: 04 50 00     	addw ax, #80
    5684: fd 08 06     	call !0x608 <_memset>
    5687: d7           	ret

00005688 <_OUTLINED_FUNCTION_41>:
    5688: 04 28 00     	addw ax, #40
    568b: 03           	addw ax, bc
    568c: b8 18        	movw [sp+24], ax
    568e: a8 0c        	movw ax, [sp+12]
    5690: 12           	movw bc, ax
    5691: d7           	ret

00005692 <_OUTLINED_FUNCTION_42>:
    5692: 35           	xchw ax, de
    5693: 44 00 00     	cmpw ax, #0
    5696: d7           	ret

00005697 <_OUTLINED_FUNCTION_43>:
    5697: 32 f5 65     	movw bc, #26101
    569a: ab           	movw ax, [hl]
    569b: 14           	movw de, ax
    569c: 89           	mov a, [de]
    569d: 31 8e        	shrw ax, 8
    569f: 03           	addw ax, bc
    56a0: d7           	ret

000056a1 <_OUTLINED_FUNCTION_44>:
    56a1: 13           	movw ax, bc
    56a2: 08           	xch a, x
    56a3: 5c 8f        	and a, #143
    56a5: 08           	xch a, x
    56a6: f1           	clrb a
    56a7: 44 00 00     	cmpw ax, #0
    56aa: d7           	ret

000056ab <_OUTLINED_FUNCTION_45>:
    56ab: bb           	movw [hl], ax
    56ac: 61 89 02     	decw [hl+2]
    56af: 89           	mov a, [de]
    56b0: 37           	xchw ax, hl
    56b1: a8 0a        	movw ax, [sp+10]
    56b3: 37           	xchw ax, hl
    56b4: d7           	ret

000056b5 <_OUTLINED_FUNCTION_46>:
    56b5: f6           	clrw ax
    56b6: b8 0a        	movw [sp+10], ax
    56b8: a8 20        	movw ax, [sp+32]
    56ba: 12           	movw bc, ax
    56bb: 15           	movw ax, de
    56bc: 43           	cmpw ax, bc
    56bd: d7           	ret

000056be <_OUTLINED_FUNCTION_47>:
    56be: b8 06        	movw [sp+6], ax
    56c0: f6           	clrw ax
    56c1: b8 04        	movw [sp+4], ax
    56c3: a8 22        	movw ax, [sp+34]
    56c5: 12           	movw bc, ax
    56c6: d7           	ret

000056c7 <_OUTLINED_FUNCTION_48>:
    56c7: 30 03 00     	movw ax, #3
    56ca: b8 0e        	movw [sp+14], ax
    56cc: 30 08 00     	movw ax, #8
    56cf: d7           	ret

000056d0 <_OUTLINED_FUNCTION_49>:
    56d0: fd bb 25     	call !0x25bb <___locale_mb_cur_max>
    56d3: 12           	movw bc, ax
    56d4: a8 0a        	movw ax, [sp+10]
    56d6: 43           	cmpw ax, bc
    56d7: d7           	ret

000056d8 <_OUTLINED_FUNCTION_50>:
    56d8: 04 5a 00     	addw ax, #90
    56db: 16           	movw hl, ax
    56dc: 61 c9        	mov a, [hl+b]
    56de: d1           	cmp0 a
    56df: d7           	ret

000056e0 <_OUTLINED_FUNCTION_51>:
    56e0: a1           	incw ax
    56e1: a1           	incw ax
    56e2: b8 10        	movw [sp+16], ax
    56e4: d7           	ret

000056e5 <_OUTLINED_FUNCTION_52>:
    56e5: a8 0e        	movw ax, [sp+14]
    56e7: 44 00 00     	cmpw ax, #0
    56ea: d7           	ret

000056eb <_OUTLINED_FUNCTION_53>:
    56eb: a8 12        	movw ax, [sp+18]
    56ed: 12           	movw bc, ax
    56ee: 15           	movw ax, de
    56ef: 03           	addw ax, bc
    56f0: b8 12        	movw [sp+18], ax
    56f2: d7           	ret

000056f3 <_OUTLINED_FUNCTION_54>:
    56f3: 44 00 00     	cmpw ax, #0
    56f6: f6           	clrw ax
    56f7: b1           	decw ax
    56f8: b8 0e        	movw [sp+14], ax
    56fa: d7           	ret

000056fb <_OUTLINED_FUNCTION_55>:
    56fb: a8 0a        	movw ax, [sp+10]
    56fd: 33           	xchw ax, bc
    56fe: a8 08        	movw ax, [sp+8]
    5700: 33           	xchw ax, bc
    5701: 43           	cmpw ax, bc
    5702: d7           	ret

00005703 <_OUTLINED_FUNCTION_56>:
    5703: b8 0a        	movw [sp+10], ax
    5705: a8 0c        	movw ax, [sp+12]
    5707: 16           	movw hl, ax
    5708: d7           	ret

00005709 <_OUTLINED_FUNCTION_57>:
    5709: a8 16        	movw ax, [sp+22]
    570b: 14           	movw de, ax
    570c: f6           	clrw ax
    570d: b9           	movw [de], ax
    570e: d7           	ret

0000570f <_OUTLINED_FUNCTION_58>:
    570f: fd 9c 5d     	call !0x5d9c <_realloc>
    5712: 44 00 00     	cmpw ax, #0
    5715: d7           	ret

00005716 <_OUTLINED_FUNCTION_59>:
    5716: 13           	movw ax, bc
    5717: bb           	movw [hl], ax
    5718: 61 89 02     	decw [hl+2]
    571b: a8 12        	movw ax, [sp+18]
    571d: d7           	ret

0000571e <___submore>:
    571e: 20 0a        	subw sp, #10
    5720: c3           	push bc
    5721: c6           	pop hl
    5722: b8 02        	movw [sp+2], ax
    5724: ac 1a        	movw ax, [hl+26]
    5726: 37           	xchw ax, hl
    5727: b8 00        	movw [sp+0], ax
    5729: 37           	xchw ax, hl
    572a: 12           	movw bc, ax
    572b: 17           	movw ax, hl
    572c: 04 22 00     	addw ax, #34
    572f: 14           	movw de, ax
    5730: 13           	movw ax, bc
    5731: 45           	cmpw ax, de
    5732: df 43        	bnz $0x5777 <___submore+0x59>
    5734: 32 00 04     	movw bc, #1024
    5737: a8 02        	movw ax, [sp+2]
    5739: fd 92 37     	call !0x3792 <__malloc_r>
    573c: 14           	movw de, ax
    573d: 44 00 00     	cmpw ax, #0
    5740: df 04        	bnz $0x5746 <___submore+0x28>
    5742: f6           	clrw ax
    5743: b1           	decw ax
    5744: ef 62        	br $0x57a8 <___submore+0x8a>
    5746: a8 00        	movw ax, [sp+0]
    5748: 16           	movw hl, ax
    5749: 32 03 00     	movw bc, #3
    574c: 30 00 04     	movw ax, #1024
    574f: bc 1c        	movw [hl+28], ax
    5751: 15           	movw ax, de
    5752: bc 1a        	movw [hl+26], ax
    5754: 04 fd 03     	addw ax, #1021
    5757: b8 02        	movw [sp+2], ax
    5759: 13           	movw ax, bc
    575a: 44 00 00     	cmpw ax, #0
    575d: dd 10        	bz $0x576f <___submore+0x51>
    575f: b3           	decw bc
    5760: a8 02        	movw ax, [sp+2]
    5762: 03           	addw ax, bc
    5763: 16           	movw hl, ax
    5764: a8 00        	movw ax, [sp+0]
    5766: 03           	addw ax, bc
    5767: 14           	movw de, ax
    5768: 8a 22        	mov a, [de+34]
    576a: c7           	push hl
    576b: c4           	pop de
    576c: 99           	mov [de], a
    576d: ef ea        	br $0x5759 <___submore+0x3b>
    576f: a8 02        	movw ax, [sp+2]
    5771: 37           	xchw ax, hl
    5772: a8 00        	movw ax, [sp+0]
    5774: 37           	xchw ax, hl
    5775: ef 2f        	br $0x57a6 <___submore+0x88>
    5777: ac 1c        	movw ax, [hl+28]
    5779: b8 06        	movw [sp+6], ax
    577b: 01           	addw ax, ax
    577c: b8 04        	movw [sp+4], ax
    577e: 14           	movw de, ax
    577f: a8 02        	movw ax, [sp+2]
    5781: fd ab 57     	call !0x57ab <__realloc_r>
    5784: 12           	movw bc, ax
    5785: 44 00 00     	cmpw ax, #0
    5788: dd b8        	bz $0x5742 <___submore+0x24>
    578a: a8 06        	movw ax, [sp+6]
    578c: 14           	movw de, ax
    578d: 13           	movw ax, bc
    578e: 05           	addw ax, de
    578f: b8 02        	movw [sp+2], ax
    5791: 33           	xchw ax, bc
    5792: b8 08        	movw [sp+8], ax
    5794: 33           	xchw ax, bc
    5795: fd 55 06     	call !0x655 <_memcpy>
    5798: a8 04        	movw ax, [sp+4]
    579a: 37           	xchw ax, hl
    579b: a8 00        	movw ax, [sp+0]
    579d: 37           	xchw ax, hl
    579e: bc 1c        	movw [hl+28], ax
    57a0: a8 08        	movw ax, [sp+8]
    57a2: bc 1a        	movw [hl+26], ax
    57a4: a8 02        	movw ax, [sp+2]
    57a6: bb           	movw [hl], ax
    57a7: f6           	clrw ax
    57a8: 10 0a        	addw sp, #10
    57aa: d7           	ret

000057ab <__realloc_r>:
    57ab: 20 16        	subw sp, #22
    57ad: 16           	movw hl, ax
    57ae: 13           	movw ax, bc
    57af: 44 00 00     	cmpw ax, #0
    57b2: 61 f8        	sknz
    57b4: ee 38 04     	br $!0x5bef <__realloc_r+0x444>
    57b7: 13           	movw ax, bc
    57b8: b8 04        	movw [sp+4], ax
    57ba: 37           	xchw ax, hl
    57bb: b8 00        	movw [sp+0], ax
    57bd: 37           	xchw ax, hl
    57be: 15           	movw ax, de
    57bf: b8 02        	movw [sp+2], ax
    57c1: 17           	movw ax, hl
    57c2: fd 03 3e     	call !0x3e03 <___malloc_lock>
    57c5: a8 02        	movw ax, [sp+2]
    57c7: 16           	movw hl, ax
    57c8: 17           	movw ax, hl
    57c9: 04 09 00     	addw ax, #9
    57cc: 14           	movw de, ax
    57cd: 08           	xch a, x
    57ce: 5c f8        	and a, #248
    57d0: 08           	xch a, x
    57d1: 12           	movw bc, ax
    57d2: 15           	movw ax, de
    57d3: 44 0f 00     	cmpw ax, #15
    57d6: 34 08 00     	movw de, #8
    57d9: dc 02        	bc $0x57dd <__realloc_r+0x32>
    57db: c3           	push bc
    57dc: c4           	pop de
    57dd: 65           	mov a, d
    57de: 31 73 04     	bt a.7, $0x57e5 <__realloc_r+0x3a>
    57e1: 15           	movw ax, de
    57e2: 47           	cmpw ax, hl
    57e3: de 0b        	bnc $0x57f0 <__realloc_r+0x45>
    57e5: a8 00        	movw ax, [sp+0]
    57e7: 14           	movw de, ax
    57e8: 30 0c 00     	movw ax, #12
    57eb: b9           	movw [de], ax
    57ec: f6           	clrw ax
    57ed: ee fc 03     	br $!0x5bec <__realloc_r+0x441>
    57f0: a8 04        	movw ax, [sp+4]
    57f2: 12           	movw bc, ax
    57f3: 13           	movw ax, bc
    57f4: 04 fc ff     	addw ax, #65532
    57f7: b8 08        	movw [sp+8], ax
    57f9: 13           	movw ax, bc
    57fa: b1           	decw ax
    57fb: b1           	decw ax
    57fc: 16           	movw hl, ax
    57fd: ab           	movw ax, [hl]
    57fe: c1           	push ax
    57ff: 60           	mov a, x
    5800: 72           	mov c, a
    5801: c0           	pop ax
    5802: 33           	xchw ax, bc
    5803: b8 0e        	movw [sp+14], ax
    5805: 33           	xchw ax, bc
    5806: 08           	xch a, x
    5807: 5c fc        	and a, #252
    5809: 08           	xch a, x
    580a: 12           	movw bc, ax
    580b: 33           	xchw ax, bc
    580c: b8 0a        	movw [sp+10], ax
    580e: 33           	xchw ax, bc
    580f: 45           	cmpw ax, de
    5810: a8 08        	movw ax, [sp+8]
    5812: 16           	movw hl, ax
    5813: b8 06        	movw [sp+6], ax
    5815: 61 c8        	skc
    5817: ee 6c 02     	br $!0x5a86 <__realloc_r+0x2db>
    581a: 15           	movw ax, de
    581b: b8 0c        	movw [sp+12], ax
    581d: 17           	movw ax, hl
    581e: fb 86 f0     	movw hl, !0xff086               ; 0xff086 <___malloc_av_+0x4>
    5821: 03           	addw ax, bc
    5822: 14           	movw de, ax
    5823: 37           	xchw ax, hl
    5824: b8 14        	movw [sp+20], ax
    5826: 37           	xchw ax, hl
    5827: 47           	cmpw ax, hl
    5828: 33           	xchw ax, bc
    5829: b8 10        	movw [sp+16], ax
    582b: 33           	xchw ax, bc
    582c: c5           	push de
    582d: c6           	pop hl
    582e: dd 40        	bz $0x5870 <__realloc_r+0xc5>
    5830: f7           	clrw bc
    5831: ac 02        	movw ax, [hl+2]
    5833: b8 06        	movw [sp+6], ax
    5835: 33           	xchw ax, bc
    5836: b8 12        	movw [sp+18], ax
    5838: 33           	xchw ax, bc
    5839: 08           	xch a, x
    583a: 5c fe        	and a, #254
    583c: 08           	xch a, x
    583d: 05           	addw ax, de
    583e: a1           	incw ax
    583f: a1           	incw ax
    5840: 16           	movw hl, ax
    5841: 71 84        	mov1 cy, [hl].0
    5843: 61 d8        	sknc
    5845: ee 6b 00     	br $!0x58b3 <__realloc_r+0x108>
    5848: a8 06        	movw ax, [sp+6]
    584a: 08           	xch a, x
    584b: 5c fc        	and a, #252
    584d: 08           	xch a, x
    584e: b8 12        	movw [sp+18], ax
    5850: 33           	xchw ax, bc
    5851: a8 10        	movw ax, [sp+16]
    5853: 33           	xchw ax, bc
    5854: 03           	addw ax, bc
    5855: b8 0a        	movw [sp+10], ax
    5857: 37           	xchw ax, hl
    5858: a8 0c        	movw ax, [sp+12]
    585a: 37           	xchw ax, hl
    585b: 47           	cmpw ax, hl
    585c: c5           	push de
    585d: c2           	pop bc
    585e: dc 53        	bc $0x58b3 <__realloc_r+0x108>
    5860: c5           	push de
    5861: c6           	pop hl
    5862: fd 25 5c     	call !0x5c25 <_OUTLINED_FUNCTION_4>
    5865: c3           	push bc
    5866: c6           	pop hl
    5867: bc 04        	movw [hl+4], ax
    5869: a8 08        	movw ax, [sp+8]
    586b: b8 06        	movw [sp+6], ax
    586d: ee 13 02     	br $!0x5a83 <__realloc_r+0x2d8>
    5870: ac 02        	movw ax, [hl+2]
    5872: 08           	xch a, x
    5873: 5c fc        	and a, #252
    5875: 08           	xch a, x
    5876: b8 12        	movw [sp+18], ax
    5878: 03           	addw ax, bc
    5879: 12           	movw bc, ax
    587a: a8 0c        	movw ax, [sp+12]
    587c: 33           	xchw ax, bc
    587d: b8 06        	movw [sp+6], ax
    587f: 33           	xchw ax, bc
    5880: 04 08 00     	addw ax, #8
    5883: 16           	movw hl, ax
    5884: 13           	movw ax, bc
    5885: 47           	cmpw ax, hl
    5886: c5           	push de
    5887: c2           	pop bc
    5888: dc 29        	bc $0x58b3 <__realloc_r+0x108>
    588a: a8 08        	movw ax, [sp+8]
    588c: 35           	xchw ax, de
    588d: a8 0c        	movw ax, [sp+12]
    588f: 35           	xchw ax, de
    5890: 05           	addw ax, de
    5891: 12           	movw bc, ax
    5892: a8 06        	movw ax, [sp+6]
    5894: 25           	subw ax, de
    5895: 08           	xch a, x
    5896: 6c 01        	or a, #1
    5898: 08           	xch a, x
    5899: c3           	push bc
    589a: c6           	pop hl
    589b: bc 02        	movw [hl+2], ax
    589d: a8 04        	movw ax, [sp+4]
    589f: b1           	decw ax
    58a0: b1           	decw ax
    58a1: 16           	movw hl, ax
    58a2: ab           	movw ax, [hl]
    58a3: fd 19 5c     	call !0x5c19 <_OUTLINED_FUNCTION_3>
    58a6: bb           	movw [hl], ax
    58a7: 13           	movw ax, bc
    58a8: bf 86 f0     	movw !0xff086, ax               ; 0xff086 <___malloc_av_+0x4>
    58ab: fd 72 5c     	call !0x5c72 <_OUTLINED_FUNCTION_13>
    58ae: a8 04        	movw ax, [sp+4]
    58b0: ee 39 03     	br $!0x5bec <__realloc_r+0x441>
    58b3: a8 0e        	movw ax, [sp+14]
    58b5: 60           	mov a, x
    58b6: 71 8c        	mov1 cy, a.0
    58b8: 61 d8        	sknc
    58ba: ee 22 02     	br $!0x5adf <__realloc_r+0x334>
    58bd: a8 08        	movw ax, [sp+8]
    58bf: 16           	movw hl, ax
    58c0: 61 29 00     	subw ax, [hl]
    58c3: b8 06        	movw [sp+6], ax
    58c5: 16           	movw hl, ax
    58c6: ac 02        	movw ax, [hl+2]
    58c8: 08           	xch a, x
    58c9: 5c fc        	and a, #252
    58cb: 08           	xch a, x
    58cc: 16           	movw hl, ax
    58cd: 13           	movw ax, bc
    58ce: 44 00 00     	cmpw ax, #0
    58d1: a8 0c        	movw ax, [sp+12]
    58d3: 35           	xchw ax, de
    58d4: a8 10        	movw ax, [sp+16]
    58d6: 35           	xchw ax, de
    58d7: 61 f8        	sknz
    58d9: ee ec 01     	br $!0x5ac8 <__realloc_r+0x31d>
    58dc: 33           	xchw ax, bc
    58dd: b8 0e        	movw [sp+14], ax
    58df: 33           	xchw ax, bc
    58e0: 13           	movw ax, bc
    58e1: 33           	xchw ax, bc
    58e2: a8 14        	movw ax, [sp+20]
    58e4: 33           	xchw ax, bc
    58e5: 43           	cmpw ax, bc
    58e6: 61 e8        	skz
    58e8: ee dd 00     	br $!0x59c8 <__realloc_r+0x21d>
    58eb: a8 12        	movw ax, [sp+18]
    58ed: 05           	addw ax, de
    58ee: 07           	addw ax, hl
    58ef: b8 0a        	movw [sp+10], ax
    58f1: a8 0c        	movw ax, [sp+12]
    58f3: 04 08 00     	addw ax, #8
    58f6: 12           	movw bc, ax
    58f7: a8 0a        	movw ax, [sp+10]
    58f9: 43           	cmpw ax, bc
    58fa: a8 0c        	movw ax, [sp+12]
    58fc: 61 d8        	sknc
    58fe: ee c7 01     	br $!0x5ac8 <__realloc_r+0x31d>
    5901: a8 06        	movw ax, [sp+6]
    5903: 12           	movw bc, ax
    5904: c3           	push bc
    5905: c6           	pop hl
    5906: ac 06        	movw ax, [hl+6]
    5908: 14           	movw de, ax
    5909: ac 04        	movw ax, [hl+4]
    590b: 16           	movw hl, ax
    590c: 15           	movw ax, de
    590d: bc 06        	movw [hl+6], ax
    590f: 17           	movw ax, hl
    5910: c5           	push de
    5911: c6           	pop hl
    5912: bc 04        	movw [hl+4], ax
    5914: 13           	movw ax, bc
    5915: 04 04 00     	addw ax, #4
    5918: 16           	movw hl, ax
    5919: a8 10        	movw ax, [sp+16]
    591b: 37           	xchw ax, hl
    591c: b8 02        	movw [sp+2], ax
    591e: 37           	xchw ax, hl
    591f: fd 30 5c     	call !0x5c30 <_OUTLINED_FUNCTION_5>
    5922: 61 f3        	sknh
    5924: ee 76 00     	br $!0x599d <__realloc_r+0x1f2>
    5927: a8 04        	movw ax, [sp+4]
    5929: 12           	movw bc, ax
    592a: 15           	movw ax, de
    592b: 44 0a 00     	cmpw ax, #10
    592e: dc 53        	bc $0x5983 <__realloc_r+0x1d8>
    5930: fd 4b 5c     	call !0x5c4b <_OUTLINED_FUNCTION_8>
    5933: c3           	push bc
    5934: c6           	pop hl
    5935: bc 04        	movw [hl+4], ax
    5937: fd 6c 5c     	call !0x5c6c <_OUTLINED_FUNCTION_12>
    593a: c3           	push bc
    593b: c6           	pop hl
    593c: bc 06        	movw [hl+6], ax
    593e: 13           	movw ax, bc
    593f: 04 08 00     	addw ax, #8
    5942: 16           	movw hl, ax
    5943: a8 04        	movw ax, [sp+4]
    5945: fd 07 5c     	call !0x5c07 <_OUTLINED_FUNCTION_1>
    5948: dc 39        	bc $0x5983 <__realloc_r+0x1d8>
    594a: fd 41 5c     	call !0x5c41 <_OUTLINED_FUNCTION_7>
    594d: c3           	push bc
    594e: c6           	pop hl
    594f: fd 54 5c     	call !0x5c54 <_OUTLINED_FUNCTION_9>
    5952: c3           	push bc
    5953: c6           	pop hl
    5954: bc 0a        	movw [hl+10], ax
    5956: 13           	movw ax, bc
    5957: 04 0c 00     	addw ax, #12
    595a: 16           	movw hl, ax
    595b: a8 04        	movw ax, [sp+4]
    595d: fd 10 5c     	call !0x5c10 <_OUTLINED_FUNCTION_2>
    5960: dc 21        	bc $0x5983 <__realloc_r+0x1d8>
    5962: a8 04        	movw ax, [sp+4]
    5964: 14           	movw de, ax
    5965: c5           	push de
    5966: c6           	pop hl
    5967: ac 08        	movw ax, [hl+8]
    5969: 33           	xchw ax, bc
    596a: a8 06        	movw ax, [sp+6]
    596c: 33           	xchw ax, bc
    596d: c3           	push bc
    596e: c6           	pop hl
    596f: bc 0c        	movw [hl+12], ax
    5971: c5           	push de
    5972: c6           	pop hl
    5973: ac 0a        	movw ax, [hl+10]
    5975: c3           	push bc
    5976: c6           	pop hl
    5977: bc 0e        	movw [hl+14], ax
    5979: 13           	movw ax, bc
    597a: 04 10 00     	addw ax, #16
    597d: 16           	movw hl, ax
    597e: 15           	movw ax, de
    597f: 04 0c 00     	addw ax, #12
    5982: 12           	movw bc, ax
    5983: c7           	push hl
    5984: c4           	pop de
    5985: c3           	push bc
    5986: c6           	pop hl
    5987: ab           	movw ax, [hl]
    5988: c5           	push de
    5989: c6           	pop hl
    598a: bb           	movw [hl], ax
    598b: c3           	push bc
    598c: c6           	pop hl
    598d: ac 02        	movw ax, [hl+2]
    598f: c5           	push de
    5990: c6           	pop hl
    5991: bc 02        	movw [hl+2], ax
    5993: c3           	push bc
    5994: c6           	pop hl
    5995: ac 04        	movw ax, [hl+4]
    5997: c5           	push de
    5998: c6           	pop hl
    5999: bc 04        	movw [hl+4], ax
    599b: ef 03        	br $0x59a0 <__realloc_r+0x1f5>
    599d: fd 64 5c     	call !0x5c64 <_OUTLINED_FUNCTION_11>
    59a0: a8 0a        	movw ax, [sp+10]
    59a2: 33           	xchw ax, bc
    59a3: a8 0c        	movw ax, [sp+12]
    59a5: 33           	xchw ax, bc
    59a6: 23           	subw ax, bc
    59a7: 08           	xch a, x
    59a8: 6c 01        	or a, #1
    59aa: 08           	xch a, x
    59ab: b8 08        	movw [sp+8], ax
    59ad: a8 06        	movw ax, [sp+6]
    59af: 14           	movw de, ax
    59b0: 15           	movw ax, de
    59b1: 03           	addw ax, bc
    59b2: 16           	movw hl, ax
    59b3: 37           	xchw ax, hl
    59b4: b8 04        	movw [sp+4], ax
    59b6: 37           	xchw ax, hl
    59b7: a8 08        	movw ax, [sp+8]
    59b9: bc 02        	movw [hl+2], ax
    59bb: c5           	push de
    59bc: c6           	pop hl
    59bd: fd f7 5b     	call !0x5bf7 <_OUTLINED_FUNCTION_0>
    59c0: a8 04        	movw ax, [sp+4]
    59c2: bf 86 f0     	movw !0xff086, ax               ; 0xff086 <___malloc_av_+0x4>
    59c5: ee 06 02     	br $!0x5bce <__realloc_r+0x423>
    59c8: a8 12        	movw ax, [sp+18]
    59ca: 05           	addw ax, de
    59cb: 07           	addw ax, hl
    59cc: b8 0a        	movw [sp+10], ax
    59ce: 33           	xchw ax, bc
    59cf: a8 0c        	movw ax, [sp+12]
    59d1: 33           	xchw ax, bc
    59d2: 43           	cmpw ax, bc
    59d3: 13           	movw ax, bc
    59d4: 33           	xchw ax, bc
    59d5: a8 0e        	movw ax, [sp+14]
    59d7: 33           	xchw ax, bc
    59d8: 61 d8        	sknc
    59da: ee eb 00     	br $!0x5ac8 <__realloc_r+0x31d>
    59dd: c3           	push bc
    59de: c6           	pop hl
    59df: ac 04        	movw ax, [hl+4]
    59e1: 12           	movw bc, ax
    59e2: fd 5c 5c     	call !0x5c5c <_OUTLINED_FUNCTION_10>
    59e5: c3           	push bc
    59e6: c6           	pop hl
    59e7: bc 06        	movw [hl+6], ax
    59e9: a8 06        	movw ax, [sp+6]
    59eb: 14           	movw de, ax
    59ec: c5           	push de
    59ed: c6           	pop hl
    59ee: ac 04        	movw ax, [hl+4]
    59f0: 12           	movw bc, ax
    59f1: c5           	push de
    59f2: c6           	pop hl
    59f3: fd 5c 5c     	call !0x5c5c <_OUTLINED_FUNCTION_10>
    59f6: c3           	push bc
    59f7: c6           	pop hl
    59f8: bc 06        	movw [hl+6], ax
    59fa: 15           	movw ax, de
    59fb: 04 04 00     	addw ax, #4
    59fe: 16           	movw hl, ax
    59ff: a8 10        	movw ax, [sp+16]
    5a01: fd 30 5c     	call !0x5c30 <_OUTLINED_FUNCTION_5>
    5a04: 61 f3        	sknh
    5a06: ee 77 00     	br $!0x5a80 <__realloc_r+0x2d5>
    5a09: 17           	movw ax, hl
    5a0a: b8 02        	movw [sp+2], ax
    5a0c: 15           	movw ax, de
    5a0d: 44 0a 00     	cmpw ax, #10
    5a10: a8 04        	movw ax, [sp+4]
    5a12: 12           	movw bc, ax
    5a13: dc 4f        	bc $0x5a64 <__realloc_r+0x2b9>
    5a15: fd 4b 5c     	call !0x5c4b <_OUTLINED_FUNCTION_8>
    5a18: c3           	push bc
    5a19: c6           	pop hl
    5a1a: bc 04        	movw [hl+4], ax
    5a1c: fd 6c 5c     	call !0x5c6c <_OUTLINED_FUNCTION_12>
    5a1f: c3           	push bc
    5a20: c6           	pop hl
    5a21: bc 06        	movw [hl+6], ax
    5a23: 13           	movw ax, bc
    5a24: 04 08 00     	addw ax, #8
    5a27: b8 02        	movw [sp+2], ax
    5a29: a8 04        	movw ax, [sp+4]
    5a2b: fd 07 5c     	call !0x5c07 <_OUTLINED_FUNCTION_1>
    5a2e: dc 34        	bc $0x5a64 <__realloc_r+0x2b9>
    5a30: fd 41 5c     	call !0x5c41 <_OUTLINED_FUNCTION_7>
    5a33: c3           	push bc
    5a34: c6           	pop hl
    5a35: fd 54 5c     	call !0x5c54 <_OUTLINED_FUNCTION_9>
    5a38: c3           	push bc
    5a39: c6           	pop hl
    5a3a: fd 37 5c     	call !0x5c37 <_OUTLINED_FUNCTION_6>
    5a3d: b8 02        	movw [sp+2], ax
    5a3f: 17           	movw ax, hl
    5a40: fd 10 5c     	call !0x5c10 <_OUTLINED_FUNCTION_2>
    5a43: dc 1f        	bc $0x5a64 <__realloc_r+0x2b9>
    5a45: c7           	push hl
    5a46: c4           	pop de
    5a47: ac 08        	movw ax, [hl+8]
    5a49: 33           	xchw ax, bc
    5a4a: a8 06        	movw ax, [sp+6]
    5a4c: 33           	xchw ax, bc
    5a4d: c3           	push bc
    5a4e: c6           	pop hl
    5a4f: bc 0c        	movw [hl+12], ax
    5a51: c5           	push de
    5a52: c6           	pop hl
    5a53: ac 0a        	movw ax, [hl+10]
    5a55: c3           	push bc
    5a56: c6           	pop hl
    5a57: bc 0e        	movw [hl+14], ax
    5a59: 13           	movw ax, bc
    5a5a: 04 10 00     	addw ax, #16
    5a5d: b8 02        	movw [sp+2], ax
    5a5f: 15           	movw ax, de
    5a60: 04 0c 00     	addw ax, #12
    5a63: 12           	movw bc, ax
    5a64: c3           	push bc
    5a65: c6           	pop hl
    5a66: ab           	movw ax, [hl]
    5a67: 35           	xchw ax, de
    5a68: a8 02        	movw ax, [sp+2]
    5a6a: 35           	xchw ax, de
    5a6b: c5           	push de
    5a6c: c6           	pop hl
    5a6d: bb           	movw [hl], ax
    5a6e: c3           	push bc
    5a6f: c6           	pop hl
    5a70: ac 02        	movw ax, [hl+2]
    5a72: c5           	push de
    5a73: c6           	pop hl
    5a74: bc 02        	movw [hl+2], ax
    5a76: c3           	push bc
    5a77: c6           	pop hl
    5a78: ac 04        	movw ax, [hl+4]
    5a7a: c5           	push de
    5a7b: c6           	pop hl
    5a7c: bc 04        	movw [hl+4], ax
    5a7e: ef 03        	br $0x5a83 <__realloc_r+0x2d8>
    5a80: fd 64 5c     	call !0x5c64 <_OUTLINED_FUNCTION_11>
    5a83: a8 0c        	movw ax, [sp+12]
    5a85: 14           	movw de, ax
    5a86: a8 0a        	movw ax, [sp+10]
    5a88: 12           	movw bc, ax
    5a89: 13           	movw ax, bc
    5a8a: 25           	subw ax, de
    5a8b: 44 08 00     	cmpw ax, #8
    5a8e: b8 02        	movw [sp+2], ax
    5a90: 61 d8        	sknc
    5a92: ee 40 01     	br $!0x5bd5 <__realloc_r+0x42a>
    5a95: a8 06        	movw ax, [sp+6]
    5a97: 12           	movw bc, ax
    5a98: c3           	push bc
    5a99: c6           	pop hl
    5a9a: ac 02        	movw ax, [hl+2]
    5a9c: fd 19 5c     	call !0x5c19 <_OUTLINED_FUNCTION_3>
    5a9f: bc 02        	movw [hl+2], ax
    5aa1: 13           	movw ax, bc
    5aa2: 05           	addw ax, de
    5aa3: 14           	movw de, ax
    5aa4: a8 02        	movw ax, [sp+2]
    5aa6: 08           	xch a, x
    5aa7: 6c 01        	or a, #1
    5aa9: 08           	xch a, x
    5aaa: c5           	push de
    5aab: c6           	pop hl
    5aac: bc 02        	movw [hl+2], ax
    5aae: 13           	movw ax, bc
    5aaf: 33           	xchw ax, bc
    5ab0: a8 0a        	movw ax, [sp+10]
    5ab2: 33           	xchw ax, bc
    5ab3: 03           	addw ax, bc
    5ab4: a1           	incw ax
    5ab5: a1           	incw ax
    5ab6: 16           	movw hl, ax
    5ab7: 71 82        	set1 [hl].0
    5ab9: 15           	movw ax, de
    5aba: 04 04 00     	addw ax, #4
    5abd: 12           	movw bc, ax
    5abe: a8 00        	movw ax, [sp+0]
    5ac0: fd 3a 3e     	call !0x3e3a <__free_r>
    5ac3: a8 00        	movw ax, [sp+0]
    5ac5: ee 1c 01     	br $!0x5be4 <__realloc_r+0x439>
    5ac8: 12           	movw bc, ax
    5ac9: 17           	movw ax, hl
    5aca: 05           	addw ax, de
    5acb: 43           	cmpw ax, bc
    5acc: b8 0a        	movw [sp+10], ax
    5ace: dc 0f        	bc $0x5adf <__realloc_r+0x334>
    5ad0: a8 06        	movw ax, [sp+6]
    5ad2: 14           	movw de, ax
    5ad3: c5           	push de
    5ad4: c6           	pop hl
    5ad5: fd 25 5c     	call !0x5c25 <_OUTLINED_FUNCTION_4>
    5ad8: c3           	push bc
    5ad9: c6           	pop hl
    5ada: bc 04        	movw [hl+4], ax
    5adc: ee 1b ff     	br $!0x59fa <__realloc_r+0x24f>
    5adf: a8 02        	movw ax, [sp+2]
    5ae1: 12           	movw bc, ax
    5ae2: a8 00        	movw ax, [sp+0]
    5ae4: fd 92 37     	call !0x3792 <__malloc_r>
    5ae7: 14           	movw de, ax
    5ae8: 44 00 00     	cmpw ax, #0
    5aeb: df 06        	bnz $0x5af3 <__realloc_r+0x348>
    5aed: fd 72 5c     	call !0x5c72 <_OUTLINED_FUNCTION_13>
    5af0: ee f9 fc     	br $!0x57ec <__realloc_r+0x41>
    5af3: a8 04        	movw ax, [sp+4]
    5af5: b1           	decw ax
    5af6: b1           	decw ax
    5af7: 16           	movw hl, ax
    5af8: ab           	movw ax, [hl]
    5af9: 37           	xchw ax, hl
    5afa: a8 08        	movw ax, [sp+8]
    5afc: 37           	xchw ax, hl
    5afd: 08           	xch a, x
    5afe: 5c fe        	and a, #254
    5b00: 08           	xch a, x
    5b01: 07           	addw ax, hl
    5b02: 12           	movw bc, ax
    5b03: 15           	movw ax, de
    5b04: 04 fc ff     	addw ax, #65532
    5b07: 43           	cmpw ax, bc
    5b08: df 18        	bnz $0x5b22 <__realloc_r+0x377>
    5b0a: 15           	movw ax, de
    5b0b: b1           	decw ax
    5b0c: b1           	decw ax
    5b0d: c7           	push hl
    5b0e: c4           	pop de
    5b0f: 16           	movw hl, ax
    5b10: ab           	movw ax, [hl]
    5b11: 33           	xchw ax, bc
    5b12: a8 10        	movw ax, [sp+16]
    5b14: 33           	xchw ax, bc
    5b15: 08           	xch a, x
    5b16: 5c fc        	and a, #252
    5b18: 08           	xch a, x
    5b19: 03           	addw ax, bc
    5b1a: b8 0a        	movw [sp+10], ax
    5b1c: 15           	movw ax, de
    5b1d: b8 06        	movw [sp+6], ax
    5b1f: ee 61 ff     	br $!0x5a83 <__realloc_r+0x2d8>
    5b22: 15           	movw ax, de
    5b23: b8 02        	movw [sp+2], ax
    5b25: a8 10        	movw ax, [sp+16]
    5b27: fd 30 5c     	call !0x5c30 <_OUTLINED_FUNCTION_5>
    5b2a: 61 f3        	sknh
    5b2c: ee 8f 00     	br $!0x5bbe <__realloc_r+0x413>
    5b2f: a8 04        	movw ax, [sp+4]
    5b31: 16           	movw hl, ax
    5b32: 15           	movw ax, de
    5b33: 44 0a 00     	cmpw ax, #10
    5b36: c7           	push hl
    5b37: c2           	pop bc
    5b38: a8 02        	movw ax, [sp+2]
    5b3a: b8 06        	movw [sp+6], ax
    5b3c: dc 64        	bc $0x5ba2 <__realloc_r+0x3f7>
    5b3e: a8 04        	movw ax, [sp+4]
    5b40: 16           	movw hl, ax
    5b41: ab           	movw ax, [hl]
    5b42: 33           	xchw ax, bc
    5b43: a8 02        	movw ax, [sp+2]
    5b45: 33           	xchw ax, bc
    5b46: c3           	push bc
    5b47: c6           	pop hl
    5b48: bb           	movw [hl], ax
    5b49: fd 6c 5c     	call !0x5c6c <_OUTLINED_FUNCTION_12>
    5b4c: c3           	push bc
    5b4d: c6           	pop hl
    5b4e: bc 02        	movw [hl+2], ax
    5b50: a8 04        	movw ax, [sp+4]
    5b52: 16           	movw hl, ax
    5b53: 13           	movw ax, bc
    5b54: 04 04 00     	addw ax, #4
    5b57: b8 06        	movw [sp+6], ax
    5b59: 17           	movw ax, hl
    5b5a: fd 07 5c     	call !0x5c07 <_OUTLINED_FUNCTION_1>
    5b5d: dc 43        	bc $0x5ba2 <__realloc_r+0x3f7>
    5b5f: a8 04        	movw ax, [sp+4]
    5b61: 16           	movw hl, ax
    5b62: ac 04        	movw ax, [hl+4]
    5b64: 33           	xchw ax, bc
    5b65: a8 02        	movw ax, [sp+2]
    5b67: 33           	xchw ax, bc
    5b68: c3           	push bc
    5b69: c6           	pop hl
    5b6a: bc 04        	movw [hl+4], ax
    5b6c: a8 04        	movw ax, [sp+4]
    5b6e: 16           	movw hl, ax
    5b6f: ac 06        	movw ax, [hl+6]
    5b71: c3           	push bc
    5b72: c6           	pop hl
    5b73: bc 06        	movw [hl+6], ax
    5b75: a8 04        	movw ax, [sp+4]
    5b77: 16           	movw hl, ax
    5b78: 13           	movw ax, bc
    5b79: 04 08 00     	addw ax, #8
    5b7c: b8 06        	movw [sp+6], ax
    5b7e: 17           	movw ax, hl
    5b7f: fd 10 5c     	call !0x5c10 <_OUTLINED_FUNCTION_2>
    5b82: dc 1e        	bc $0x5ba2 <__realloc_r+0x3f7>
    5b84: a8 04        	movw ax, [sp+4]
    5b86: 16           	movw hl, ax
    5b87: ac 08        	movw ax, [hl+8]
    5b89: 33           	xchw ax, bc
    5b8a: a8 02        	movw ax, [sp+2]
    5b8c: 33           	xchw ax, bc
    5b8d: c3           	push bc
    5b8e: c6           	pop hl
    5b8f: bc 08        	movw [hl+8], ax
    5b91: a8 04        	movw ax, [sp+4]
    5b93: 16           	movw hl, ax
    5b94: ac 0a        	movw ax, [hl+10]
    5b96: c3           	push bc
    5b97: c6           	pop hl
    5b98: fd 37 5c     	call !0x5c37 <_OUTLINED_FUNCTION_6>
    5b9b: b8 06        	movw [sp+6], ax
    5b9d: 17           	movw ax, hl
    5b9e: 04 0c 00     	addw ax, #12
    5ba1: 12           	movw bc, ax
    5ba2: c3           	push bc
    5ba3: c6           	pop hl
    5ba4: ab           	movw ax, [hl]
    5ba5: 35           	xchw ax, de
    5ba6: a8 06        	movw ax, [sp+6]
    5ba8: 35           	xchw ax, de
    5ba9: c5           	push de
    5baa: c6           	pop hl
    5bab: bb           	movw [hl], ax
    5bac: c3           	push bc
    5bad: c6           	pop hl
    5bae: ac 02        	movw ax, [hl+2]
    5bb0: c5           	push de
    5bb1: c6           	pop hl
    5bb2: bc 02        	movw [hl+2], ax
    5bb4: c3           	push bc
    5bb5: c6           	pop hl
    5bb6: ac 04        	movw ax, [hl+4]
    5bb8: c5           	push de
    5bb9: c6           	pop hl
    5bba: bc 04        	movw [hl+4], ax
    5bbc: ef 08        	br $0x5bc6 <__realloc_r+0x41b>
    5bbe: a8 04        	movw ax, [sp+4]
    5bc0: 12           	movw bc, ax
    5bc1: a8 02        	movw ax, [sp+2]
    5bc3: fd 65 06     	call !0x665 <_memmove>
    5bc6: a8 04        	movw ax, [sp+4]
    5bc8: 12           	movw bc, ax
    5bc9: a8 00        	movw ax, [sp+0]
    5bcb: fd 3a 3e     	call !0x3e3a <__free_r>
    5bce: fd 72 5c     	call !0x5c72 <_OUTLINED_FUNCTION_13>
    5bd1: a8 02        	movw ax, [sp+2]
    5bd3: ef 17        	br $0x5bec <__realloc_r+0x441>
    5bd5: a8 06        	movw ax, [sp+6]
    5bd7: 16           	movw hl, ax
    5bd8: fd f7 5b     	call !0x5bf7 <_OUTLINED_FUNCTION_0>
    5bdb: 17           	movw ax, hl
    5bdc: 03           	addw ax, bc
    5bdd: a1           	incw ax
    5bde: a1           	incw ax
    5bdf: 16           	movw hl, ax
    5be0: 71 82        	set1 [hl].0
    5be2: a8 00        	movw ax, [sp+0]
    5be4: fd 04 3e     	call !0x3e04 <___malloc_unlock>
    5be7: a8 06        	movw ax, [sp+6]
    5be9: 04 04 00     	addw ax, #4
    5bec: 10 16        	addw sp, #22
    5bee: d7           	ret
    5bef: c5           	push de
    5bf0: c2           	pop bc
    5bf1: 17           	movw ax, hl
    5bf2: 10 16        	addw sp, #22
    5bf4: ed 92 37     	br !0x3792 <__malloc_r>

00005bf7 <_OUTLINED_FUNCTION_0>:
    5bf7: ac 02        	movw ax, [hl+2]
    5bf9: 08           	xch a, x
    5bfa: 5c 01        	and a, #1
    5bfc: 08           	xch a, x
    5bfd: f1           	clrb a
    5bfe: 61 6b        	or a, b
    5c00: 08           	xch a, x
    5c01: 61 6a        	or a, c
    5c03: 08           	xch a, x
    5c04: bc 02        	movw [hl+2], ax
    5c06: d7           	ret

00005c07 <_OUTLINED_FUNCTION_1>:
    5c07: 04 04 00     	addw ax, #4
    5c0a: 12           	movw bc, ax
    5c0b: 15           	movw ax, de
    5c0c: 44 0e 00     	cmpw ax, #14
    5c0f: d7           	ret

00005c10 <_OUTLINED_FUNCTION_2>:
    5c10: 04 08 00     	addw ax, #8
    5c13: 12           	movw bc, ax
    5c14: 15           	movw ax, de
    5c15: 44 12 00     	cmpw ax, #18
    5c18: d7           	ret

00005c19 <_OUTLINED_FUNCTION_3>:
    5c19: 08           	xch a, x
    5c1a: 5c 01        	and a, #1
    5c1c: 08           	xch a, x
    5c1d: f1           	clrb a
    5c1e: 61 6d        	or a, d
    5c20: 08           	xch a, x
    5c21: 61 6c        	or a, e
    5c23: 08           	xch a, x
    5c24: d7           	ret

00005c25 <_OUTLINED_FUNCTION_4>:
    5c25: ac 06        	movw ax, [hl+6]
    5c27: 12           	movw bc, ax
    5c28: ac 04        	movw ax, [hl+4]
    5c2a: 16           	movw hl, ax
    5c2b: 13           	movw ax, bc
    5c2c: bc 06        	movw [hl+6], ax
    5c2e: 17           	movw ax, hl
    5c2f: d7           	ret

00005c30 <_OUTLINED_FUNCTION_5>:
    5c30: b1           	decw ax
    5c31: b1           	decw ax
    5c32: 14           	movw de, ax
    5c33: 44 12 00     	cmpw ax, #18
    5c36: d7           	ret

00005c37 <_OUTLINED_FUNCTION_6>:
    5c37: bc 0a        	movw [hl+10], ax
    5c39: a8 08        	movw ax, [sp+8]
    5c3b: 16           	movw hl, ax
    5c3c: 13           	movw ax, bc
    5c3d: 04 0c 00     	addw ax, #12
    5c40: d7           	ret

00005c41 <_OUTLINED_FUNCTION_7>:
    5c41: a8 08        	movw ax, [sp+8]
    5c43: 16           	movw hl, ax
    5c44: ac 04        	movw ax, [hl+4]
    5c46: 33           	xchw ax, bc
    5c47: a8 0a        	movw ax, [sp+10]
    5c49: 33           	xchw ax, bc
    5c4a: d7           	ret

00005c4b <_OUTLINED_FUNCTION_8>:
    5c4b: a8 08        	movw ax, [sp+8]
    5c4d: 16           	movw hl, ax
    5c4e: ab           	movw ax, [hl]
    5c4f: 33           	xchw ax, bc
    5c50: a8 0a        	movw ax, [sp+10]
    5c52: 33           	xchw ax, bc
    5c53: d7           	ret

00005c54 <_OUTLINED_FUNCTION_9>:
    5c54: bc 08        	movw [hl+8], ax
    5c56: a8 08        	movw ax, [sp+8]
    5c58: 16           	movw hl, ax
    5c59: ac 06        	movw ax, [hl+6]
    5c5b: d7           	ret

00005c5c <_OUTLINED_FUNCTION_10>:
    5c5c: ac 06        	movw ax, [hl+6]
    5c5e: 16           	movw hl, ax
    5c5f: 13           	movw ax, bc
    5c60: bc 04        	movw [hl+4], ax
    5c62: 17           	movw ax, hl
    5c63: d7           	ret

00005c64 <_OUTLINED_FUNCTION_11>:
    5c64: a8 08        	movw ax, [sp+8]
    5c66: 12           	movw bc, ax
    5c67: 17           	movw ax, hl
    5c68: fd 65 06     	call !0x665 <_memmove>
    5c6b: d7           	ret

00005c6c <_OUTLINED_FUNCTION_12>:
    5c6c: a8 08        	movw ax, [sp+8]
    5c6e: 16           	movw hl, ax
    5c6f: ac 02        	movw ax, [hl+2]
    5c71: d7           	ret

00005c72 <_OUTLINED_FUNCTION_13>:
    5c72: a8 04        	movw ax, [sp+4]
    5c74: fd 04 3e     	call !0x3e04 <___malloc_unlock>
    5c77: d7           	ret

00005c78 <___sccl>:
    5c78: 20 0c        	subw sp, #12
    5c7a: c3           	push bc
    5c7b: c6           	pop hl
    5c7c: 14           	movw de, ax
    5c7d: 8b           	mov a, [hl]
    5c7e: 70           	mov x, a
    5c7f: 4c 5e        	cmp a, #94
    5c81: dd 0b        	bz $0x5c8e <___sccl+0x16>
    5c83: a7           	incw hl
    5c84: b8 08        	movw [sp+8], ax
    5c86: c8 03 00     	mov [sp+3], #0
    5c89: 17           	movw ax, hl
    5c8a: b8 06        	movw [sp+6], ax
    5c8c: ef 0d        	br $0x5c9b <___sccl+0x23>
    5c8e: c8 03 01     	mov [sp+3], #1
    5c91: 8c 01        	mov a, [hl+1]
    5c93: 70           	mov x, a
    5c94: b8 08        	movw [sp+8], ax
    5c96: 17           	movw ax, hl
    5c97: a1           	incw ax
    5c98: a1           	incw ax
    5c99: b8 06        	movw [sp+6], ax
    5c9b: f7           	clrw bc
    5c9c: 13           	movw ax, bc
    5c9d: 44 00 01     	cmpw ax, #256
    5ca0: dd 09        	bz $0x5cab <___sccl+0x33>
    5ca2: 15           	movw ax, de
    5ca3: 03           	addw ax, bc
    5ca4: 16           	movw hl, ax
    5ca5: a3           	incw bc
    5ca6: 88 03        	mov a, [sp+3]
    5ca8: 9b           	mov [hl], a
    5ca9: ef f1        	br $0x5c9c <___sccl+0x24>
    5cab: a8 08        	movw ax, [sp+8]
    5cad: 60           	mov a, x
    5cae: d1           	cmp0 a
    5caf: c5           	push de
    5cb0: c6           	pop hl
    5cb1: 37           	xchw ax, hl
    5cb2: b8 0a        	movw [sp+10], ax
    5cb4: 37           	xchw ax, hl
    5cb5: df 2d        	bnz $0x5ce4 <___sccl+0x6c>
    5cb7: a8 06        	movw ax, [sp+6]
    5cb9: b1           	decw ax
    5cba: ee 6a 00     	br $!0x5d27 <___sccl+0xaf>
    5cbd: a8 04        	movw ax, [sp+4]
    5cbf: a1           	incw ax
    5cc0: a1           	incw ax
    5cc1: 14           	movw de, ax
    5cc2: c5           	push de
    5cc3: c6           	pop hl
    5cc4: 35           	xchw ax, de
    5cc5: b8 04        	movw [sp+4], ax
    5cc7: 35           	xchw ax, de
    5cc8: a7           	incw hl
    5cc9: 89           	mov a, [de]
    5cca: 37           	xchw ax, hl
    5ccb: b8 06        	movw [sp+6], ax
    5ccd: 37           	xchw ax, hl
    5cce: 70           	mov x, a
    5ccf: 4c 2d        	cmp a, #45
    5cd1: c1           	push ax
    5cd2: 60           	mov a, x
    5cd3: 74           	mov e, a
    5cd4: c0           	pop ax
    5cd5: 35           	xchw ax, de
    5cd6: b8 08        	movw [sp+8], ax
    5cd8: 35           	xchw ax, de
    5cd9: dd 27        	bz $0x5d02 <___sccl+0x8a>
    5cdb: 60           	mov a, x
    5cdc: d1           	cmp0 a
    5cdd: dd 46        	bz $0x5d25 <___sccl+0xad>
    5cdf: fd 39 5d     	call !0x5d39 <_OUTLINED_FUNCTION_1>
    5ce2: dd 45        	bz $0x5d29 <___sccl+0xb1>
    5ce4: 88 03        	mov a, [sp+3]
    5ce6: 7c 01        	xor a, #1
    5ce8: 72           	mov c, a
    5ce9: a8 08        	movw ax, [sp+8]
    5ceb: c1           	push ax
    5cec: 60           	mov a, x
    5ced: 73           	mov b, a
    5cee: c0           	pop ax
    5cef: 61 8a        	xch a, c
    5cf1: 98 02        	mov [sp+2], a
    5cf3: 61 8a        	xch a, c
    5cf5: 62           	mov a, c
    5cf6: 61 d9        	mov [hl+b], a
    5cf8: 37           	xchw ax, hl
    5cf9: a8 06        	movw ax, [sp+6]
    5cfb: 37           	xchw ax, hl
    5cfc: f1           	clrb a
    5cfd: c7           	push hl
    5cfe: c4           	pop de
    5cff: 12           	movw bc, ax
    5d00: ef c2        	br $0x5cc4 <___sccl+0x4c>
    5d02: 8b           	mov a, [hl]
    5d03: 31 8e        	shrw ax, 8
    5d05: b8 00        	movw [sp+0], ax
    5d07: fd 39 5d     	call !0x5d39 <_OUTLINED_FUNCTION_1>
    5d0a: dd d8        	bz $0x5ce4 <___sccl+0x6c>
    5d0c: fd 2e 5d     	call !0x5d2e <_OUTLINED_FUNCTION_0>
    5d0f: 61 c3 d2     	bh $0x5ce4 <___sccl+0x6c>
    5d12: a3           	incw bc
    5d13: 17           	movw ax, hl
    5d14: 03           	addw ax, bc
    5d15: c7           	push hl
    5d16: c4           	pop de
    5d17: 16           	movw hl, ax
    5d18: 88 02        	mov a, [sp+2]
    5d1a: 9b           	mov [hl], a
    5d1b: c5           	push de
    5d1c: c6           	pop hl
    5d1d: fd 2e 5d     	call !0x5d2e <_OUTLINED_FUNCTION_0>
    5d20: dc f0        	bc $0x5d12 <___sccl+0x9a>
    5d22: ee 98 ff     	br $!0x5cbd <___sccl+0x45>
    5d25: a8 04        	movw ax, [sp+4]
    5d27: b8 06        	movw [sp+6], ax
    5d29: a8 06        	movw ax, [sp+6]
    5d2b: 10 0c        	addw sp, #12
    5d2d: d7           	ret

00005d2e <_OUTLINED_FUNCTION_0>:
    5d2e: a8 04        	movw ax, [sp+4]
    5d30: 14           	movw de, ax
    5d31: 13           	movw ax, bc
    5d32: 45           	cmpw ax, de
    5d33: 71 ff        	xor1 cy, a.7
    5d35: 65           	mov a, d
    5d36: 71 ff        	xor1 cy, a.7
    5d38: d7           	ret

00005d39 <_OUTLINED_FUNCTION_1>:
    5d39: 37           	xchw ax, hl
    5d3a: a8 0e        	movw ax, [sp+14]
    5d3c: 37           	xchw ax, hl
    5d3d: 60           	mov a, x
    5d3e: 4c 5d        	cmp a, #93
    5d40: d7           	ret

00005d41 <__mbrtowc_r>:
    5d41: 20 0c        	subw sp, #12
    5d43: 33           	xchw ax, bc
    5d44: b8 06        	movw [sp+6], ax
    5d46: 33           	xchw ax, bc
    5d47: b8 04        	movw [sp+4], ax
    5d49: a8 12        	movw ax, [sp+18]
    5d4b: 16           	movw hl, ax
    5d4c: 37           	xchw ax, hl
    5d4d: b8 08        	movw [sp+8], ax
    5d4f: 37           	xchw ax, hl
    5d50: a8 10        	movw ax, [sp+16]
    5d52: 12           	movw bc, ax
    5d53: 15           	movw ax, de
    5d54: 44 00 00     	cmpw ax, #0
    5d57: df 17        	bnz $0x5d70 <__mbrtowc_r+0x2f>
    5d59: af e2 ef     	movw ax, !0xfefe2               ; 0xfefe2 <__datastart+0xe2>
    5d5c: b8 06        	movw [sp+6], ax
    5d5e: 34 24 62     	movw de, #25124
    5d61: f7           	clrw bc
    5d62: 17           	movw ax, hl
    5d63: b8 02        	movw [sp+2], ax
    5d65: e6           	onew ax
    5d66: b8 00        	movw [sp+0], ax
    5d68: a8 04        	movw ax, [sp+4]
    5d6a: 37           	xchw ax, hl
    5d6b: a8 06        	movw ax, [sp+6]
    5d6d: 37           	xchw ax, hl
    5d6e: ef 14        	br $0x5d84 <__mbrtowc_r+0x43>
    5d70: af e2 ef     	movw ax, !0xfefe2               ; 0xfefe2 <__datastart+0xe2>
    5d73: b8 0a        	movw [sp+10], ax
    5d75: 17           	movw ax, hl
    5d76: b8 02        	movw [sp+2], ax
    5d78: 13           	movw ax, bc
    5d79: b8 00        	movw [sp+0], ax
    5d7b: a8 06        	movw ax, [sp+6]
    5d7d: 12           	movw bc, ax
    5d7e: a8 04        	movw ax, [sp+4]
    5d80: 37           	xchw ax, hl
    5d81: a8 0a        	movw ax, [sp+10]
    5d83: 37           	xchw ax, hl
    5d84: 61 fa        	call hl
    5d86: 12           	movw bc, ax
    5d87: 44 ff ff     	cmpw ax, #65535
    5d8a: df 0c        	bnz $0x5d98 <__mbrtowc_r+0x57>
    5d8c: a8 04        	movw ax, [sp+4]
    5d8e: 14           	movw de, ax
    5d8f: 30 8a 00     	movw ax, #138
    5d92: b9           	movw [de], ax
    5d93: a8 08        	movw ax, [sp+8]
    5d95: 16           	movw hl, ax
    5d96: f6           	clrw ax
    5d97: bb           	movw [hl], ax
    5d98: 13           	movw ax, bc
    5d99: 10 0c        	addw sp, #12
    5d9b: d7           	ret

00005d9c <_realloc>:
    5d9c: c3           	push bc
    5d9d: c4           	pop de
    5d9e: 12           	movw bc, ax
    5d9f: af 64 f3     	movw ax, !0xff364               ; 0xff364 <__impure_ptr>
    5da2: ed ab 57     	br !0x57ab <__realloc_r>

00005da5 <_iswspace>:
    5da5: f7           	clrw bc
    5da6: ed a9 5d     	br !0x5da9 <_iswspace_l>

00005da9 <_iswspace_l>:
    5da9: f7           	clrw bc
    5daa: 44 ff 00     	cmpw ax, #255
    5dad: 61 c3 0b     	bh $0x5dbb <_iswspace_l+0x12>
    5db0: 32 f5 65     	movw bc, #26101
    5db3: 03           	addw ax, bc
    5db4: 16           	movw hl, ax
    5db5: 51 08        	mov a, #8
    5db7: 5d           	and a, [hl]
    5db8: 72           	mov c, a
    5db9: f1           	clrb a
    5dba: 73           	mov b, a
    5dbb: 13           	movw ax, bc
    5dbc: d7           	ret

00005dbd <__strtoull_r>:
    5dbd: 20 06        	subw sp, #6
    5dbf: 16           	movw hl, ax
    5dc0: 37           	xchw ax, hl
    5dc1: b8 04        	movw [sp+4], ax
    5dc3: 37           	xchw ax, hl
    5dc4: a8 0c        	movw ax, [sp+12]
    5dc6: b8 02        	movw [sp+2], ax
    5dc8: a8 0a        	movw ax, [sp+10]
    5dca: b8 00        	movw [sp+0], ax
    5dcc: 17           	movw ax, hl
    5dcd: fd d5 5d     	call !0x5dd5 <__strtoull_l>
    5dd0: a8 04        	movw ax, [sp+4]
    5dd2: 10 06        	addw sp, #6
    5dd4: d7           	ret

00005dd5 <__strtoull_l>:
    5dd5: 20 52        	subw sp, #82
    5dd7: 33           	xchw ax, bc
    5dd8: b8 50        	movw [sp+80], ax
    5dda: 33           	xchw ax, bc
    5ddb: b8 4c        	movw [sp+76], ax
    5ddd: a8 58        	movw ax, [sp+88]
    5ddf: b8 28        	movw [sp+40], ax
    5de1: a8 56        	movw ax, [sp+86]
    5de3: b8 4a        	movw [sp+74], ax
    5de5: 35           	xchw ax, de
    5de6: b8 4e        	movw [sp+78], ax
    5de8: 35           	xchw ax, de
    5de9: 15           	movw ax, de
    5dea: b8 2e        	movw [sp+46], ax
    5dec: 36 f5 65     	movw hl, #26101
    5def: a8 2e        	movw ax, [sp+46]
    5df1: 14           	movw de, ax
    5df2: a1           	incw ax
    5df3: b8 2e        	movw [sp+46], ax
    5df5: 89           	mov a, [de]
    5df6: 72           	mov c, a
    5df7: f1           	clrb a
    5df8: 73           	mov b, a
    5df9: 13           	movw ax, bc
    5dfa: 07           	addw ax, hl
    5dfb: 16           	movw hl, ax
    5dfc: 31 b3 ed     	bt [hl].3, $0x5dec <__strtoull_l+0x17>
    5dff: a8 2e        	movw ax, [sp+46]
    5e01: 16           	movw hl, ax
    5e02: 62           	mov a, c
    5e03: 4c 2d        	cmp a, #45
    5e05: dd 09        	bz $0x5e10 <__strtoull_l+0x3b>
    5e07: 33           	xchw ax, bc
    5e08: b8 32        	movw [sp+50], ax
    5e0a: 33           	xchw ax, bc
    5e0b: 62           	mov a, c
    5e0c: 4c 2b        	cmp a, #43
    5e0e: df 03        	bnz $0x5e13 <__strtoull_l+0x3e>
    5e10: fd 03 61     	call !0x6103 <_OUTLINED_FUNCTION_4>
    5e13: a8 28        	movw ax, [sp+40]
    5e15: 33           	xchw ax, bc
    5e16: b8 46        	movw [sp+70], ax
    5e18: 33           	xchw ax, bc
    5e19: 08           	xch a, x
    5e1a: 6c 10        	or a, #16
    5e1c: 08           	xch a, x
    5e1d: 44 10 00     	cmpw ax, #16
    5e20: df 24        	bnz $0x5e46 <__strtoull_l+0x71>
    5e22: a8 32        	movw ax, [sp+50]
    5e24: 44 30 00     	cmpw ax, #48
    5e27: df 1d        	bnz $0x5e46 <__strtoull_l+0x71>
    5e29: c7           	push hl
    5e2a: c4           	pop de
    5e2b: 51 20        	mov a, #32
    5e2d: 6d           	or a, [hl]
    5e2e: 4c 78        	cmp a, #120
    5e30: dd 0c        	bz $0x5e3e <__strtoull_l+0x69>
    5e32: c5           	push de
    5e33: c6           	pop hl
    5e34: fd 1f 61     	call !0x611f <_OUTLINED_FUNCTION_7>
    5e37: dd 21        	bz $0x5e5a <__strtoull_l+0x85>
    5e39: 34 00 00     	movw de, #0
    5e3c: ef 1c        	br $0x5e5a <__strtoull_l+0x85>
    5e3e: 30 10 00     	movw ax, #16
    5e41: b8 28        	movw [sp+40], ax
    5e43: fd 03 61     	call !0x6103 <_OUTLINED_FUNCTION_4>
    5e46: fd 1f 61     	call !0x611f <_OUTLINED_FUNCTION_7>
    5e49: 61 e8        	skz
    5e4b: 34 00 00     	movw de, #0
    5e4e: 30 0a 00     	movw ax, #10
    5e51: b8 44        	movw [sp+68], ax
    5e53: a8 32        	movw ax, [sp+50]
    5e55: 44 30 00     	cmpw ax, #48
    5e58: df 0a        	bnz $0x5e64 <__strtoull_l+0x8f>
    5e5a: 30 08 00     	movw ax, #8
    5e5d: b8 44        	movw [sp+68], ax
    5e5f: 30 30 00     	movw ax, #48
    5e62: b8 32        	movw [sp+50], ax
    5e64: 17           	movw ax, hl
    5e65: b8 2e        	movw [sp+46], ax
    5e67: 64           	mov a, e
    5e68: 31 03 04     	bt a.0, $0x5e6f <__strtoull_l+0x9a>
    5e6b: a8 28        	movw ax, [sp+40]
    5e6d: b8 44        	movw [sp+68], ax
    5e6f: f6           	clrw ax
    5e70: b1           	decw ax
    5e71: b8 06        	movw [sp+6], ax
    5e73: b8 04        	movw [sp+4], ax
    5e75: b8 02        	movw [sp+2], ax
    5e77: fd 28 61     	call !0x6128 <_OUTLINED_FUNCTION_8>
    5e7a: b8 28        	movw [sp+40], ax
    5e7c: fd 0e 61     	call !0x610e <_OUTLINED_FUNCTION_5>
    5e7f: ae f8        	movw ax, sp
    5e81: 04 10 00     	addw ax, #16
    5e84: fd 14 07     	call !0x714 <___udivdi3>
    5e87: a8 28        	movw ax, [sp+40]
    5e89: fd 0e 61     	call !0x610e <_OUTLINED_FUNCTION_5>
    5e8c: a8 44        	movw ax, [sp+68]
    5e8e: b8 08        	movw [sp+8], ax
    5e90: a8 16        	movw ax, [sp+22]
    5e92: b8 38        	movw [sp+56], ax
    5e94: b8 06        	movw [sp+6], ax
    5e96: a8 14        	movw ax, [sp+20]
    5e98: b8 3c        	movw [sp+60], ax
    5e9a: b8 04        	movw [sp+4], ax
    5e9c: a8 12        	movw ax, [sp+18]
    5e9e: b8 3e        	movw [sp+62], ax
    5ea0: b8 02        	movw [sp+2], ax
    5ea2: a8 10        	movw ax, [sp+16]
    5ea4: b8 40        	movw [sp+64], ax
    5ea6: b8 00        	movw [sp+0], ax
    5ea8: ae f8        	movw ax, sp
    5eaa: 04 18 00     	addw ax, #24
    5ead: fd 86 09     	call !0x986 <___muldi3>
    5eb0: f6           	clrw ax
    5eb1: b8 30        	movw [sp+48], ax
    5eb3: b8 36        	movw [sp+54], ax
    5eb5: a8 18        	movw ax, [sp+24]
    5eb7: 12           	movw bc, ax
    5eb8: 30 ff ff     	movw ax, #65535
    5ebb: 23           	subw ax, bc
    5ebc: b8 48        	movw [sp+72], ax
    5ebe: f6           	clrw ax
    5ebf: b8 2c        	movw [sp+44], ax
    5ec1: b8 2a        	movw [sp+42], ax
    5ec3: b8 28        	movw [sp+40], ax
    5ec5: a8 2e        	movw ax, [sp+46]
    5ec7: 12           	movw bc, ax
    5ec8: a8 46        	movw ax, [sp+70]
    5eca: 14           	movw de, ax
    5ecb: a8 32        	movw ax, [sp+50]
    5ecd: 16           	movw hl, ax
    5ece: 33           	xchw ax, bc
    5ecf: b8 2e        	movw [sp+46], ax
    5ed1: 33           	xchw ax, bc
    5ed2: 17           	movw ax, hl
    5ed3: 04 d0 ff     	addw ax, #65488
    5ed6: 44 0a 00     	cmpw ax, #10
    5ed9: dc 20        	bc $0x5efb <__strtoull_l+0x126>
    5edb: 17           	movw ax, hl
    5edc: 04 bf ff     	addw ax, #65471
    5edf: 44 19 00     	cmpw ax, #25
    5ee2: 61 c3 06     	bh $0x5eeb <__strtoull_l+0x116>
    5ee5: 17           	movw ax, hl
    5ee6: 04 c9 ff     	addw ax, #65481
    5ee9: ef 10        	br $0x5efb <__strtoull_l+0x126>
    5eeb: 17           	movw ax, hl
    5eec: 04 9f ff     	addw ax, #65439
    5eef: 44 19 00     	cmpw ax, #25
    5ef2: 61 f3        	sknh
    5ef4: ee 6a 01     	br $!0x6061 <__strtoull_l+0x28c>
    5ef7: 17           	movw ax, hl
    5ef8: 04 a9 ff     	addw ax, #65449
    5efb: b8 42        	movw [sp+66], ax
    5efd: 37           	xchw ax, hl
    5efe: a8 44        	movw ax, [sp+68]
    5f00: 37           	xchw ax, hl
    5f01: 47           	cmpw ax, hl
    5f02: 71 ff        	xor1 cy, a.7
    5f04: 67           	mov a, h
    5f05: 71 ff        	xor1 cy, a.7
    5f07: 61 c8        	skc
    5f09: ee 55 01     	br $!0x6061 <__strtoull_l+0x28c>
    5f0c: f6           	clrw ax
    5f0d: b1           	decw ax
    5f0e: b8 3a        	movw [sp+58], ax
    5f10: a8 30        	movw ax, [sp+48]
    5f12: 33           	xchw ax, bc
    5f13: a8 36        	movw ax, [sp+54]
    5f15: fd e9 60     	call !0x60e9 <_OUTLINED_FUNCTION_2>
    5f18: 71 fc        	mov1 cy, a.7
    5f1a: 61 d8        	sknc
    5f1c: ee 18 01     	br $!0x6037 <__strtoull_l+0x262>
    5f1f: 13           	movw ax, bc
    5f20: 33           	xchw ax, bc
    5f21: a8 40        	movw ax, [sp+64]
    5f23: 33           	xchw ax, bc
    5f24: 43           	cmpw ax, bc
    5f25: e6           	onew ax
    5f26: 61 e3        	skh
    5f28: f6           	clrw ax
    5f29: b8 30        	movw [sp+48], ax
    5f2b: a8 2c        	movw ax, [sp+44]
    5f2d: 33           	xchw ax, bc
    5f2e: a8 3e        	movw ax, [sp+62]
    5f30: 33           	xchw ax, bc
    5f31: 43           	cmpw ax, bc
    5f32: e7           	onew bc
    5f33: 61 e3        	skh
    5f35: f7           	clrw bc
    5f36: a8 2c        	movw ax, [sp+44]
    5f38: 35           	xchw ax, de
    5f39: a8 3e        	movw ax, [sp+62]
    5f3b: 35           	xchw ax, de
    5f3c: 45           	cmpw ax, de
    5f3d: dd 03        	bz $0x5f42 <__strtoull_l+0x16d>
    5f3f: 13           	movw ax, bc
    5f40: b8 30        	movw [sp+48], ax
    5f42: 36 01 00     	movw hl, #1
    5f45: a8 2a        	movw ax, [sp+42]
    5f47: 33           	xchw ax, bc
    5f48: a8 3c        	movw ax, [sp+60]
    5f4a: 33           	xchw ax, bc
    5f4b: 43           	cmpw ax, bc
    5f4c: 61 e3        	skh
    5f4e: 36 00 00     	movw hl, #0
    5f51: a8 28        	movw ax, [sp+40]
    5f53: 33           	xchw ax, bc
    5f54: a8 38        	movw ax, [sp+56]
    5f56: 33           	xchw ax, bc
    5f57: 43           	cmpw ax, bc
    5f58: e7           	onew bc
    5f59: 61 e3        	skh
    5f5b: f7           	clrw bc
    5f5c: a8 28        	movw ax, [sp+40]
    5f5e: 35           	xchw ax, de
    5f5f: a8 38        	movw ax, [sp+56]
    5f61: 35           	xchw ax, de
    5f62: 45           	cmpw ax, de
    5f63: dd 02        	bz $0x5f67 <__strtoull_l+0x192>
    5f65: c3           	push bc
    5f66: c6           	pop hl
    5f67: a8 2a        	movw ax, [sp+42]
    5f69: 33           	xchw ax, bc
    5f6a: a8 3c        	movw ax, [sp+60]
    5f6c: fd d2 60     	call !0x60d2 <_OUTLINED_FUNCTION_1>
    5f6f: fd 15 61     	call !0x6115 <_OUTLINED_FUNCTION_6>
    5f72: a8 30        	movw ax, [sp+48]
    5f74: 61 e8        	skz
    5f76: 17           	movw ax, hl
    5f77: 33           	xchw ax, bc
    5f78: a8 36        	movw ax, [sp+54]
    5f7a: 33           	xchw ax, bc
    5f7b: 60           	mov a, x
    5f7c: 33           	xchw ax, bc
    5f7d: fd e9 60     	call !0x60e9 <_OUTLINED_FUNCTION_2>
    5f80: 71 8c        	mov1 cy, a.0
    5f82: 61 d8        	sknc
    5f84: ee b0 00     	br $!0x6037 <__strtoull_l+0x262>
    5f87: 13           	movw ax, bc
    5f88: 33           	xchw ax, bc
    5f89: a8 40        	movw ax, [sp+64]
    5f8b: 33           	xchw ax, bc
    5f8c: 61 7b        	xor a, b
    5f8e: 08           	xch a, x
    5f8f: 61 7a        	xor a, c
    5f91: 08           	xch a, x
    5f92: 14           	movw de, ax
    5f93: a8 2a        	movw ax, [sp+42]
    5f95: 33           	xchw ax, bc
    5f96: a8 3c        	movw ax, [sp+60]
    5f98: 33           	xchw ax, bc
    5f99: 61 7b        	xor a, b
    5f9b: 08           	xch a, x
    5f9c: 61 7a        	xor a, c
    5f9e: 08           	xch a, x
    5f9f: 12           	movw bc, ax
    5fa0: 15           	movw ax, de
    5fa1: 61 6b        	or a, b
    5fa3: 08           	xch a, x
    5fa4: 61 6a        	or a, c
    5fa6: 08           	xch a, x
    5fa7: 16           	movw hl, ax
    5fa8: a8 2c        	movw ax, [sp+44]
    5faa: 33           	xchw ax, bc
    5fab: a8 3e        	movw ax, [sp+62]
    5fad: fd d2 60     	call !0x60d2 <_OUTLINED_FUNCTION_1>
    5fb0: 35           	xchw ax, de
    5fb1: a8 36        	movw ax, [sp+54]
    5fb3: 35           	xchw ax, de
    5fb4: 61 6b        	or a, b
    5fb6: 08           	xch a, x
    5fb7: 61 6a        	or a, c
    5fb9: 08           	xch a, x
    5fba: 12           	movw bc, ax
    5fbb: 17           	movw ax, hl
    5fbc: fd 15 61     	call !0x6115 <_OUTLINED_FUNCTION_6>
    5fbf: df 22        	bnz $0x5fe3 <__strtoull_l+0x20e>
    5fc1: f6           	clrw ax
    5fc2: b1           	decw ax
    5fc3: b8 3a        	movw [sp+58], ax
    5fc5: a8 42        	movw ax, [sp+66]
    5fc7: 33           	xchw ax, bc
    5fc8: a8 48        	movw ax, [sp+72]
    5fca: 33           	xchw ax, bc
    5fcb: 43           	cmpw ax, bc
    5fcc: 71 ff        	xor1 cy, a.7
    5fce: 63           	mov a, b
    5fcf: 71 ff        	xor1 cy, a.7
    5fd1: a8 40        	movw ax, [sp+64]
    5fd3: b8 30        	movw [sp+48], ax
    5fd5: a8 3e        	movw ax, [sp+62]
    5fd7: b8 32        	movw [sp+50], ax
    5fd9: a8 3c        	movw ax, [sp+60]
    5fdb: b8 34        	movw [sp+52], ax
    5fdd: a8 38        	movw ax, [sp+56]
    5fdf: 16           	movw hl, ax
    5fe0: 61 c3 54     	bh $0x6037 <__strtoull_l+0x262>
    5fe3: 15           	movw ax, de
    5fe4: fd 28 61     	call !0x6128 <_OUTLINED_FUNCTION_8>
    5fe7: fd 0e 61     	call !0x610e <_OUTLINED_FUNCTION_5>
    5fea: a8 2c        	movw ax, [sp+44]
    5fec: b8 02        	movw [sp+2], ax
    5fee: a8 2a        	movw ax, [sp+42]
    5ff0: b8 04        	movw [sp+4], ax
    5ff2: a8 28        	movw ax, [sp+40]
    5ff4: b8 06        	movw [sp+6], ax
    5ff6: ae f8        	movw ax, sp
    5ff8: 04 20 00     	addw ax, #32
    5ffb: fd 86 09     	call !0x986 <___muldi3>
    5ffe: a8 20        	movw ax, [sp+32]
    6000: 14           	movw de, ax
    6001: a8 22        	movw ax, [sp+34]
    6003: 16           	movw hl, ax
    6004: a8 24        	movw ax, [sp+36]
    6006: b8 2a        	movw [sp+42], ax
    6008: a8 26        	movw ax, [sp+38]
    600a: b8 28        	movw [sp+40], ax
    600c: a8 42        	movw ax, [sp+66]
    600e: 12           	movw bc, ax
    600f: 15           	movw ax, de
    6010: 03           	addw ax, bc
    6011: b8 30        	movw [sp+48], ax
    6013: 17           	movw ax, hl
    6014: 08           	xch a, x
    6015: 1c 00        	addc a, #0
    6017: 08           	xch a, x
    6018: 1c 00        	addc a, #0
    601a: 14           	movw de, ax
    601b: a8 2a        	movw ax, [sp+42]
    601d: 08           	xch a, x
    601e: 1c 00        	addc a, #0
    6020: 08           	xch a, x
    6021: 1c 00        	addc a, #0
    6023: 12           	movw bc, ax
    6024: de 05        	bnc $0x602b <__strtoull_l+0x256>
    6026: a8 28        	movw ax, [sp+40]
    6028: a1           	incw ax
    6029: b8 28        	movw [sp+40], ax
    602b: e6           	onew ax
    602c: b8 3a        	movw [sp+58], ax
    602e: a8 28        	movw ax, [sp+40]
    6030: 16           	movw hl, ax
    6031: 15           	movw ax, de
    6032: b8 32        	movw [sp+50], ax
    6034: 13           	movw ax, bc
    6035: b8 34        	movw [sp+52], ax
    6037: a8 2e        	movw ax, [sp+46]
    6039: 14           	movw de, ax
    603a: c5           	push de
    603b: c2           	pop bc
    603c: a3           	incw bc
    603d: 89           	mov a, [de]
    603e: 35           	xchw ax, de
    603f: a8 30        	movw ax, [sp+48]
    6041: 35           	xchw ax, de
    6042: 70           	mov x, a
    6043: 35           	xchw ax, de
    6044: b8 36        	movw [sp+54], ax
    6046: a8 32        	movw ax, [sp+50]
    6048: 35           	xchw ax, de
    6049: f1           	clrb a
    604a: 35           	xchw ax, de
    604b: b8 2c        	movw [sp+44], ax
    604d: a8 34        	movw ax, [sp+52]
    604f: b8 2a        	movw [sp+42], ax
    6051: 35           	xchw ax, de
    6052: 37           	xchw ax, hl
    6053: b8 28        	movw [sp+40], ax
    6055: 37           	xchw ax, hl
    6056: 16           	movw hl, ax
    6057: a8 3a        	movw ax, [sp+58]
    6059: b8 30        	movw [sp+48], ax
    605b: a8 46        	movw ax, [sp+70]
    605d: 14           	movw de, ax
    605e: ee 6d fe     	br $!0x5ece <__strtoull_l+0xf9>
    6061: a8 30        	movw ax, [sp+48]
    6063: 31 75 17     	bf a.7, $0x607d <__strtoull_l+0x2a8>
    6066: a8 50        	movw ax, [sp+80]
    6068: 16           	movw hl, ax
    6069: 34 ff ff     	movw de, #65535
    606c: 30 22 00     	movw ax, #34
    606f: bb           	movw [hl], ax
    6070: a8 2e        	movw ax, [sp+46]
    6072: 12           	movw bc, ax
    6073: f6           	clrw ax
    6074: b1           	decw ax
    6075: b8 28        	movw [sp+40], ax
    6077: b8 2c        	movw [sp+44], ax
    6079: b8 2a        	movw [sp+42], ax
    607b: ef 27        	br $0x60a4 <__strtoull_l+0x2cf>
    607d: 64           	mov a, e
    607e: 35           	xchw ax, de
    607f: a8 36        	movw ax, [sp+54]
    6081: 35           	xchw ax, de
    6082: 4c 2d        	cmp a, #45
    6084: df 1e        	bnz $0x60a4 <__strtoull_l+0x2cf>
    6086: f6           	clrw ax
    6087: 25           	subw ax, de
    6088: 35           	xchw ax, de
    6089: a8 2c        	movw ax, [sp+44]
    608b: 35           	xchw ax, de
    608c: 16           	movw hl, ax
    608d: fd fb 60     	call !0x60fb <_OUTLINED_FUNCTION_3>
    6090: b8 2c        	movw [sp+44], ax
    6092: a8 2a        	movw ax, [sp+42]
    6094: 14           	movw de, ax
    6095: fd fb 60     	call !0x60fb <_OUTLINED_FUNCTION_3>
    6098: b8 2a        	movw [sp+42], ax
    609a: a8 28        	movw ax, [sp+40]
    609c: 14           	movw de, ax
    609d: fd fb 60     	call !0x60fb <_OUTLINED_FUNCTION_3>
    60a0: c7           	push hl
    60a1: c4           	pop de
    60a2: b8 28        	movw [sp+40], ax
    60a4: a8 4a        	movw ax, [sp+74]
    60a6: 44 00 00     	cmpw ax, #0
    60a9: dd 12        	bz $0x60bd <__strtoull_l+0x2e8>
    60ab: a8 30        	movw ax, [sp+48]
    60ad: 44 00 00     	cmpw ax, #0
    60b0: dd 04        	bz $0x60b6 <__strtoull_l+0x2e1>
    60b2: b3           	decw bc
    60b3: 13           	movw ax, bc
    60b4: b8 4e        	movw [sp+78], ax
    60b6: a8 4e        	movw ax, [sp+78]
    60b8: 37           	xchw ax, hl
    60b9: a8 4a        	movw ax, [sp+74]
    60bb: 37           	xchw ax, hl
    60bc: bb           	movw [hl], ax
    60bd: a8 4c        	movw ax, [sp+76]
    60bf: 16           	movw hl, ax
    60c0: 15           	movw ax, de
    60c1: bb           	movw [hl], ax
    60c2: a8 2c        	movw ax, [sp+44]
    60c4: bc 02        	movw [hl+2], ax
    60c6: a8 2a        	movw ax, [sp+42]
    60c8: bc 04        	movw [hl+4], ax
    60ca: a8 28        	movw ax, [sp+40]
    60cc: bc 06        	movw [hl+6], ax
    60ce: 17           	movw ax, hl
    60cf: 10 52        	addw sp, #82
    60d1: d7           	ret

000060d2 <_OUTLINED_FUNCTION_1>:
    60d2: 33           	xchw ax, bc
    60d3: 61 7b        	xor a, b
    60d5: 08           	xch a, x
    60d6: 61 7a        	xor a, c
    60d8: 08           	xch a, x
    60d9: 14           	movw de, ax
    60da: a8 2c        	movw ax, [sp+44]
    60dc: 33           	xchw ax, bc
    60dd: a8 3c        	movw ax, [sp+60]
    60df: 33           	xchw ax, bc
    60e0: 61 7b        	xor a, b
    60e2: 08           	xch a, x
    60e3: 61 7a        	xor a, c
    60e5: 08           	xch a, x
    60e6: 12           	movw bc, ax
    60e7: 15           	movw ax, de
    60e8: d7           	ret

000060e9 <_OUTLINED_FUNCTION_2>:
    60e9: b8 34        	movw [sp+52], ax
    60eb: 33           	xchw ax, bc
    60ec: 35           	xchw ax, de
    60ed: a8 30        	movw ax, [sp+48]
    60ef: b8 36        	movw [sp+54], ax
    60f1: a8 2e        	movw ax, [sp+46]
    60f3: b8 38        	movw [sp+56], ax
    60f5: 35           	xchw ax, de
    60f6: 37           	xchw ax, hl
    60f7: a8 2c        	movw ax, [sp+44]
    60f9: 37           	xchw ax, hl
    60fa: d7           	ret

000060fb <_OUTLINED_FUNCTION_3>:
    60fb: f6           	clrw ax
    60fc: 08           	xch a, x
    60fd: 61 3c        	subc a, e
    60ff: 08           	xch a, x
    6100: 61 3d        	subc a, d
    6102: d7           	ret

00006103 <_OUTLINED_FUNCTION_4>:
    6103: 15           	movw ax, de
    6104: a1           	incw ax
    6105: a1           	incw ax
    6106: 16           	movw hl, ax
    6107: 8a 01        	mov a, [de+1]
    6109: 31 8e        	shrw ax, 8
    610b: b8 36        	movw [sp+54], ax
    610d: d7           	ret

0000610e <_OUTLINED_FUNCTION_5>:
    610e: b8 12        	movw [sp+18], ax
    6110: b8 10        	movw [sp+16], ax
    6112: b8 0e        	movw [sp+14], ax
    6114: d7           	ret

00006115 <_OUTLINED_FUNCTION_6>:
    6115: 61 6b        	or a, b
    6117: 08           	xch a, x
    6118: 61 6a        	or a, c
    611a: 08           	xch a, x
    611b: 44 00 00     	cmpw ax, #0
    611e: d7           	ret

0000611f <_OUTLINED_FUNCTION_7>:
    611f: 34 01 00     	movw de, #1
    6122: a8 2c        	movw ax, [sp+44]
    6124: 44 00 00     	cmpw ax, #0
    6127: d7           	ret

00006128 <_OUTLINED_FUNCTION_8>:
    6128: b8 04        	movw [sp+4], ax
    612a: a8 48        	movw ax, [sp+72]
    612c: b8 0c        	movw [sp+12], ax
    612e: 31 ff        	sarw ax, 15
    6130: d7           	ret
